
kernel/kernel:     file format elf64-littleriscv


Disassembly of section .text:

0000000080000000 <_start>:
_start():
/home/whalefall/Projects/WhaleOS/kernel/start.S:7
# and causes each CPU to jump there

.section .text
.global _start
_start:
    la sp, init_stack_top
    80000000:	00001117          	auipc	sp,0x1
    80000004:	40010113          	addi	sp,sp,1024 # 80001400 <init_stack_top>
/home/whalefall/Projects/WhaleOS/kernel/start.S:10

    # keep each CPU's hartid in its tp
    csrr tp, mhartid
    80000008:	f1402273          	csrr	tp,mhartid
/home/whalefall/Projects/WhaleOS/kernel/start.S:14
    
    # set mstatus.MPP to 0x01
    # after mret will enter S mode
    li a0, 0x1000
    8000000c:	6505                	lui	a0,0x1
/home/whalefall/Projects/WhaleOS/kernel/start.S:15
    csrrc x0, mstatus, a0
    8000000e:	30053073          	csrc	mstatus,a0
/home/whalefall/Projects/WhaleOS/kernel/start.S:16
    srli a0, a0, 1
    80000012:	8105                	srli	a0,a0,0x1
/home/whalefall/Projects/WhaleOS/kernel/start.S:17
    csrrs x0, mstatus, a0
    80000014:	30052073          	csrs	mstatus,a0
/home/whalefall/Projects/WhaleOS/kernel/start.S:20

    # set mepc to main
    la a0, main
    80000018:	00000517          	auipc	a0,0x0
    8000001c:	13850513          	addi	a0,a0,312 # 80000150 <main>
/home/whalefall/Projects/WhaleOS/kernel/start.S:21
    csrw mepc, a0
    80000020:	34151073          	csrw	mepc,a0
/home/whalefall/Projects/WhaleOS/kernel/start.S:24

    # forbid pagetable
    csrw satp, x0
    80000024:	18001073          	csrw	satp,zero
/home/whalefall/Projects/WhaleOS/kernel/start.S:27

    # delegate all interrupts and exceptions to S mode
    li t0, 0xffff
    80000028:	62c1                	lui	t0,0x10
    8000002a:	32fd                	addiw	t0,t0,-1 # ffff <_start-0x7fff0001>
/home/whalefall/Projects/WhaleOS/kernel/start.S:28
    csrw medeleg, t0
    8000002c:	30229073          	csrw	medeleg,t0
/home/whalefall/Projects/WhaleOS/kernel/start.S:29
    csrw mideleg, t0
    80000030:	30329073          	csrw	mideleg,t0
/home/whalefall/Projects/WhaleOS/kernel/start.S:32

    # enable interrupts in S mode
    li a0, 0x222
    80000034:	22200513          	li	a0,546
/home/whalefall/Projects/WhaleOS/kernel/start.S:33
    csrrs x0, sie, a0
    80000038:	10452073          	csrs	sie,a0
/home/whalefall/Projects/WhaleOS/kernel/start.S:38

    # jal ra, timerinit

    # allow S mode to access all physical memory
    csrwi pmpcfg0, 0xf
    8000003c:	3a07d073          	csrwi	pmpcfg0,15
/home/whalefall/Projects/WhaleOS/kernel/start.S:39
    li t0, 0x3fffffffffffff
    80000040:	0010029b          	addiw	t0,zero,1
    80000044:	12da                	slli	t0,t0,0x36
    80000046:	12fd                	addi	t0,t0,-1
/home/whalefall/Projects/WhaleOS/kernel/start.S:40
    csrw pmpaddr0, t0
    80000048:	3b029073          	csrw	pmpaddr0,t0
/home/whalefall/Projects/WhaleOS/kernel/start.S:43

    # enter S mode and jump to main
    mret
    8000004c:	30200073          	mret

0000000080000050 <uart_init>:
uart_init():
/home/whalefall/Projects/WhaleOS/kernel/devices/uart.c:25
#define uart_read_reg(reg) (*UART_REG(reg))
#define uart_write_reg(reg, v) (*UART_REG(reg) = v)

void 
uart_init()
{
    80000050:	1141                	addi	sp,sp,-16
    80000052:	e406                	sd	ra,8(sp)
    80000054:	e022                	sd	s0,0(sp)
    80000056:	0800                	addi	s0,sp,16
/home/whalefall/Projects/WhaleOS/kernel/devices/uart.c:27
    // disable interrupts
    uart_write_reg(IER, 0x00);
    80000058:	100007b7          	lui	a5,0x10000
    8000005c:	0785                	addi	a5,a5,1 # 10000001 <_start-0x6fffffff>
    8000005e:	00078023          	sb	zero,0(a5)
/home/whalefall/Projects/WhaleOS/kernel/devices/uart.c:30

    // enable divcisor latch
    uart_write_reg(LCR, ((1 << 7) | uart_read_reg(LCR)));
    80000062:	100007b7          	lui	a5,0x10000
    80000066:	078d                	addi	a5,a5,3 # 10000003 <_start-0x6ffffffd>
    80000068:	0007c783          	lbu	a5,0(a5)
    8000006c:	0ff7f713          	zext.b	a4,a5
    80000070:	100007b7          	lui	a5,0x10000
    80000074:	078d                	addi	a5,a5,3 # 10000003 <_start-0x6ffffffd>
    80000076:	f8076713          	ori	a4,a4,-128
    8000007a:	0ff77713          	zext.b	a4,a4
    8000007e:	00e78023          	sb	a4,0(a5)
/home/whalefall/Projects/WhaleOS/kernel/devices/uart.c:32
    // baud rate 38.4k
    uart_write_reg(DLL, 0x03);
    80000082:	100007b7          	lui	a5,0x10000
    80000086:	470d                	li	a4,3
    80000088:	00e78023          	sb	a4,0(a5) # 10000000 <_start-0x70000000>
/home/whalefall/Projects/WhaleOS/kernel/devices/uart.c:33
    uart_write_reg(DLM, 0x00);
    8000008c:	100007b7          	lui	a5,0x10000
    80000090:	0785                	addi	a5,a5,1 # 10000001 <_start-0x6fffffff>
    80000092:	00078023          	sb	zero,0(a5)
/home/whalefall/Projects/WhaleOS/kernel/devices/uart.c:37

    // leave set-baud mode,
    // and set word length to 8 bits, no parity.
    uart_write_reg(LCR, 0x03);
    80000096:	100007b7          	lui	a5,0x10000
    8000009a:	078d                	addi	a5,a5,3 # 10000003 <_start-0x6ffffffd>
    8000009c:	470d                	li	a4,3
    8000009e:	00e78023          	sb	a4,0(a5)
/home/whalefall/Projects/WhaleOS/kernel/devices/uart.c:41

    // enable RHR, THR interrupts
    // uart_write_reg(IER, 0x03);
}
    800000a2:	0001                	nop
    800000a4:	60a2                	ld	ra,8(sp)
    800000a6:	6402                	ld	s0,0(sp)
    800000a8:	0141                	addi	sp,sp,16
    800000aa:	8082                	ret

00000000800000ac <uart_putc>:
uart_putc():
/home/whalefall/Projects/WhaleOS/kernel/devices/uart.c:46

// polling
char 
uart_putc(char c)
{
    800000ac:	1101                	addi	sp,sp,-32
    800000ae:	ec06                	sd	ra,24(sp)
    800000b0:	e822                	sd	s0,16(sp)
    800000b2:	1000                	addi	s0,sp,32
    800000b4:	87aa                	mv	a5,a0
    800000b6:	fef407a3          	sb	a5,-17(s0)
/home/whalefall/Projects/WhaleOS/kernel/devices/uart.c:47
    while ((uart_read_reg(LSR) & LSR_TX_IDLE) == 0)
    800000ba:	0001                	nop
/home/whalefall/Projects/WhaleOS/kernel/devices/uart.c:47 (discriminator 1)
    800000bc:	100007b7          	lui	a5,0x10000
    800000c0:	0795                	addi	a5,a5,5 # 10000005 <_start-0x6ffffffb>
    800000c2:	0007c783          	lbu	a5,0(a5)
    800000c6:	0ff7f793          	zext.b	a5,a5
    800000ca:	2781                	sext.w	a5,a5
    800000cc:	0207f793          	andi	a5,a5,32
    800000d0:	2781                	sext.w	a5,a5
    800000d2:	d7ed                	beqz	a5,800000bc <uart_putc+0x10>
/home/whalefall/Projects/WhaleOS/kernel/devices/uart.c:49
        ;
    return uart_write_reg(THR, c);
    800000d4:	10000737          	lui	a4,0x10000
    800000d8:	fef44783          	lbu	a5,-17(s0)
    800000dc:	00f70023          	sb	a5,0(a4) # 10000000 <_start-0x70000000>
/home/whalefall/Projects/WhaleOS/kernel/devices/uart.c:50
}
    800000e0:	853e                	mv	a0,a5
    800000e2:	60e2                	ld	ra,24(sp)
    800000e4:	6442                	ld	s0,16(sp)
    800000e6:	6105                	addi	sp,sp,32
    800000e8:	8082                	ret

00000000800000ea <test_printf>:
test_printf():
/home/whalefall/Projects/WhaleOS/kernel/test/testlib.c:6
#include <defs.h>
#include <debug.h>

void
test_printf()
{
    800000ea:	1141                	addi	sp,sp,-16
    800000ec:	e406                	sd	ra,8(sp)
    800000ee:	e022                	sd	s0,0(sp)
    800000f0:	0800                	addi	s0,sp,16
/home/whalefall/Projects/WhaleOS/kernel/test/testlib.c:7
    printf("Test print d, show -114514:\t%d\n", -114514);
    800000f2:	7791                	lui	a5,0xfffe4
    800000f4:	0ae78593          	addi	a1,a5,174 # fffffffffffe40ae <init_stack+0xffffffff7ffe20ae>
    800000f8:	00001517          	auipc	a0,0x1
    800000fc:	f0850513          	addi	a0,a0,-248 # 80001000 <memcpy+0x42>
    80000100:	2a9000ef          	jal	80000ba8 <printf>
/home/whalefall/Projects/WhaleOS/kernel/test/testlib.c:8
    printf("Test print x, show 0x11451a:\t%#x and upper: %#X\n", 0x11451A, 0x114514A);
    80000104:	011457b7          	lui	a5,0x1145
    80000108:	14a78613          	addi	a2,a5,330 # 114514a <_start-0x7eebaeb6>
    8000010c:	001147b7          	lui	a5,0x114
    80000110:	51a78593          	addi	a1,a5,1306 # 11451a <_start-0x7feebae6>
    80000114:	00001517          	auipc	a0,0x1
    80000118:	f0c50513          	addi	a0,a0,-244 # 80001020 <memcpy+0x62>
    8000011c:	28d000ef          	jal	80000ba8 <printf>
/home/whalefall/Projects/WhaleOS/kernel/test/testlib.c:9
    printf("Test print p, show main:\t%p\n", test_printf);
    80000120:	00000597          	auipc	a1,0x0
    80000124:	fca58593          	addi	a1,a1,-54 # 800000ea <test_printf>
    80000128:	00001517          	auipc	a0,0x1
    8000012c:	f3050513          	addi	a0,a0,-208 # 80001058 <memcpy+0x9a>
    80000130:	279000ef          	jal	80000ba8 <printf>
/home/whalefall/Projects/WhaleOS/kernel/test/testlib.c:10
    printf("Test print u, show 114514:\t%u\n", 114514);
    80000134:	67f1                	lui	a5,0x1c
    80000136:	f5278593          	addi	a1,a5,-174 # 1bf52 <_start-0x7ffe40ae>
    8000013a:	00001517          	auipc	a0,0x1
    8000013e:	f3e50513          	addi	a0,a0,-194 # 80001078 <memcpy+0xba>
    80000142:	267000ef          	jal	80000ba8 <printf>
/home/whalefall/Projects/WhaleOS/kernel/test/testlib.c:11
    80000146:	0001                	nop
    80000148:	60a2                	ld	ra,8(sp)
    8000014a:	6402                	ld	s0,0(sp)
    8000014c:	0141                	addi	sp,sp,16
    8000014e:	8082                	ret

0000000080000150 <main>:
main():
/home/whalefall/Projects/WhaleOS/kernel/main.c:15
char init_stack[PGSIZE] __attribute__((aligned(PGSIZE)));
char *init_stack_top = &init_stack[PGSIZE];

int 
main()
{
    80000150:	1141                	addi	sp,sp,-16
    80000152:	e406                	sd	ra,8(sp)
    80000154:	e022                	sd	s0,0(sp)
    80000156:	0800                	addi	s0,sp,16
/home/whalefall/Projects/WhaleOS/kernel/main.c:16
    uart_init();
    80000158:	ef9ff0ef          	jal	80000050 <uart_init>
/home/whalefall/Projects/WhaleOS/kernel/main.c:17
    puts("Initialize uart0\n");
    8000015c:	00001517          	auipc	a0,0x1
    80000160:	f3c50513          	addi	a0,a0,-196 # 80001098 <memcpy+0xda>
    80000164:	2c1000ef          	jal	80000c24 <puts>
/home/whalefall/Projects/WhaleOS/kernel/main.c:18
    test_printf();
    80000168:	f83ff0ef          	jal	800000ea <test_printf>
/home/whalefall/Projects/WhaleOS/kernel/main.c:19
    return 0;
    8000016c:	4781                	li	a5,0
/home/whalefall/Projects/WhaleOS/kernel/main.c:20
    8000016e:	853e                	mv	a0,a5
    80000170:	60a2                	ld	ra,8(sp)
    80000172:	6402                	ld	s0,0(sp)
    80000174:	0141                	addi	sp,sp,16
    80000176:	8082                	ret

0000000080000178 <skip_atoi>:
skip_atoi():
/home/whalefall/Projects/WhaleOS/kernel/lib/printf.c:26
static const char* digits_high = "0123456789ABCDEFGHIJKLMNOPQRSTUVWXYZ";

// string convert to number
static inline int
skip_atoi(const char** s)
{
    80000178:	7179                	addi	sp,sp,-48
    8000017a:	f406                	sd	ra,40(sp)
    8000017c:	f022                	sd	s0,32(sp)
    8000017e:	1800                	addi	s0,sp,48
    80000180:	fca43c23          	sd	a0,-40(s0)
/home/whalefall/Projects/WhaleOS/kernel/lib/printf.c:27
    int i = 0;
    80000184:	fe042623          	sw	zero,-20(s0)
/home/whalefall/Projects/WhaleOS/kernel/lib/printf.c:28
    while (is_digit(**s))
    80000188:	a82d                	j	800001c2 <skip_atoi+0x4a>
/home/whalefall/Projects/WhaleOS/kernel/lib/printf.c:29
        i = i * 10 + *((*s)++) - '0';
    8000018a:	fec42783          	lw	a5,-20(s0)
    8000018e:	873e                	mv	a4,a5
    80000190:	87ba                	mv	a5,a4
    80000192:	0027979b          	slliw	a5,a5,0x2
    80000196:	9fb9                	addw	a5,a5,a4
    80000198:	0017979b          	slliw	a5,a5,0x1
    8000019c:	0007871b          	sext.w	a4,a5
    800001a0:	fd843783          	ld	a5,-40(s0)
    800001a4:	639c                	ld	a5,0(a5)
    800001a6:	00178613          	addi	a2,a5,1
    800001aa:	fd843683          	ld	a3,-40(s0)
    800001ae:	e290                	sd	a2,0(a3)
    800001b0:	0007c783          	lbu	a5,0(a5)
    800001b4:	2781                	sext.w	a5,a5
    800001b6:	9fb9                	addw	a5,a5,a4
    800001b8:	2781                	sext.w	a5,a5
    800001ba:	fd07879b          	addiw	a5,a5,-48
    800001be:	fef42623          	sw	a5,-20(s0)
/home/whalefall/Projects/WhaleOS/kernel/lib/printf.c:28
    while (is_digit(**s))
    800001c2:	fd843783          	ld	a5,-40(s0)
    800001c6:	639c                	ld	a5,0(a5)
    800001c8:	0007c783          	lbu	a5,0(a5)
    800001cc:	873e                	mv	a4,a5
    800001ce:	02f00793          	li	a5,47
    800001d2:	00e7fc63          	bgeu	a5,a4,800001ea <skip_atoi+0x72>
/home/whalefall/Projects/WhaleOS/kernel/lib/printf.c:28 (discriminator 1)
    800001d6:	fd843783          	ld	a5,-40(s0)
    800001da:	639c                	ld	a5,0(a5)
    800001dc:	0007c783          	lbu	a5,0(a5)
    800001e0:	873e                	mv	a4,a5
    800001e2:	03900793          	li	a5,57
    800001e6:	fae7f2e3          	bgeu	a5,a4,8000018a <skip_atoi+0x12>
/home/whalefall/Projects/WhaleOS/kernel/lib/printf.c:30
    return i;
    800001ea:	fec42783          	lw	a5,-20(s0)
/home/whalefall/Projects/WhaleOS/kernel/lib/printf.c:31
}
    800001ee:	853e                	mv	a0,a5
    800001f0:	70a2                	ld	ra,40(sp)
    800001f2:	7402                	ld	s0,32(sp)
    800001f4:	6145                	addi	sp,sp,48
    800001f6:	8082                	ret

00000000800001f8 <write>:
write():
/home/whalefall/Projects/WhaleOS/kernel/lib/printf.c:35

static inline void
write(char *buf, size_t n)
{
    800001f8:	7179                	addi	sp,sp,-48
    800001fa:	f406                	sd	ra,40(sp)
    800001fc:	f022                	sd	s0,32(sp)
    800001fe:	1800                	addi	s0,sp,48
    80000200:	fca43c23          	sd	a0,-40(s0)
    80000204:	fcb43823          	sd	a1,-48(s0)
/home/whalefall/Projects/WhaleOS/kernel/lib/printf.c:36
    for (int i = 0; i < n; i++)
    80000208:	fe042623          	sw	zero,-20(s0)
    8000020c:	a005                	j	8000022c <write+0x34>
/home/whalefall/Projects/WhaleOS/kernel/lib/printf.c:37
        uart_putc(buf[i]);
    8000020e:	fec42783          	lw	a5,-20(s0)
    80000212:	fd843703          	ld	a4,-40(s0)
    80000216:	97ba                	add	a5,a5,a4
    80000218:	0007c783          	lbu	a5,0(a5)
    8000021c:	853e                	mv	a0,a5
    8000021e:	e8fff0ef          	jal	800000ac <uart_putc>
/home/whalefall/Projects/WhaleOS/kernel/lib/printf.c:36 (discriminator 3)
    for (int i = 0; i < n; i++)
    80000222:	fec42783          	lw	a5,-20(s0)
    80000226:	2785                	addiw	a5,a5,1
    80000228:	fef42623          	sw	a5,-20(s0)
/home/whalefall/Projects/WhaleOS/kernel/lib/printf.c:36 (discriminator 1)
    8000022c:	fec42783          	lw	a5,-20(s0)
    80000230:	fd043703          	ld	a4,-48(s0)
    80000234:	fce7ede3          	bltu	a5,a4,8000020e <write+0x16>
/home/whalefall/Projects/WhaleOS/kernel/lib/printf.c:38
}
    80000238:	0001                	nop
    8000023a:	0001                	nop
    8000023c:	70a2                	ld	ra,40(sp)
    8000023e:	7402                	ld	s0,32(sp)
    80000240:	6145                	addi	sp,sp,48
    80000242:	8082                	ret

0000000080000244 <number>:
number():
/home/whalefall/Projects/WhaleOS/kernel/lib/printf.c:44


// number convert to formatted string
static char* 
number(char *str, int num, int size, int precision, int type)
{
    80000244:	7119                	addi	sp,sp,-128
    80000246:	fc86                	sd	ra,120(sp)
    80000248:	f8a2                	sd	s0,112(sp)
    8000024a:	0100                	addi	s0,sp,128
    8000024c:	f8a43c23          	sd	a0,-104(s0)
    80000250:	87ae                	mv	a5,a1
    80000252:	f8f42a23          	sw	a5,-108(s0)
    80000256:	87b2                	mv	a5,a2
    80000258:	f8f42823          	sw	a5,-112(s0)
    8000025c:	87b6                	mv	a5,a3
    8000025e:	f8f42623          	sw	a5,-116(s0)
    80000262:	87ba                	mv	a5,a4
    80000264:	f8f42423          	sw	a5,-120(s0)
/home/whalefall/Projects/WhaleOS/kernel/lib/printf.c:45
    char c = 0, sign = 0, num_str[36];
    80000268:	fe0401a3          	sb	zero,-29(s0)
    8000026c:	fe0407a3          	sb	zero,-17(s0)
/home/whalefall/Projects/WhaleOS/kernel/lib/printf.c:46
    int i = 0;
    80000270:	fe042423          	sw	zero,-24(s0)
/home/whalefall/Projects/WhaleOS/kernel/lib/printf.c:47
    unsigned base = ((type & BIN) ? BIN : ((type & OCT) ? OCT : ((type & HEX) ? HEX : 10)));
    80000274:	f8842783          	lw	a5,-120(s0)
    80000278:	8b89                	andi	a5,a5,2
    8000027a:	2781                	sext.w	a5,a5
    8000027c:	e38d                	bnez	a5,8000029e <number+0x5a>
/home/whalefall/Projects/WhaleOS/kernel/lib/printf.c:47 (discriminator 1)
    8000027e:	f8842783          	lw	a5,-120(s0)
    80000282:	8ba1                	andi	a5,a5,8
    80000284:	2781                	sext.w	a5,a5
    80000286:	eb91                	bnez	a5,8000029a <number+0x56>
/home/whalefall/Projects/WhaleOS/kernel/lib/printf.c:47 (discriminator 3)
    80000288:	f8842783          	lw	a5,-120(s0)
    8000028c:	8bc1                	andi	a5,a5,16
    8000028e:	2781                	sext.w	a5,a5
    80000290:	c399                	beqz	a5,80000296 <number+0x52>
/home/whalefall/Projects/WhaleOS/kernel/lib/printf.c:47 (discriminator 5)
    80000292:	47c1                	li	a5,16
    80000294:	a031                	j	800002a0 <number+0x5c>
/home/whalefall/Projects/WhaleOS/kernel/lib/printf.c:47 (discriminator 6)
    80000296:	47a9                	li	a5,10
    80000298:	a021                	j	800002a0 <number+0x5c>
/home/whalefall/Projects/WhaleOS/kernel/lib/printf.c:47 (discriminator 4)
    8000029a:	47a1                	li	a5,8
    8000029c:	a011                	j	800002a0 <number+0x5c>
/home/whalefall/Projects/WhaleOS/kernel/lib/printf.c:47 (discriminator 2)
    8000029e:	4789                	li	a5,2
/home/whalefall/Projects/WhaleOS/kernel/lib/printf.c:47 (discriminator 12)
    800002a0:	fcf42e23          	sw	a5,-36(s0)
/home/whalefall/Projects/WhaleOS/kernel/lib/printf.c:48
    const char* digits = (type & SMALL) ? digits_low : digits_high;
    800002a4:	f8842783          	lw	a5,-120(s0)
    800002a8:	0407f793          	andi	a5,a5,64
    800002ac:	2781                	sext.w	a5,a5
    800002ae:	c799                	beqz	a5,800002bc <number+0x78>
/home/whalefall/Projects/WhaleOS/kernel/lib/printf.c:48 (discriminator 1)
    800002b0:	00001797          	auipc	a5,0x1
    800002b4:	15878793          	addi	a5,a5,344 # 80001408 <digits_low>
    800002b8:	639c                	ld	a5,0(a5)
    800002ba:	a031                	j	800002c6 <number+0x82>
/home/whalefall/Projects/WhaleOS/kernel/lib/printf.c:48 (discriminator 2)
    800002bc:	00001797          	auipc	a5,0x1
    800002c0:	15478793          	addi	a5,a5,340 # 80001410 <digits_high>
    800002c4:	639c                	ld	a5,0(a5)
/home/whalefall/Projects/WhaleOS/kernel/lib/printf.c:48 (discriminator 4)
    800002c6:	fcf43823          	sd	a5,-48(s0)
/home/whalefall/Projects/WhaleOS/kernel/lib/printf.c:51

    // left align forbid zeropad
    if (type & LEFT) type &= ~ZEROPAD;
    800002ca:	f8842783          	lw	a5,-120(s0)
    800002ce:	0207f793          	andi	a5,a5,32
    800002d2:	2781                	sext.w	a5,a5
    800002d4:	c791                	beqz	a5,800002e0 <number+0x9c>
/home/whalefall/Projects/WhaleOS/kernel/lib/printf.c:51 (discriminator 1)
    800002d6:	f8842783          	lw	a5,-120(s0)
    800002da:	9bf9                	andi	a5,a5,-2
    800002dc:	f8f42423          	sw	a5,-120(s0)
/home/whalefall/Projects/WhaleOS/kernel/lib/printf.c:53
    // set padding character
    c = (type & ZEROPAD) ? '0' : ' ';
    800002e0:	f8842783          	lw	a5,-120(s0)
    800002e4:	8b85                	andi	a5,a5,1
    800002e6:	2781                	sext.w	a5,a5
    800002e8:	c781                	beqz	a5,800002f0 <number+0xac>
/home/whalefall/Projects/WhaleOS/kernel/lib/printf.c:53 (discriminator 1)
    800002ea:	03000793          	li	a5,48
    800002ee:	a019                	j	800002f4 <number+0xb0>
/home/whalefall/Projects/WhaleOS/kernel/lib/printf.c:53 (discriminator 2)
    800002f0:	02000793          	li	a5,32
/home/whalefall/Projects/WhaleOS/kernel/lib/printf.c:53 (discriminator 4)
    800002f4:	fef401a3          	sb	a5,-29(s0)
/home/whalefall/Projects/WhaleOS/kernel/lib/printf.c:55

    if ((type & SIGN) && num < 0)
    800002f8:	f8842783          	lw	a5,-120(s0)
    800002fc:	8b91                	andi	a5,a5,4
    800002fe:	2781                	sext.w	a5,a5
    80000300:	c385                	beqz	a5,80000320 <number+0xdc>
/home/whalefall/Projects/WhaleOS/kernel/lib/printf.c:55 (discriminator 1)
    80000302:	f9442783          	lw	a5,-108(s0)
    80000306:	2781                	sext.w	a5,a5
    80000308:	0007dc63          	bgez	a5,80000320 <number+0xdc>
/home/whalefall/Projects/WhaleOS/kernel/lib/printf.c:56
        sign = '-', num = -num;
    8000030c:	02d00793          	li	a5,45
    80000310:	fef407a3          	sb	a5,-17(s0)
    80000314:	f9442783          	lw	a5,-108(s0)
    80000318:	40f007bb          	negw	a5,a5
    8000031c:	f8f42a23          	sw	a5,-108(s0)
/home/whalefall/Projects/WhaleOS/kernel/lib/printf.c:58

    size -= (sign) ? 1 : 0;
    80000320:	fef44783          	lbu	a5,-17(s0)
    80000324:	2781                	sext.w	a5,a5
    80000326:	00f037b3          	snez	a5,a5
    8000032a:	0ff7f793          	zext.b	a5,a5
    8000032e:	2781                	sext.w	a5,a5
    80000330:	f9042703          	lw	a4,-112(s0)
    80000334:	40f707bb          	subw	a5,a4,a5
    80000338:	f8f42823          	sw	a5,-112(s0)
/home/whalefall/Projects/WhaleOS/kernel/lib/printf.c:60

    if (type & PREFIX) {
    8000033c:	f8842783          	lw	a5,-120(s0)
    80000340:	0807f793          	andi	a5,a5,128
    80000344:	2781                	sext.w	a5,a5
    80000346:	c3a9                	beqz	a5,80000388 <number+0x144>
/home/whalefall/Projects/WhaleOS/kernel/lib/printf.c:61
        size -= (((type & BIN) || (type & HEX)) ? 2 : 0);
    80000348:	f8842783          	lw	a5,-120(s0)
    8000034c:	8b89                	andi	a5,a5,2
    8000034e:	2781                	sext.w	a5,a5
    80000350:	e791                	bnez	a5,8000035c <number+0x118>
/home/whalefall/Projects/WhaleOS/kernel/lib/printf.c:61 (discriminator 2)
    80000352:	f8842783          	lw	a5,-120(s0)
    80000356:	8bc1                	andi	a5,a5,16
    80000358:	2781                	sext.w	a5,a5
    8000035a:	c399                	beqz	a5,80000360 <number+0x11c>
/home/whalefall/Projects/WhaleOS/kernel/lib/printf.c:61 (discriminator 3)
    8000035c:	4789                	li	a5,2
/home/whalefall/Projects/WhaleOS/kernel/lib/printf.c:61
    8000035e:	a011                	j	80000362 <number+0x11e>
/home/whalefall/Projects/WhaleOS/kernel/lib/printf.c:61 (discriminator 4)
    80000360:	4781                	li	a5,0
/home/whalefall/Projects/WhaleOS/kernel/lib/printf.c:61 (discriminator 6)
    80000362:	f9042703          	lw	a4,-112(s0)
    80000366:	40f707bb          	subw	a5,a4,a5
    8000036a:	f8f42823          	sw	a5,-112(s0)
/home/whalefall/Projects/WhaleOS/kernel/lib/printf.c:62
        size -= ((type & OCT) ? 1 : 0);
    8000036e:	f8842783          	lw	a5,-120(s0)
    80000372:	4037d79b          	sraiw	a5,a5,0x3
    80000376:	2781                	sext.w	a5,a5
    80000378:	8b85                	andi	a5,a5,1
    8000037a:	2781                	sext.w	a5,a5
    8000037c:	f9042703          	lw	a4,-112(s0)
    80000380:	40f707bb          	subw	a5,a4,a5
    80000384:	f8f42823          	sw	a5,-112(s0)
/home/whalefall/Projects/WhaleOS/kernel/lib/printf.c:66
    }

    // convert
    if (num == 0)
    80000388:	f9442783          	lw	a5,-108(s0)
    8000038c:	2781                	sext.w	a5,a5
    8000038e:	ef91                	bnez	a5,800003aa <number+0x166>
/home/whalefall/Projects/WhaleOS/kernel/lib/printf.c:67
        num_str[i++] = '0';
    80000390:	fe842783          	lw	a5,-24(s0)
    80000394:	0017871b          	addiw	a4,a5,1
    80000398:	fee42423          	sw	a4,-24(s0)
    8000039c:	17c1                	addi	a5,a5,-16
    8000039e:	97a2                	add	a5,a5,s0
    800003a0:	03000713          	li	a4,48
    800003a4:	fae78c23          	sb	a4,-72(a5)
    800003a8:	a899                	j	800003fe <number+0x1ba>
/home/whalefall/Projects/WhaleOS/kernel/lib/printf.c:69
    else {
        unsigned unum = num;
    800003aa:	f9442783          	lw	a5,-108(s0)
    800003ae:	fef42223          	sw	a5,-28(s0)
/home/whalefall/Projects/WhaleOS/kernel/lib/printf.c:71
        do {
            num_str[i++] = digits[unum % base];
    800003b2:	fe442783          	lw	a5,-28(s0)
    800003b6:	873e                	mv	a4,a5
    800003b8:	fdc42783          	lw	a5,-36(s0)
    800003bc:	02f777bb          	remuw	a5,a4,a5
    800003c0:	2781                	sext.w	a5,a5
    800003c2:	1782                	slli	a5,a5,0x20
    800003c4:	9381                	srli	a5,a5,0x20
    800003c6:	fd043703          	ld	a4,-48(s0)
    800003ca:	973e                	add	a4,a4,a5
    800003cc:	fe842783          	lw	a5,-24(s0)
    800003d0:	0017869b          	addiw	a3,a5,1
    800003d4:	fed42423          	sw	a3,-24(s0)
    800003d8:	00074703          	lbu	a4,0(a4)
    800003dc:	17c1                	addi	a5,a5,-16
    800003de:	97a2                	add	a5,a5,s0
    800003e0:	fae78c23          	sb	a4,-72(a5)
/home/whalefall/Projects/WhaleOS/kernel/lib/printf.c:72
            unum /= base;
    800003e4:	fe442783          	lw	a5,-28(s0)
    800003e8:	873e                	mv	a4,a5
    800003ea:	fdc42783          	lw	a5,-36(s0)
    800003ee:	02f757bb          	divuw	a5,a4,a5
    800003f2:	fef42223          	sw	a5,-28(s0)
/home/whalefall/Projects/WhaleOS/kernel/lib/printf.c:73 (discriminator 1)
        } while (unum != 0);
    800003f6:	fe442783          	lw	a5,-28(s0)
    800003fa:	2781                	sext.w	a5,a5
    800003fc:	fbdd                	bnez	a5,800003b2 <number+0x16e>
/home/whalefall/Projects/WhaleOS/kernel/lib/printf.c:76
    }

    precision = (i > precision ? i : precision);
    800003fe:	fe842783          	lw	a5,-24(s0)
    80000402:	863e                	mv	a2,a5
    80000404:	f8c42783          	lw	a5,-116(s0)
    80000408:	0007869b          	sext.w	a3,a5
    8000040c:	0006071b          	sext.w	a4,a2
    80000410:	00e6d363          	bge	a3,a4,80000416 <number+0x1d2>
    80000414:	87b2                	mv	a5,a2
    80000416:	f8f42623          	sw	a5,-116(s0)
/home/whalefall/Projects/WhaleOS/kernel/lib/printf.c:77
    size -= precision;
    8000041a:	f9042783          	lw	a5,-112(s0)
    8000041e:	873e                	mv	a4,a5
    80000420:	f8c42783          	lw	a5,-116(s0)
    80000424:	40f707bb          	subw	a5,a4,a5
    80000428:	f8f42823          	sw	a5,-112(s0)
/home/whalefall/Projects/WhaleOS/kernel/lib/printf.c:79

    if (!(type & (ZEROPAD | LEFT))) {
    8000042c:	f8842783          	lw	a5,-120(s0)
    80000430:	0217f793          	andi	a5,a5,33
    80000434:	2781                	sext.w	a5,a5
    80000436:	e785                	bnez	a5,8000045e <number+0x21a>
/home/whalefall/Projects/WhaleOS/kernel/lib/printf.c:80
        while (size-- > 0)
    80000438:	a819                	j	8000044e <number+0x20a>
/home/whalefall/Projects/WhaleOS/kernel/lib/printf.c:81
            *str++ = ' ';
    8000043a:	f9843783          	ld	a5,-104(s0)
    8000043e:	00178713          	addi	a4,a5,1
    80000442:	f8e43c23          	sd	a4,-104(s0)
    80000446:	02000713          	li	a4,32
    8000044a:	00e78023          	sb	a4,0(a5)
/home/whalefall/Projects/WhaleOS/kernel/lib/printf.c:80
        while (size-- > 0)
    8000044e:	f9042783          	lw	a5,-112(s0)
    80000452:	fff7871b          	addiw	a4,a5,-1
    80000456:	f8e42823          	sw	a4,-112(s0)
    8000045a:	fef040e3          	bgtz	a5,8000043a <number+0x1f6>
/home/whalefall/Projects/WhaleOS/kernel/lib/printf.c:84
    }

    if (sign)
    8000045e:	fef44783          	lbu	a5,-17(s0)
    80000462:	0ff7f793          	zext.b	a5,a5
    80000466:	cb99                	beqz	a5,8000047c <number+0x238>
/home/whalefall/Projects/WhaleOS/kernel/lib/printf.c:85
        *str++ = sign;
    80000468:	f9843783          	ld	a5,-104(s0)
    8000046c:	00178713          	addi	a4,a5,1
    80000470:	f8e43c23          	sd	a4,-104(s0)
    80000474:	fef44703          	lbu	a4,-17(s0)
    80000478:	00e78023          	sb	a4,0(a5)
/home/whalefall/Projects/WhaleOS/kernel/lib/printf.c:87

    if (type & PREFIX) {
    8000047c:	f8842783          	lw	a5,-120(s0)
    80000480:	0807f793          	andi	a5,a5,128
    80000484:	2781                	sext.w	a5,a5
    80000486:	c3ad                	beqz	a5,800004e8 <number+0x2a4>
/home/whalefall/Projects/WhaleOS/kernel/lib/printf.c:88
        *str++ = '0';
    80000488:	f9843783          	ld	a5,-104(s0)
    8000048c:	00178713          	addi	a4,a5,1
    80000490:	f8e43c23          	sd	a4,-104(s0)
    80000494:	03000713          	li	a4,48
    80000498:	00e78023          	sb	a4,0(a5)
/home/whalefall/Projects/WhaleOS/kernel/lib/printf.c:89
        if (type & BIN)
    8000049c:	f8842783          	lw	a5,-120(s0)
    800004a0:	8b89                	andi	a5,a5,2
    800004a2:	2781                	sext.w	a5,a5
    800004a4:	cf99                	beqz	a5,800004c2 <number+0x27e>
/home/whalefall/Projects/WhaleOS/kernel/lib/printf.c:90
            *str++ = digits[11];
    800004a6:	fd043783          	ld	a5,-48(s0)
    800004aa:	00b78713          	addi	a4,a5,11
    800004ae:	f9843783          	ld	a5,-104(s0)
    800004b2:	00178693          	addi	a3,a5,1
    800004b6:	f8d43c23          	sd	a3,-104(s0)
    800004ba:	00074703          	lbu	a4,0(a4)
    800004be:	00e78023          	sb	a4,0(a5)
/home/whalefall/Projects/WhaleOS/kernel/lib/printf.c:91
        if (type & HEX)
    800004c2:	f8842783          	lw	a5,-120(s0)
    800004c6:	8bc1                	andi	a5,a5,16
    800004c8:	2781                	sext.w	a5,a5
    800004ca:	cf99                	beqz	a5,800004e8 <number+0x2a4>
/home/whalefall/Projects/WhaleOS/kernel/lib/printf.c:92
            *str++ = digits[33];
    800004cc:	fd043783          	ld	a5,-48(s0)
    800004d0:	02178713          	addi	a4,a5,33
    800004d4:	f9843783          	ld	a5,-104(s0)
    800004d8:	00178693          	addi	a3,a5,1
    800004dc:	f8d43c23          	sd	a3,-104(s0)
    800004e0:	00074703          	lbu	a4,0(a4)
    800004e4:	00e78023          	sb	a4,0(a5)
/home/whalefall/Projects/WhaleOS/kernel/lib/printf.c:95
    }

    if (!(type & LEFT)) {
    800004e8:	f8842783          	lw	a5,-120(s0)
    800004ec:	0207f793          	andi	a5,a5,32
    800004f0:	2781                	sext.w	a5,a5
    800004f2:	ef95                	bnez	a5,8000052e <number+0x2ea>
/home/whalefall/Projects/WhaleOS/kernel/lib/printf.c:96
        while (size--)
    800004f4:	a819                	j	8000050a <number+0x2c6>
/home/whalefall/Projects/WhaleOS/kernel/lib/printf.c:97
            *str++ = c;
    800004f6:	f9843783          	ld	a5,-104(s0)
    800004fa:	00178713          	addi	a4,a5,1
    800004fe:	f8e43c23          	sd	a4,-104(s0)
    80000502:	fe344703          	lbu	a4,-29(s0)
    80000506:	00e78023          	sb	a4,0(a5)
/home/whalefall/Projects/WhaleOS/kernel/lib/printf.c:96
        while (size--)
    8000050a:	f9042783          	lw	a5,-112(s0)
    8000050e:	fff7871b          	addiw	a4,a5,-1
    80000512:	f8e42823          	sw	a4,-112(s0)
    80000516:	f3e5                	bnez	a5,800004f6 <number+0x2b2>
/home/whalefall/Projects/WhaleOS/kernel/lib/printf.c:100
    }

    while (i < precision--) *str++ = '0';
    80000518:	a819                	j	8000052e <number+0x2ea>
/home/whalefall/Projects/WhaleOS/kernel/lib/printf.c:100 (discriminator 2)
    8000051a:	f9843783          	ld	a5,-104(s0)
    8000051e:	00178713          	addi	a4,a5,1
    80000522:	f8e43c23          	sd	a4,-104(s0)
    80000526:	03000713          	li	a4,48
    8000052a:	00e78023          	sb	a4,0(a5)
/home/whalefall/Projects/WhaleOS/kernel/lib/printf.c:100 (discriminator 1)
    8000052e:	f8c42783          	lw	a5,-116(s0)
    80000532:	fff7871b          	addiw	a4,a5,-1
    80000536:	f8e42623          	sw	a4,-116(s0)
    8000053a:	fe842703          	lw	a4,-24(s0)
    8000053e:	2701                	sext.w	a4,a4
    80000540:	fcf74de3          	blt	a4,a5,8000051a <number+0x2d6>
/home/whalefall/Projects/WhaleOS/kernel/lib/printf.c:101
    while (i-- > 0) *str++ = num_str[i];
    80000544:	a839                	j	80000562 <number+0x31e>
/home/whalefall/Projects/WhaleOS/kernel/lib/printf.c:101 (discriminator 2)
    80000546:	f9843783          	ld	a5,-104(s0)
    8000054a:	00178713          	addi	a4,a5,1
    8000054e:	f8e43c23          	sd	a4,-104(s0)
    80000552:	fe842703          	lw	a4,-24(s0)
    80000556:	1741                	addi	a4,a4,-16
    80000558:	9722                	add	a4,a4,s0
    8000055a:	fb874703          	lbu	a4,-72(a4)
    8000055e:	00e78023          	sb	a4,0(a5)
/home/whalefall/Projects/WhaleOS/kernel/lib/printf.c:101 (discriminator 1)
    80000562:	fe842783          	lw	a5,-24(s0)
    80000566:	fff7871b          	addiw	a4,a5,-1
    8000056a:	fee42423          	sw	a4,-24(s0)
    8000056e:	fcf04ce3          	bgtz	a5,80000546 <number+0x302>
/home/whalefall/Projects/WhaleOS/kernel/lib/printf.c:102
    while (size-- > 0) *str++ = ' ';
    80000572:	a819                	j	80000588 <number+0x344>
/home/whalefall/Projects/WhaleOS/kernel/lib/printf.c:102 (discriminator 2)
    80000574:	f9843783          	ld	a5,-104(s0)
    80000578:	00178713          	addi	a4,a5,1
    8000057c:	f8e43c23          	sd	a4,-104(s0)
    80000580:	02000713          	li	a4,32
    80000584:	00e78023          	sb	a4,0(a5)
/home/whalefall/Projects/WhaleOS/kernel/lib/printf.c:102 (discriminator 1)
    80000588:	f9042783          	lw	a5,-112(s0)
    8000058c:	fff7871b          	addiw	a4,a5,-1
    80000590:	f8e42823          	sw	a4,-112(s0)
    80000594:	fef040e3          	bgtz	a5,80000574 <number+0x330>
/home/whalefall/Projects/WhaleOS/kernel/lib/printf.c:104

    return str;
    80000598:	f9843783          	ld	a5,-104(s0)
/home/whalefall/Projects/WhaleOS/kernel/lib/printf.c:105
}
    8000059c:	853e                	mv	a0,a5
    8000059e:	70e6                	ld	ra,120(sp)
    800005a0:	7446                	ld	s0,112(sp)
    800005a2:	6109                	addi	sp,sp,128
    800005a4:	8082                	ret

00000000800005a6 <vsnprintf>:
vsnprintf():
/home/whalefall/Projects/WhaleOS/kernel/lib/printf.c:110


int 
vsnprintf(char *out, size_t n, const char* fmt, va_list ap)
{
    800005a6:	7159                	addi	sp,sp,-112
    800005a8:	f486                	sd	ra,104(sp)
    800005aa:	f0a2                	sd	s0,96(sp)
    800005ac:	1880                	addi	s0,sp,112
    800005ae:	faa43423          	sd	a0,-88(s0)
    800005b2:	fab43023          	sd	a1,-96(s0)
    800005b6:	f8c43c23          	sd	a2,-104(s0)
    800005ba:	f8d43823          	sd	a3,-112(s0)
/home/whalefall/Projects/WhaleOS/kernel/lib/printf.c:111
    int cnt = 0;
    800005be:	fe042623          	sw	zero,-20(s0)
/home/whalefall/Projects/WhaleOS/kernel/lib/printf.c:114
    char *str;

    for (str = out; *fmt && cnt < n; cnt++, fmt++) 
    800005c2:	fa843783          	ld	a5,-88(s0)
    800005c6:	fef43023          	sd	a5,-32(s0)
    800005ca:	a365                	j	80000b72 <vsnprintf+0x5cc>
/home/whalefall/Projects/WhaleOS/kernel/lib/printf.c:116
    {
        if (*fmt != '%') {
    800005cc:	f9843783          	ld	a5,-104(s0)
    800005d0:	0007c783          	lbu	a5,0(a5)
    800005d4:	873e                	mv	a4,a5
    800005d6:	02500793          	li	a5,37
    800005da:	00f70f63          	beq	a4,a5,800005f8 <vsnprintf+0x52>
/home/whalefall/Projects/WhaleOS/kernel/lib/printf.c:117
            *str++ = *fmt;
    800005de:	f9843703          	ld	a4,-104(s0)
    800005e2:	fe043783          	ld	a5,-32(s0)
    800005e6:	00178693          	addi	a3,a5,1
    800005ea:	fed43023          	sd	a3,-32(s0)
    800005ee:	00074703          	lbu	a4,0(a4)
    800005f2:	00e78023          	sb	a4,0(a5)
/home/whalefall/Projects/WhaleOS/kernel/lib/printf.c:118
            continue;
    800005f6:	a3a5                	j	80000b5e <vsnprintf+0x5b8>
/home/whalefall/Projects/WhaleOS/kernel/lib/printf.c:121
        }

        int flags = 0;
    800005f8:	fc042e23          	sw	zero,-36(s0)
/home/whalefall/Projects/WhaleOS/kernel/lib/printf.c:123
        loop:
            cnt++, fmt++;
    800005fc:	fec42783          	lw	a5,-20(s0)
    80000600:	2785                	addiw	a5,a5,1
    80000602:	fef42623          	sw	a5,-20(s0)
    80000606:	f9843783          	ld	a5,-104(s0)
    8000060a:	0785                	addi	a5,a5,1
    8000060c:	f8f43c23          	sd	a5,-104(s0)
/home/whalefall/Projects/WhaleOS/kernel/lib/printf.c:124
            switch(*fmt) {
    80000610:	f9843783          	ld	a5,-104(s0)
    80000614:	0007c783          	lbu	a5,0(a5)
    80000618:	2781                	sext.w	a5,a5
    8000061a:	03000713          	li	a4,48
    8000061e:	02e78c63          	beq	a5,a4,80000656 <vsnprintf+0xb0>
    80000622:	03000713          	li	a4,48
    80000626:	02f74f63          	blt	a4,a5,80000664 <vsnprintf+0xbe>
    8000062a:	02300713          	li	a4,35
    8000062e:	00e78d63          	beq	a5,a4,80000648 <vsnprintf+0xa2>
    80000632:	02d00713          	li	a4,45
    80000636:	02e79763          	bne	a5,a4,80000664 <vsnprintf+0xbe>
/home/whalefall/Projects/WhaleOS/kernel/lib/printf.c:125
                case '-': flags |= LEFT; goto loop;
    8000063a:	fdc42783          	lw	a5,-36(s0)
    8000063e:	0207e793          	ori	a5,a5,32
    80000642:	fcf42e23          	sw	a5,-36(s0)
    80000646:	bf5d                	j	800005fc <vsnprintf+0x56>
/home/whalefall/Projects/WhaleOS/kernel/lib/printf.c:126
                case '#': flags |= PREFIX; goto loop;
    80000648:	fdc42783          	lw	a5,-36(s0)
    8000064c:	0807e793          	ori	a5,a5,128
    80000650:	fcf42e23          	sw	a5,-36(s0)
    80000654:	b765                	j	800005fc <vsnprintf+0x56>
/home/whalefall/Projects/WhaleOS/kernel/lib/printf.c:127
                case '0': flags |= ZEROPAD; goto loop;
    80000656:	fdc42783          	lw	a5,-36(s0)
    8000065a:	0017e793          	ori	a5,a5,1
    8000065e:	fcf42e23          	sw	a5,-36(s0)
    80000662:	bf69                	j	800005fc <vsnprintf+0x56>
/home/whalefall/Projects/WhaleOS/kernel/lib/printf.c:130
            }

        int field_width = -1;
    80000664:	57fd                	li	a5,-1
    80000666:	fcf42c23          	sw	a5,-40(s0)
/home/whalefall/Projects/WhaleOS/kernel/lib/printf.c:131
        if (is_digit(*fmt)) {
    8000066a:	f9843783          	ld	a5,-104(s0)
    8000066e:	0007c783          	lbu	a5,0(a5)
    80000672:	873e                	mv	a4,a5
    80000674:	02f00793          	li	a5,47
    80000678:	02e7f463          	bgeu	a5,a4,800006a0 <vsnprintf+0xfa>
/home/whalefall/Projects/WhaleOS/kernel/lib/printf.c:131 (discriminator 1)
    8000067c:	f9843783          	ld	a5,-104(s0)
    80000680:	0007c783          	lbu	a5,0(a5)
    80000684:	873e                	mv	a4,a5
    80000686:	03900793          	li	a5,57
    8000068a:	00e7eb63          	bltu	a5,a4,800006a0 <vsnprintf+0xfa>
/home/whalefall/Projects/WhaleOS/kernel/lib/printf.c:132
            field_width = skip_atoi(&fmt);
    8000068e:	f9840793          	addi	a5,s0,-104
    80000692:	853e                	mv	a0,a5
    80000694:	ae5ff0ef          	jal	80000178 <skip_atoi>
    80000698:	87aa                	mv	a5,a0
    8000069a:	fcf42c23          	sw	a5,-40(s0)
    8000069e:	a8b1                	j	800006fa <vsnprintf+0x154>
/home/whalefall/Projects/WhaleOS/kernel/lib/printf.c:133
        } else if (*fmt == '*') {
    800006a0:	f9843783          	ld	a5,-104(s0)
    800006a4:	0007c783          	lbu	a5,0(a5)
    800006a8:	873e                	mv	a4,a5
    800006aa:	02a00793          	li	a5,42
    800006ae:	04f71663          	bne	a4,a5,800006fa <vsnprintf+0x154>
/home/whalefall/Projects/WhaleOS/kernel/lib/printf.c:134
            cnt++, fmt++;
    800006b2:	fec42783          	lw	a5,-20(s0)
    800006b6:	2785                	addiw	a5,a5,1
    800006b8:	fef42623          	sw	a5,-20(s0)
    800006bc:	f9843783          	ld	a5,-104(s0)
    800006c0:	0785                	addi	a5,a5,1
    800006c2:	f8f43c23          	sd	a5,-104(s0)
/home/whalefall/Projects/WhaleOS/kernel/lib/printf.c:135
            field_width = va_arg(ap, int);
    800006c6:	f9043783          	ld	a5,-112(s0)
    800006ca:	00878713          	addi	a4,a5,8
    800006ce:	f8e43823          	sd	a4,-112(s0)
    800006d2:	439c                	lw	a5,0(a5)
    800006d4:	fcf42c23          	sw	a5,-40(s0)
/home/whalefall/Projects/WhaleOS/kernel/lib/printf.c:136
            if (field_width < 0) {
    800006d8:	fd842783          	lw	a5,-40(s0)
    800006dc:	2781                	sext.w	a5,a5
    800006de:	0007de63          	bgez	a5,800006fa <vsnprintf+0x154>
/home/whalefall/Projects/WhaleOS/kernel/lib/printf.c:137
                field_width = -field_width;
    800006e2:	fd842783          	lw	a5,-40(s0)
    800006e6:	40f007bb          	negw	a5,a5
    800006ea:	fcf42c23          	sw	a5,-40(s0)
/home/whalefall/Projects/WhaleOS/kernel/lib/printf.c:138
                flags |= LEFT;
    800006ee:	fdc42783          	lw	a5,-36(s0)
    800006f2:	0207e793          	ori	a5,a5,32
    800006f6:	fcf42e23          	sw	a5,-36(s0)
/home/whalefall/Projects/WhaleOS/kernel/lib/printf.c:142
            }
        }

        int precision = -1;
    800006fa:	57fd                	li	a5,-1
    800006fc:	fcf42a23          	sw	a5,-44(s0)
/home/whalefall/Projects/WhaleOS/kernel/lib/printf.c:143
        if (*fmt == '.') {
    80000700:	f9843783          	ld	a5,-104(s0)
    80000704:	0007c783          	lbu	a5,0(a5)
    80000708:	873e                	mv	a4,a5
    8000070a:	02e00793          	li	a5,46
    8000070e:	08f71263          	bne	a4,a5,80000792 <vsnprintf+0x1ec>
/home/whalefall/Projects/WhaleOS/kernel/lib/printf.c:144
            cnt++, fmt++;
    80000712:	fec42783          	lw	a5,-20(s0)
    80000716:	2785                	addiw	a5,a5,1
    80000718:	fef42623          	sw	a5,-20(s0)
    8000071c:	f9843783          	ld	a5,-104(s0)
    80000720:	0785                	addi	a5,a5,1
    80000722:	f8f43c23          	sd	a5,-104(s0)
/home/whalefall/Projects/WhaleOS/kernel/lib/printf.c:145
            if (is_digit(*fmt))
    80000726:	f9843783          	ld	a5,-104(s0)
    8000072a:	0007c783          	lbu	a5,0(a5)
    8000072e:	873e                	mv	a4,a5
    80000730:	02f00793          	li	a5,47
    80000734:	02e7f463          	bgeu	a5,a4,8000075c <vsnprintf+0x1b6>
/home/whalefall/Projects/WhaleOS/kernel/lib/printf.c:145 (discriminator 1)
    80000738:	f9843783          	ld	a5,-104(s0)
    8000073c:	0007c783          	lbu	a5,0(a5)
    80000740:	873e                	mv	a4,a5
    80000742:	03900793          	li	a5,57
    80000746:	00e7eb63          	bltu	a5,a4,8000075c <vsnprintf+0x1b6>
/home/whalefall/Projects/WhaleOS/kernel/lib/printf.c:146
                precision = skip_atoi(&fmt);
    8000074a:	f9840793          	addi	a5,s0,-104
    8000074e:	853e                	mv	a0,a5
    80000750:	a29ff0ef          	jal	80000178 <skip_atoi>
    80000754:	87aa                	mv	a5,a0
    80000756:	fcf42a23          	sw	a5,-44(s0)
    8000075a:	a01d                	j	80000780 <vsnprintf+0x1da>
/home/whalefall/Projects/WhaleOS/kernel/lib/printf.c:147
            else if (*fmt == '*')
    8000075c:	f9843783          	ld	a5,-104(s0)
    80000760:	0007c783          	lbu	a5,0(a5)
    80000764:	873e                	mv	a4,a5
    80000766:	02a00793          	li	a5,42
    8000076a:	00f71b63          	bne	a4,a5,80000780 <vsnprintf+0x1da>
/home/whalefall/Projects/WhaleOS/kernel/lib/printf.c:148
                precision = va_arg(ap, int);
    8000076e:	f9043783          	ld	a5,-112(s0)
    80000772:	00878713          	addi	a4,a5,8
    80000776:	f8e43823          	sd	a4,-112(s0)
    8000077a:	439c                	lw	a5,0(a5)
    8000077c:	fcf42a23          	sw	a5,-44(s0)
/home/whalefall/Projects/WhaleOS/kernel/lib/printf.c:149
            precision = (precision < 0) ? 0 : precision;
    80000780:	fd442783          	lw	a5,-44(s0)
    80000784:	0007871b          	sext.w	a4,a5
    80000788:	00075363          	bgez	a4,8000078e <vsnprintf+0x1e8>
    8000078c:	4781                	li	a5,0
    8000078e:	fcf42a23          	sw	a5,-44(s0)
/home/whalefall/Projects/WhaleOS/kernel/lib/printf.c:152
        }

        if (*fmt == 'h' || *fmt == '1' || *fmt == 'L')
    80000792:	f9843783          	ld	a5,-104(s0)
    80000796:	0007c783          	lbu	a5,0(a5)
    8000079a:	873e                	mv	a4,a5
    8000079c:	06800793          	li	a5,104
    800007a0:	02f70463          	beq	a4,a5,800007c8 <vsnprintf+0x222>
/home/whalefall/Projects/WhaleOS/kernel/lib/printf.c:152 (discriminator 1)
    800007a4:	f9843783          	ld	a5,-104(s0)
    800007a8:	0007c783          	lbu	a5,0(a5)
    800007ac:	873e                	mv	a4,a5
    800007ae:	03100793          	li	a5,49
    800007b2:	00f70b63          	beq	a4,a5,800007c8 <vsnprintf+0x222>
/home/whalefall/Projects/WhaleOS/kernel/lib/printf.c:152 (discriminator 2)
    800007b6:	f9843783          	ld	a5,-104(s0)
    800007ba:	0007c783          	lbu	a5,0(a5)
    800007be:	873e                	mv	a4,a5
    800007c0:	04c00793          	li	a5,76
    800007c4:	00f71c63          	bne	a4,a5,800007dc <vsnprintf+0x236>
/home/whalefall/Projects/WhaleOS/kernel/lib/printf.c:153
            cnt++, fmt++;
    800007c8:	fec42783          	lw	a5,-20(s0)
    800007cc:	2785                	addiw	a5,a5,1
    800007ce:	fef42623          	sw	a5,-20(s0)
    800007d2:	f9843783          	ld	a5,-104(s0)
    800007d6:	0785                	addi	a5,a5,1
    800007d8:	f8f43c23          	sd	a5,-104(s0)
/home/whalefall/Projects/WhaleOS/kernel/lib/printf.c:155
        
        switch (*fmt) {
    800007dc:	f9843783          	ld	a5,-104(s0)
    800007e0:	0007c783          	lbu	a5,0(a5)
    800007e4:	2781                	sext.w	a5,a5
    800007e6:	07800713          	li	a4,120
    800007ea:	26e78663          	beq	a5,a4,80000a56 <vsnprintf+0x4b0>
    800007ee:	07800713          	li	a4,120
    800007f2:	30f74663          	blt	a4,a5,80000afe <vsnprintf+0x558>
    800007f6:	07500713          	li	a4,117
    800007fa:	2ae78663          	beq	a5,a4,80000aa6 <vsnprintf+0x500>
    800007fe:	07500713          	li	a4,117
    80000802:	2ef74e63          	blt	a4,a5,80000afe <vsnprintf+0x558>
    80000806:	07300713          	li	a4,115
    8000080a:	0ee78463          	beq	a5,a4,800008f2 <vsnprintf+0x34c>
    8000080e:	07300713          	li	a4,115
    80000812:	2ef74663          	blt	a4,a5,80000afe <vsnprintf+0x558>
    80000816:	07000713          	li	a4,112
    8000081a:	1ee78263          	beq	a5,a4,800009fe <vsnprintf+0x458>
    8000081e:	07000713          	li	a4,112
    80000822:	2cf74e63          	blt	a4,a5,80000afe <vsnprintf+0x558>
    80000826:	06f00713          	li	a4,111
    8000082a:	18e78e63          	beq	a5,a4,800009c6 <vsnprintf+0x420>
    8000082e:	06f00713          	li	a4,111
    80000832:	2cf74663          	blt	a4,a5,80000afe <vsnprintf+0x558>
    80000836:	06e00713          	li	a4,110
    8000083a:	28e78c63          	beq	a5,a4,80000ad2 <vsnprintf+0x52c>
    8000083e:	06e00713          	li	a4,110
    80000842:	2af74e63          	blt	a4,a5,80000afe <vsnprintf+0x558>
    80000846:	06900713          	li	a4,105
    8000084a:	24e78863          	beq	a5,a4,80000a9a <vsnprintf+0x4f4>
    8000084e:	06900713          	li	a4,105
    80000852:	2af74663          	blt	a4,a5,80000afe <vsnprintf+0x558>
    80000856:	06400713          	li	a4,100
    8000085a:	24e78063          	beq	a5,a4,80000a9a <vsnprintf+0x4f4>
    8000085e:	06400713          	li	a4,100
    80000862:	28f74e63          	blt	a4,a5,80000afe <vsnprintf+0x558>
    80000866:	05800713          	li	a4,88
    8000086a:	1ee78c63          	beq	a5,a4,80000a62 <vsnprintf+0x4bc>
    8000086e:	06300713          	li	a4,99
    80000872:	28e79663          	bne	a5,a4,80000afe <vsnprintf+0x558>
/home/whalefall/Projects/WhaleOS/kernel/lib/printf.c:157
            case 'c':
                fill_left();
    80000876:	fdc42783          	lw	a5,-36(s0)
    8000087a:	0207f793          	andi	a5,a5,32
    8000087e:	2781                	sext.w	a5,a5
    80000880:	e785                	bnez	a5,800008a8 <vsnprintf+0x302>
    80000882:	a819                	j	80000898 <vsnprintf+0x2f2>
/home/whalefall/Projects/WhaleOS/kernel/lib/printf.c:157 (discriminator 2)
    80000884:	fe043783          	ld	a5,-32(s0)
    80000888:	00178713          	addi	a4,a5,1
    8000088c:	fee43023          	sd	a4,-32(s0)
    80000890:	02000713          	li	a4,32
    80000894:	00e78023          	sb	a4,0(a5)
/home/whalefall/Projects/WhaleOS/kernel/lib/printf.c:157 (discriminator 1)
    80000898:	fd842783          	lw	a5,-40(s0)
    8000089c:	fff7871b          	addiw	a4,a5,-1
    800008a0:	fce42c23          	sw	a4,-40(s0)
    800008a4:	fef040e3          	bgtz	a5,80000884 <vsnprintf+0x2de>
/home/whalefall/Projects/WhaleOS/kernel/lib/printf.c:158
                *str++ = (unsigned char) va_arg(ap, int);
    800008a8:	f9043783          	ld	a5,-112(s0)
    800008ac:	00878713          	addi	a4,a5,8
    800008b0:	f8e43823          	sd	a4,-112(s0)
    800008b4:	4394                	lw	a3,0(a5)
/home/whalefall/Projects/WhaleOS/kernel/lib/printf.c:158 (discriminator 1)
    800008b6:	fe043783          	ld	a5,-32(s0)
    800008ba:	00178713          	addi	a4,a5,1
    800008be:	fee43023          	sd	a4,-32(s0)
    800008c2:	0ff6f713          	zext.b	a4,a3
    800008c6:	00e78023          	sb	a4,0(a5)
/home/whalefall/Projects/WhaleOS/kernel/lib/printf.c:159
                fill_right();
    800008ca:	a819                	j	800008e0 <vsnprintf+0x33a>
/home/whalefall/Projects/WhaleOS/kernel/lib/printf.c:159 (discriminator 2)
    800008cc:	fe043783          	ld	a5,-32(s0)
    800008d0:	00178713          	addi	a4,a5,1
    800008d4:	fee43023          	sd	a4,-32(s0)
    800008d8:	02000713          	li	a4,32
    800008dc:	00e78023          	sb	a4,0(a5)
/home/whalefall/Projects/WhaleOS/kernel/lib/printf.c:159 (discriminator 1)
    800008e0:	fd842783          	lw	a5,-40(s0)
    800008e4:	fff7871b          	addiw	a4,a5,-1
    800008e8:	fce42c23          	sw	a4,-40(s0)
    800008ec:	fef040e3          	bgtz	a5,800008cc <vsnprintf+0x326>
/home/whalefall/Projects/WhaleOS/kernel/lib/printf.c:160
                break;
    800008f0:	a4bd                	j	80000b5e <vsnprintf+0x5b8>
/home/whalefall/Projects/WhaleOS/kernel/lib/printf.c:163

            case 's':
                char* s = va_arg(ap, char*);
    800008f2:	f9043783          	ld	a5,-112(s0)
    800008f6:	00878713          	addi	a4,a5,8
    800008fa:	f8e43823          	sd	a4,-112(s0)
    800008fe:	639c                	ld	a5,0(a5)
    80000900:	fcf43423          	sd	a5,-56(s0)
/home/whalefall/Projects/WhaleOS/kernel/lib/printf.c:164
                s = (s) ? s : "(null)";
    80000904:	fc843783          	ld	a5,-56(s0)
    80000908:	c781                	beqz	a5,80000910 <vsnprintf+0x36a>
/home/whalefall/Projects/WhaleOS/kernel/lib/printf.c:164 (discriminator 1)
    8000090a:	fc843783          	ld	a5,-56(s0)
    8000090e:	a029                	j	80000918 <vsnprintf+0x372>
/home/whalefall/Projects/WhaleOS/kernel/lib/printf.c:164 (discriminator 2)
    80000910:	00000797          	auipc	a5,0x0
    80000914:	7f078793          	addi	a5,a5,2032 # 80001100 <memcpy+0x142>
/home/whalefall/Projects/WhaleOS/kernel/lib/printf.c:164 (discriminator 4)
    80000918:	fcf43423          	sd	a5,-56(s0)
/home/whalefall/Projects/WhaleOS/kernel/lib/printf.c:165
                int len = strlen(s);
    8000091c:	fc843503          	ld	a0,-56(s0)
    80000920:	352000ef          	jal	80000c72 <strlen>
    80000924:	87aa                	mv	a5,a0
/home/whalefall/Projects/WhaleOS/kernel/lib/printf.c:165 (discriminator 1)
    80000926:	fcf42023          	sw	a5,-64(s0)
/home/whalefall/Projects/WhaleOS/kernel/lib/printf.c:166
                fill_left();
    8000092a:	fdc42783          	lw	a5,-36(s0)
    8000092e:	0207f793          	andi	a5,a5,32
    80000932:	2781                	sext.w	a5,a5
    80000934:	e785                	bnez	a5,8000095c <vsnprintf+0x3b6>
    80000936:	a819                	j	8000094c <vsnprintf+0x3a6>
/home/whalefall/Projects/WhaleOS/kernel/lib/printf.c:166 (discriminator 2)
    80000938:	fe043783          	ld	a5,-32(s0)
    8000093c:	00178713          	addi	a4,a5,1
    80000940:	fee43023          	sd	a4,-32(s0)
    80000944:	02000713          	li	a4,32
    80000948:	00e78023          	sb	a4,0(a5)
/home/whalefall/Projects/WhaleOS/kernel/lib/printf.c:166 (discriminator 1)
    8000094c:	fd842783          	lw	a5,-40(s0)
    80000950:	fff7871b          	addiw	a4,a5,-1
    80000954:	fce42c23          	sw	a4,-40(s0)
    80000958:	fef040e3          	bgtz	a5,80000938 <vsnprintf+0x392>
/home/whalefall/Projects/WhaleOS/kernel/lib/printf.c:167
                for (int i = 0; i < len; i++)
    8000095c:	fc042223          	sw	zero,-60(s0)
    80000960:	a035                	j	8000098c <vsnprintf+0x3e6>
/home/whalefall/Projects/WhaleOS/kernel/lib/printf.c:168
                    *str++ = *s++;
    80000962:	fc843703          	ld	a4,-56(s0)
    80000966:	00170793          	addi	a5,a4,1
    8000096a:	fcf43423          	sd	a5,-56(s0)
    8000096e:	fe043783          	ld	a5,-32(s0)
    80000972:	00178693          	addi	a3,a5,1
    80000976:	fed43023          	sd	a3,-32(s0)
    8000097a:	00074703          	lbu	a4,0(a4)
    8000097e:	00e78023          	sb	a4,0(a5)
/home/whalefall/Projects/WhaleOS/kernel/lib/printf.c:167 (discriminator 3)
                for (int i = 0; i < len; i++)
    80000982:	fc442783          	lw	a5,-60(s0)
    80000986:	2785                	addiw	a5,a5,1
    80000988:	fcf42223          	sw	a5,-60(s0)
/home/whalefall/Projects/WhaleOS/kernel/lib/printf.c:167 (discriminator 1)
    8000098c:	fc442783          	lw	a5,-60(s0)
    80000990:	873e                	mv	a4,a5
    80000992:	fc042783          	lw	a5,-64(s0)
    80000996:	2701                	sext.w	a4,a4
    80000998:	2781                	sext.w	a5,a5
    8000099a:	fcf744e3          	blt	a4,a5,80000962 <vsnprintf+0x3bc>
/home/whalefall/Projects/WhaleOS/kernel/lib/printf.c:169
                fill_right();
    8000099e:	a819                	j	800009b4 <vsnprintf+0x40e>
/home/whalefall/Projects/WhaleOS/kernel/lib/printf.c:169 (discriminator 2)
    800009a0:	fe043783          	ld	a5,-32(s0)
    800009a4:	00178713          	addi	a4,a5,1
    800009a8:	fee43023          	sd	a4,-32(s0)
    800009ac:	02000713          	li	a4,32
    800009b0:	00e78023          	sb	a4,0(a5)
/home/whalefall/Projects/WhaleOS/kernel/lib/printf.c:169 (discriminator 1)
    800009b4:	fd842783          	lw	a5,-40(s0)
    800009b8:	fff7871b          	addiw	a4,a5,-1
    800009bc:	fce42c23          	sw	a4,-40(s0)
    800009c0:	fef040e3          	bgtz	a5,800009a0 <vsnprintf+0x3fa>
/home/whalefall/Projects/WhaleOS/kernel/lib/printf.c:170
                break;
    800009c4:	aa69                	j	80000b5e <vsnprintf+0x5b8>
/home/whalefall/Projects/WhaleOS/kernel/lib/printf.c:173

            case 'o': 
                flags |= OCT;
    800009c6:	fdc42783          	lw	a5,-36(s0)
    800009ca:	0087e793          	ori	a5,a5,8
    800009ce:	fcf42e23          	sw	a5,-36(s0)
/home/whalefall/Projects/WhaleOS/kernel/lib/printf.c:174
                str = number(str, va_arg(ap, unsigned long), field_width, precision, flags);
    800009d2:	f9043783          	ld	a5,-112(s0)
    800009d6:	00878713          	addi	a4,a5,8
    800009da:	f8e43823          	sd	a4,-112(s0)
    800009de:	639c                	ld	a5,0(a5)
/home/whalefall/Projects/WhaleOS/kernel/lib/printf.c:174 (discriminator 1)
    800009e0:	2781                	sext.w	a5,a5
    800009e2:	fdc42703          	lw	a4,-36(s0)
    800009e6:	fd442683          	lw	a3,-44(s0)
    800009ea:	fd842603          	lw	a2,-40(s0)
    800009ee:	85be                	mv	a1,a5
    800009f0:	fe043503          	ld	a0,-32(s0)
    800009f4:	851ff0ef          	jal	80000244 <number>
    800009f8:	fea43023          	sd	a0,-32(s0)
/home/whalefall/Projects/WhaleOS/kernel/lib/printf.c:175
                break;
    800009fc:	a28d                	j	80000b5e <vsnprintf+0x5b8>
/home/whalefall/Projects/WhaleOS/kernel/lib/printf.c:178

            case 'p': 
                if (field_width == -1) {
    800009fe:	fd842783          	lw	a5,-40(s0)
    80000a02:	0007871b          	sext.w	a4,a5
    80000a06:	57fd                	li	a5,-1
    80000a08:	00f71b63          	bne	a4,a5,80000a1e <vsnprintf+0x478>
/home/whalefall/Projects/WhaleOS/kernel/lib/printf.c:179
                    field_width = 8;
    80000a0c:	47a1                	li	a5,8
    80000a0e:	fcf42c23          	sw	a5,-40(s0)
/home/whalefall/Projects/WhaleOS/kernel/lib/printf.c:180
                    flags |= ZEROPAD;
    80000a12:	fdc42783          	lw	a5,-36(s0)
    80000a16:	0017e793          	ori	a5,a5,1
    80000a1a:	fcf42e23          	sw	a5,-36(s0)
/home/whalefall/Projects/WhaleOS/kernel/lib/printf.c:182
                }
                flags |= HEX;
    80000a1e:	fdc42783          	lw	a5,-36(s0)
    80000a22:	0107e793          	ori	a5,a5,16
    80000a26:	fcf42e23          	sw	a5,-36(s0)
/home/whalefall/Projects/WhaleOS/kernel/lib/printf.c:183
                str = number(str, va_arg(ap, unsigned long), field_width, precision, flags);
    80000a2a:	f9043783          	ld	a5,-112(s0)
    80000a2e:	00878713          	addi	a4,a5,8
    80000a32:	f8e43823          	sd	a4,-112(s0)
    80000a36:	639c                	ld	a5,0(a5)
/home/whalefall/Projects/WhaleOS/kernel/lib/printf.c:183 (discriminator 1)
    80000a38:	2781                	sext.w	a5,a5
    80000a3a:	fdc42703          	lw	a4,-36(s0)
    80000a3e:	fd442683          	lw	a3,-44(s0)
    80000a42:	fd842603          	lw	a2,-40(s0)
    80000a46:	85be                	mv	a1,a5
    80000a48:	fe043503          	ld	a0,-32(s0)
    80000a4c:	ff8ff0ef          	jal	80000244 <number>
    80000a50:	fea43023          	sd	a0,-32(s0)
/home/whalefall/Projects/WhaleOS/kernel/lib/printf.c:184
                break;
    80000a54:	a229                	j	80000b5e <vsnprintf+0x5b8>
/home/whalefall/Projects/WhaleOS/kernel/lib/printf.c:187

            case 'x': 
                flags |= SMALL;
    80000a56:	fdc42783          	lw	a5,-36(s0)
    80000a5a:	0407e793          	ori	a5,a5,64
    80000a5e:	fcf42e23          	sw	a5,-36(s0)
/home/whalefall/Projects/WhaleOS/kernel/lib/printf.c:189
            case 'X': 
                flags |= HEX;
    80000a62:	fdc42783          	lw	a5,-36(s0)
    80000a66:	0107e793          	ori	a5,a5,16
    80000a6a:	fcf42e23          	sw	a5,-36(s0)
/home/whalefall/Projects/WhaleOS/kernel/lib/printf.c:190
                str = number(str, va_arg(ap, unsigned long), field_width, precision, flags);
    80000a6e:	f9043783          	ld	a5,-112(s0)
    80000a72:	00878713          	addi	a4,a5,8
    80000a76:	f8e43823          	sd	a4,-112(s0)
    80000a7a:	639c                	ld	a5,0(a5)
/home/whalefall/Projects/WhaleOS/kernel/lib/printf.c:190 (discriminator 1)
    80000a7c:	2781                	sext.w	a5,a5
    80000a7e:	fdc42703          	lw	a4,-36(s0)
    80000a82:	fd442683          	lw	a3,-44(s0)
    80000a86:	fd842603          	lw	a2,-40(s0)
    80000a8a:	85be                	mv	a1,a5
    80000a8c:	fe043503          	ld	a0,-32(s0)
    80000a90:	fb4ff0ef          	jal	80000244 <number>
    80000a94:	fea43023          	sd	a0,-32(s0)
/home/whalefall/Projects/WhaleOS/kernel/lib/printf.c:191
                break;
    80000a98:	a0d9                	j	80000b5e <vsnprintf+0x5b8>
/home/whalefall/Projects/WhaleOS/kernel/lib/printf.c:195

            case 'd':
            case 'i':
                flags |= SIGN;
    80000a9a:	fdc42783          	lw	a5,-36(s0)
    80000a9e:	0047e793          	ori	a5,a5,4
    80000aa2:	fcf42e23          	sw	a5,-36(s0)
/home/whalefall/Projects/WhaleOS/kernel/lib/printf.c:197
            case 'u': 
                str = number(str, va_arg(ap, unsigned long), field_width, precision, flags);
    80000aa6:	f9043783          	ld	a5,-112(s0)
    80000aaa:	00878713          	addi	a4,a5,8
    80000aae:	f8e43823          	sd	a4,-112(s0)
    80000ab2:	639c                	ld	a5,0(a5)
/home/whalefall/Projects/WhaleOS/kernel/lib/printf.c:197 (discriminator 1)
    80000ab4:	2781                	sext.w	a5,a5
    80000ab6:	fdc42703          	lw	a4,-36(s0)
    80000aba:	fd442683          	lw	a3,-44(s0)
    80000abe:	fd842603          	lw	a2,-40(s0)
    80000ac2:	85be                	mv	a1,a5
    80000ac4:	fe043503          	ld	a0,-32(s0)
    80000ac8:	f7cff0ef          	jal	80000244 <number>
    80000acc:	fea43023          	sd	a0,-32(s0)
/home/whalefall/Projects/WhaleOS/kernel/lib/printf.c:198
                break;
    80000ad0:	a079                	j	80000b5e <vsnprintf+0x5b8>
/home/whalefall/Projects/WhaleOS/kernel/lib/printf.c:201

            case 'n': 
                char* ip = (char *) va_arg(ap, int *);
    80000ad2:	f9043783          	ld	a5,-112(s0)
    80000ad6:	00878713          	addi	a4,a5,8
    80000ada:	f8e43823          	sd	a4,-112(s0)
    80000ade:	639c                	ld	a5,0(a5)
    80000ae0:	faf43c23          	sd	a5,-72(s0)
/home/whalefall/Projects/WhaleOS/kernel/lib/printf.c:202
                *ip = (str - out);
    80000ae4:	fe043703          	ld	a4,-32(s0)
    80000ae8:	fa843783          	ld	a5,-88(s0)
    80000aec:	40f707b3          	sub	a5,a4,a5
    80000af0:	0ff7f713          	zext.b	a4,a5
    80000af4:	fb843783          	ld	a5,-72(s0)
    80000af8:	00e78023          	sb	a4,0(a5)
/home/whalefall/Projects/WhaleOS/kernel/lib/printf.c:203
                break;
    80000afc:	a08d                	j	80000b5e <vsnprintf+0x5b8>
/home/whalefall/Projects/WhaleOS/kernel/lib/printf.c:206

            default: 
                if (*fmt != '%')
    80000afe:	f9843783          	ld	a5,-104(s0)
    80000b02:	0007c783          	lbu	a5,0(a5)
    80000b06:	873e                	mv	a4,a5
    80000b08:	02500793          	li	a5,37
    80000b0c:	00f70c63          	beq	a4,a5,80000b24 <vsnprintf+0x57e>
/home/whalefall/Projects/WhaleOS/kernel/lib/printf.c:207
                    *str++ = '%';
    80000b10:	fe043783          	ld	a5,-32(s0)
    80000b14:	00178713          	addi	a4,a5,1
    80000b18:	fee43023          	sd	a4,-32(s0)
    80000b1c:	02500713          	li	a4,37
    80000b20:	00e78023          	sb	a4,0(a5)
/home/whalefall/Projects/WhaleOS/kernel/lib/printf.c:208
                if (*fmt)
    80000b24:	f9843783          	ld	a5,-104(s0)
    80000b28:	0007c783          	lbu	a5,0(a5)
    80000b2c:	cf91                	beqz	a5,80000b48 <vsnprintf+0x5a2>
/home/whalefall/Projects/WhaleOS/kernel/lib/printf.c:209
                    *str++ = *fmt;
    80000b2e:	f9843703          	ld	a4,-104(s0)
    80000b32:	fe043783          	ld	a5,-32(s0)
    80000b36:	00178693          	addi	a3,a5,1
    80000b3a:	fed43023          	sd	a3,-32(s0)
    80000b3e:	00074703          	lbu	a4,0(a4)
    80000b42:	00e78023          	sb	a4,0(a5)
/home/whalefall/Projects/WhaleOS/kernel/lib/printf.c:212
                else 
                    cnt--, fmt--;
                break;
    80000b46:	a819                	j	80000b5c <vsnprintf+0x5b6>
/home/whalefall/Projects/WhaleOS/kernel/lib/printf.c:211
                    cnt--, fmt--;
    80000b48:	fec42783          	lw	a5,-20(s0)
    80000b4c:	37fd                	addiw	a5,a5,-1
    80000b4e:	fef42623          	sw	a5,-20(s0)
    80000b52:	f9843783          	ld	a5,-104(s0)
    80000b56:	17fd                	addi	a5,a5,-1
    80000b58:	f8f43c23          	sd	a5,-104(s0)
/home/whalefall/Projects/WhaleOS/kernel/lib/printf.c:212
                break;
    80000b5c:	0001                	nop
/home/whalefall/Projects/WhaleOS/kernel/lib/printf.c:114 (discriminator 2)
    for (str = out; *fmt && cnt < n; cnt++, fmt++) 
    80000b5e:	fec42783          	lw	a5,-20(s0)
    80000b62:	2785                	addiw	a5,a5,1
    80000b64:	fef42623          	sw	a5,-20(s0)
    80000b68:	f9843783          	ld	a5,-104(s0)
    80000b6c:	0785                	addi	a5,a5,1
    80000b6e:	f8f43c23          	sd	a5,-104(s0)
/home/whalefall/Projects/WhaleOS/kernel/lib/printf.c:114 (discriminator 1)
    80000b72:	f9843783          	ld	a5,-104(s0)
    80000b76:	0007c783          	lbu	a5,0(a5)
    80000b7a:	c799                	beqz	a5,80000b88 <vsnprintf+0x5e2>
/home/whalefall/Projects/WhaleOS/kernel/lib/printf.c:114 (discriminator 3)
    80000b7c:	fec42783          	lw	a5,-20(s0)
    80000b80:	fa043703          	ld	a4,-96(s0)
    80000b84:	a4e7e4e3          	bltu	a5,a4,800005cc <vsnprintf+0x26>
/home/whalefall/Projects/WhaleOS/kernel/lib/printf.c:215
        }
    }
    *str = '\0';
    80000b88:	fe043783          	ld	a5,-32(s0)
    80000b8c:	00078023          	sb	zero,0(a5)
/home/whalefall/Projects/WhaleOS/kernel/lib/printf.c:216
    return str - out;
    80000b90:	fe043703          	ld	a4,-32(s0)
    80000b94:	fa843783          	ld	a5,-88(s0)
    80000b98:	40f707b3          	sub	a5,a4,a5
    80000b9c:	2781                	sext.w	a5,a5
/home/whalefall/Projects/WhaleOS/kernel/lib/printf.c:217
}
    80000b9e:	853e                	mv	a0,a5
    80000ba0:	70a6                	ld	ra,104(sp)
    80000ba2:	7406                	ld	s0,96(sp)
    80000ba4:	6165                	addi	sp,sp,112
    80000ba6:	8082                	ret

0000000080000ba8 <printf>:
printf():
/home/whalefall/Projects/WhaleOS/kernel/lib/printf.c:247
//     return i;
// }

int
printf(const char* fmt, ...)
{
    80000ba8:	b9010113          	addi	sp,sp,-1136
    80000bac:	42113423          	sd	ra,1064(sp)
    80000bb0:	42813023          	sd	s0,1056(sp)
    80000bb4:	43010413          	addi	s0,sp,1072
    80000bb8:	bca43c23          	sd	a0,-1064(s0)
    80000bbc:	e40c                	sd	a1,8(s0)
    80000bbe:	e810                	sd	a2,16(s0)
    80000bc0:	ec14                	sd	a3,24(s0)
    80000bc2:	f018                	sd	a4,32(s0)
    80000bc4:	f41c                	sd	a5,40(s0)
    80000bc6:	03043823          	sd	a6,48(s0)
    80000bca:	03143c23          	sd	a7,56(s0)
/home/whalefall/Projects/WhaleOS/kernel/lib/printf.c:251
    int i;
    char buf[BUFMAX];
    va_list args;
    va_start(args, fmt);
    80000bce:	04040793          	addi	a5,s0,64
    80000bd2:	bcf43823          	sd	a5,-1072(s0)
    80000bd6:	bd043783          	ld	a5,-1072(s0)
    80000bda:	fc878793          	addi	a5,a5,-56
    80000bde:	bef43023          	sd	a5,-1056(s0)
/home/whalefall/Projects/WhaleOS/kernel/lib/printf.c:252
    write(buf, i = vsnprintf(buf, BUFMAX, fmt, args));
    80000be2:	be043703          	ld	a4,-1056(s0)
    80000be6:	be840793          	addi	a5,s0,-1048
    80000bea:	86ba                	mv	a3,a4
    80000bec:	bd843603          	ld	a2,-1064(s0)
    80000bf0:	40000593          	li	a1,1024
    80000bf4:	853e                	mv	a0,a5
    80000bf6:	9b1ff0ef          	jal	800005a6 <vsnprintf>
    80000bfa:	87aa                	mv	a5,a0
    80000bfc:	fef42623          	sw	a5,-20(s0)
/home/whalefall/Projects/WhaleOS/kernel/lib/printf.c:252 (discriminator 1)
    80000c00:	fec42703          	lw	a4,-20(s0)
    80000c04:	be840793          	addi	a5,s0,-1048
    80000c08:	85ba                	mv	a1,a4
    80000c0a:	853e                	mv	a0,a5
    80000c0c:	decff0ef          	jal	800001f8 <write>
/home/whalefall/Projects/WhaleOS/kernel/lib/printf.c:254
    va_end(args);
    return i;
    80000c10:	fec42783          	lw	a5,-20(s0)
/home/whalefall/Projects/WhaleOS/kernel/lib/printf.c:255
}
    80000c14:	853e                	mv	a0,a5
    80000c16:	42813083          	ld	ra,1064(sp)
    80000c1a:	42013403          	ld	s0,1056(sp)
    80000c1e:	47010113          	addi	sp,sp,1136
    80000c22:	8082                	ret

0000000080000c24 <puts>:
puts():
/home/whalefall/Projects/WhaleOS/kernel/lib/printf.c:259

int 
puts(char* buf)
{
    80000c24:	7179                	addi	sp,sp,-48
    80000c26:	f406                	sd	ra,40(sp)
    80000c28:	f022                	sd	s0,32(sp)
    80000c2a:	1800                	addi	s0,sp,48
    80000c2c:	fca43c23          	sd	a0,-40(s0)
/home/whalefall/Projects/WhaleOS/kernel/lib/printf.c:261
    int i;
    for (i = 0; buf[i] != '\0'; i++)
    80000c30:	fe042623          	sw	zero,-20(s0)
    80000c34:	a005                	j	80000c54 <puts+0x30>
/home/whalefall/Projects/WhaleOS/kernel/lib/printf.c:262
        uart_putc(buf[i]);
    80000c36:	fec42783          	lw	a5,-20(s0)
    80000c3a:	fd843703          	ld	a4,-40(s0)
    80000c3e:	97ba                	add	a5,a5,a4
    80000c40:	0007c783          	lbu	a5,0(a5)
    80000c44:	853e                	mv	a0,a5
    80000c46:	c66ff0ef          	jal	800000ac <uart_putc>
/home/whalefall/Projects/WhaleOS/kernel/lib/printf.c:261 (discriminator 3)
    for (i = 0; buf[i] != '\0'; i++)
    80000c4a:	fec42783          	lw	a5,-20(s0)
    80000c4e:	2785                	addiw	a5,a5,1
    80000c50:	fef42623          	sw	a5,-20(s0)
/home/whalefall/Projects/WhaleOS/kernel/lib/printf.c:261 (discriminator 1)
    80000c54:	fec42783          	lw	a5,-20(s0)
    80000c58:	fd843703          	ld	a4,-40(s0)
    80000c5c:	97ba                	add	a5,a5,a4
    80000c5e:	0007c783          	lbu	a5,0(a5)
    80000c62:	fbf1                	bnez	a5,80000c36 <puts+0x12>
/home/whalefall/Projects/WhaleOS/kernel/lib/printf.c:263
    return i;
    80000c64:	fec42783          	lw	a5,-20(s0)
/home/whalefall/Projects/WhaleOS/kernel/lib/printf.c:264
}
    80000c68:	853e                	mv	a0,a5
    80000c6a:	70a2                	ld	ra,40(sp)
    80000c6c:	7402                	ld	s0,32(sp)
    80000c6e:	6145                	addi	sp,sp,48
    80000c70:	8082                	ret

0000000080000c72 <strlen>:
strlen():
/home/whalefall/Projects/WhaleOS/kernel/lib/string.c:5
#include <stddef.h>

size_t 
strlen(const char *s)
{
    80000c72:	7179                	addi	sp,sp,-48
    80000c74:	f406                	sd	ra,40(sp)
    80000c76:	f022                	sd	s0,32(sp)
    80000c78:	1800                	addi	s0,sp,48
    80000c7a:	fca43c23          	sd	a0,-40(s0)
/home/whalefall/Projects/WhaleOS/kernel/lib/string.c:7
    int i;
    for (i = 0; s[i] != '\0'; i++)
    80000c7e:	fe042623          	sw	zero,-20(s0)
    80000c82:	a031                	j	80000c8e <strlen+0x1c>
/home/whalefall/Projects/WhaleOS/kernel/lib/string.c:7 (discriminator 3)
    80000c84:	fec42783          	lw	a5,-20(s0)
    80000c88:	2785                	addiw	a5,a5,1
    80000c8a:	fef42623          	sw	a5,-20(s0)
/home/whalefall/Projects/WhaleOS/kernel/lib/string.c:7 (discriminator 1)
    80000c8e:	fec42783          	lw	a5,-20(s0)
    80000c92:	fd843703          	ld	a4,-40(s0)
    80000c96:	97ba                	add	a5,a5,a4
    80000c98:	0007c783          	lbu	a5,0(a5)
    80000c9c:	f7e5                	bnez	a5,80000c84 <strlen+0x12>
/home/whalefall/Projects/WhaleOS/kernel/lib/string.c:9
        ;
    return i;
    80000c9e:	fec42783          	lw	a5,-20(s0)
/home/whalefall/Projects/WhaleOS/kernel/lib/string.c:10
}
    80000ca2:	853e                	mv	a0,a5
    80000ca4:	70a2                	ld	ra,40(sp)
    80000ca6:	7402                	ld	s0,32(sp)
    80000ca8:	6145                	addi	sp,sp,48
    80000caa:	8082                	ret

0000000080000cac <strncpy>:
strncpy():
/home/whalefall/Projects/WhaleOS/kernel/lib/string.c:15


char* 
strncpy(char* dst, const char* src, size_t n)
{
    80000cac:	7139                	addi	sp,sp,-64
    80000cae:	fc06                	sd	ra,56(sp)
    80000cb0:	f822                	sd	s0,48(sp)
    80000cb2:	0080                	addi	s0,sp,64
    80000cb4:	fca43c23          	sd	a0,-40(s0)
    80000cb8:	fcb43823          	sd	a1,-48(s0)
    80000cbc:	fcc43423          	sd	a2,-56(s0)
/home/whalefall/Projects/WhaleOS/kernel/lib/string.c:16
    char* origin_dst = dst;
    80000cc0:	fd843783          	ld	a5,-40(s0)
    80000cc4:	fef43423          	sd	a5,-24(s0)
/home/whalefall/Projects/WhaleOS/kernel/lib/string.c:17
    while (n-- > 0 && (*dst++ = *src++) != '\0')
    80000cc8:	0001                	nop
/home/whalefall/Projects/WhaleOS/kernel/lib/string.c:17 (discriminator 2)
    80000cca:	fc843783          	ld	a5,-56(s0)
    80000cce:	fff78713          	addi	a4,a5,-1
    80000cd2:	fce43423          	sd	a4,-56(s0)
    80000cd6:	cf8d                	beqz	a5,80000d10 <strncpy+0x64>
/home/whalefall/Projects/WhaleOS/kernel/lib/string.c:17 (discriminator 1)
    80000cd8:	fd043703          	ld	a4,-48(s0)
    80000cdc:	00170793          	addi	a5,a4,1
    80000ce0:	fcf43823          	sd	a5,-48(s0)
    80000ce4:	fd843783          	ld	a5,-40(s0)
    80000ce8:	00178693          	addi	a3,a5,1
    80000cec:	fcd43c23          	sd	a3,-40(s0)
    80000cf0:	00074703          	lbu	a4,0(a4)
    80000cf4:	00e78023          	sb	a4,0(a5)
    80000cf8:	0007c783          	lbu	a5,0(a5)
    80000cfc:	f7f9                	bnez	a5,80000cca <strncpy+0x1e>
/home/whalefall/Projects/WhaleOS/kernel/lib/string.c:19
        ;
    while (n-- > 0)
    80000cfe:	a809                	j	80000d10 <strncpy+0x64>
/home/whalefall/Projects/WhaleOS/kernel/lib/string.c:20
        *dst++ = '\0';
    80000d00:	fd843783          	ld	a5,-40(s0)
    80000d04:	00178713          	addi	a4,a5,1
    80000d08:	fce43c23          	sd	a4,-40(s0)
    80000d0c:	00078023          	sb	zero,0(a5)
/home/whalefall/Projects/WhaleOS/kernel/lib/string.c:19
    while (n-- > 0)
    80000d10:	fc843783          	ld	a5,-56(s0)
    80000d14:	fff78713          	addi	a4,a5,-1
    80000d18:	fce43423          	sd	a4,-56(s0)
    80000d1c:	f3f5                	bnez	a5,80000d00 <strncpy+0x54>
/home/whalefall/Projects/WhaleOS/kernel/lib/string.c:21
    return origin_dst;
    80000d1e:	fe843783          	ld	a5,-24(s0)
/home/whalefall/Projects/WhaleOS/kernel/lib/string.c:22
}
    80000d22:	853e                	mv	a0,a5
    80000d24:	70e2                	ld	ra,56(sp)
    80000d26:	7442                	ld	s0,48(sp)
    80000d28:	6121                	addi	sp,sp,64
    80000d2a:	8082                	ret

0000000080000d2c <strcpy>:
strcpy():
/home/whalefall/Projects/WhaleOS/kernel/lib/string.c:28


// require len(dst) <= len(src)
char*
strcpy(char* dst, const char* src)
{
    80000d2c:	7179                	addi	sp,sp,-48
    80000d2e:	f406                	sd	ra,40(sp)
    80000d30:	f022                	sd	s0,32(sp)
    80000d32:	1800                	addi	s0,sp,48
    80000d34:	fca43c23          	sd	a0,-40(s0)
    80000d38:	fcb43823          	sd	a1,-48(s0)
/home/whalefall/Projects/WhaleOS/kernel/lib/string.c:29
    char* origin_dst = dst;
    80000d3c:	fd843783          	ld	a5,-40(s0)
    80000d40:	fef43423          	sd	a5,-24(s0)
/home/whalefall/Projects/WhaleOS/kernel/lib/string.c:30
    while (*dst)
    80000d44:	a829                	j	80000d5e <strcpy+0x32>
/home/whalefall/Projects/WhaleOS/kernel/lib/string.c:31
        *dst++ = *src;
    80000d46:	fd843783          	ld	a5,-40(s0)
    80000d4a:	00178713          	addi	a4,a5,1
    80000d4e:	fce43c23          	sd	a4,-40(s0)
    80000d52:	fd043703          	ld	a4,-48(s0)
    80000d56:	00074703          	lbu	a4,0(a4)
    80000d5a:	00e78023          	sb	a4,0(a5)
/home/whalefall/Projects/WhaleOS/kernel/lib/string.c:30
    while (*dst)
    80000d5e:	fd843783          	ld	a5,-40(s0)
    80000d62:	0007c783          	lbu	a5,0(a5)
    80000d66:	f3e5                	bnez	a5,80000d46 <strcpy+0x1a>
/home/whalefall/Projects/WhaleOS/kernel/lib/string.c:32
    return origin_dst;
    80000d68:	fe843783          	ld	a5,-24(s0)
/home/whalefall/Projects/WhaleOS/kernel/lib/string.c:33
}
    80000d6c:	853e                	mv	a0,a5
    80000d6e:	70a2                	ld	ra,40(sp)
    80000d70:	7402                	ld	s0,32(sp)
    80000d72:	6145                	addi	sp,sp,48
    80000d74:	8082                	ret

0000000080000d76 <strncmp>:
strncmp():
/home/whalefall/Projects/WhaleOS/kernel/lib/string.c:38


int
strncmp(const char* s1, const char *s2, size_t n)
{
    80000d76:	7179                	addi	sp,sp,-48
    80000d78:	f406                	sd	ra,40(sp)
    80000d7a:	f022                	sd	s0,32(sp)
    80000d7c:	1800                	addi	s0,sp,48
    80000d7e:	fea43423          	sd	a0,-24(s0)
    80000d82:	feb43023          	sd	a1,-32(s0)
    80000d86:	fcc43c23          	sd	a2,-40(s0)
/home/whalefall/Projects/WhaleOS/kernel/lib/string.c:39
    while (n > 0 && *s1 && *s1 == *s2)
    80000d8a:	a005                	j	80000daa <strncmp+0x34>
/home/whalefall/Projects/WhaleOS/kernel/lib/string.c:40
        n--, s1++, s2++;
    80000d8c:	fd843783          	ld	a5,-40(s0)
    80000d90:	17fd                	addi	a5,a5,-1
    80000d92:	fcf43c23          	sd	a5,-40(s0)
    80000d96:	fe843783          	ld	a5,-24(s0)
    80000d9a:	0785                	addi	a5,a5,1
    80000d9c:	fef43423          	sd	a5,-24(s0)
    80000da0:	fe043783          	ld	a5,-32(s0)
    80000da4:	0785                	addi	a5,a5,1
    80000da6:	fef43023          	sd	a5,-32(s0)
/home/whalefall/Projects/WhaleOS/kernel/lib/string.c:39
    while (n > 0 && *s1 && *s1 == *s2)
    80000daa:	fd843783          	ld	a5,-40(s0)
    80000dae:	c385                	beqz	a5,80000dce <strncmp+0x58>
/home/whalefall/Projects/WhaleOS/kernel/lib/string.c:39 (discriminator 1)
    80000db0:	fe843783          	ld	a5,-24(s0)
    80000db4:	0007c783          	lbu	a5,0(a5)
    80000db8:	cb99                	beqz	a5,80000dce <strncmp+0x58>
/home/whalefall/Projects/WhaleOS/kernel/lib/string.c:39 (discriminator 2)
    80000dba:	fe843783          	ld	a5,-24(s0)
    80000dbe:	0007c703          	lbu	a4,0(a5)
    80000dc2:	fe043783          	ld	a5,-32(s0)
    80000dc6:	0007c783          	lbu	a5,0(a5)
    80000dca:	fcf701e3          	beq	a4,a5,80000d8c <strncmp+0x16>
/home/whalefall/Projects/WhaleOS/kernel/lib/string.c:41
    if (n == 0)
    80000dce:	fd843783          	ld	a5,-40(s0)
    80000dd2:	e399                	bnez	a5,80000dd8 <strncmp+0x62>
/home/whalefall/Projects/WhaleOS/kernel/lib/string.c:42
        return 0;
    80000dd4:	4781                	li	a5,0
    80000dd6:	a839                	j	80000df4 <strncmp+0x7e>
/home/whalefall/Projects/WhaleOS/kernel/lib/string.c:43
    return *s1 - *s2;
    80000dd8:	fe843783          	ld	a5,-24(s0)
    80000ddc:	0007c783          	lbu	a5,0(a5)
    80000de0:	0007871b          	sext.w	a4,a5
    80000de4:	fe043783          	ld	a5,-32(s0)
    80000de8:	0007c783          	lbu	a5,0(a5)
    80000dec:	2781                	sext.w	a5,a5
    80000dee:	40f707bb          	subw	a5,a4,a5
    80000df2:	2781                	sext.w	a5,a5
/home/whalefall/Projects/WhaleOS/kernel/lib/string.c:44
}
    80000df4:	853e                	mv	a0,a5
    80000df6:	70a2                	ld	ra,40(sp)
    80000df8:	7402                	ld	s0,32(sp)
    80000dfa:	6145                	addi	sp,sp,48
    80000dfc:	8082                	ret

0000000080000dfe <memset>:
memset():
/home/whalefall/Projects/WhaleOS/kernel/lib/string.c:49


void*
memset(void *dst, int c, size_t n)
{
    80000dfe:	7139                	addi	sp,sp,-64
    80000e00:	fc06                	sd	ra,56(sp)
    80000e02:	f822                	sd	s0,48(sp)
    80000e04:	0080                	addi	s0,sp,64
    80000e06:	fca43c23          	sd	a0,-40(s0)
    80000e0a:	87ae                	mv	a5,a1
    80000e0c:	fcc43423          	sd	a2,-56(s0)
    80000e10:	fcf42a23          	sw	a5,-44(s0)
/home/whalefall/Projects/WhaleOS/kernel/lib/string.c:50
  char *cdst = (char *) dst;
    80000e14:	fd843783          	ld	a5,-40(s0)
    80000e18:	fef43023          	sd	a5,-32(s0)
/home/whalefall/Projects/WhaleOS/kernel/lib/string.c:52
  int i;
  for(i = 0; i < n; i++){
    80000e1c:	fe042623          	sw	zero,-20(s0)
    80000e20:	a00d                	j	80000e42 <memset+0x44>
/home/whalefall/Projects/WhaleOS/kernel/lib/string.c:53
    cdst[i] = c;
    80000e22:	fec42783          	lw	a5,-20(s0)
    80000e26:	fe043703          	ld	a4,-32(s0)
    80000e2a:	97ba                	add	a5,a5,a4
    80000e2c:	fd442703          	lw	a4,-44(s0)
    80000e30:	0ff77713          	zext.b	a4,a4
    80000e34:	00e78023          	sb	a4,0(a5)
/home/whalefall/Projects/WhaleOS/kernel/lib/string.c:52 (discriminator 3)
  for(i = 0; i < n; i++){
    80000e38:	fec42783          	lw	a5,-20(s0)
    80000e3c:	2785                	addiw	a5,a5,1
    80000e3e:	fef42623          	sw	a5,-20(s0)
/home/whalefall/Projects/WhaleOS/kernel/lib/string.c:52 (discriminator 1)
    80000e42:	fec42783          	lw	a5,-20(s0)
    80000e46:	fc843703          	ld	a4,-56(s0)
    80000e4a:	fce7ece3          	bltu	a5,a4,80000e22 <memset+0x24>
/home/whalefall/Projects/WhaleOS/kernel/lib/string.c:55
  }
  return dst;
    80000e4e:	fd843783          	ld	a5,-40(s0)
/home/whalefall/Projects/WhaleOS/kernel/lib/string.c:56
}
    80000e52:	853e                	mv	a0,a5
    80000e54:	70e2                	ld	ra,56(sp)
    80000e56:	7442                	ld	s0,48(sp)
    80000e58:	6121                	addi	sp,sp,64
    80000e5a:	8082                	ret

0000000080000e5c <memcmp>:
memcmp():
/home/whalefall/Projects/WhaleOS/kernel/lib/string.c:61


int
memcmp(const void *v1, const void *v2, size_t n)
{
    80000e5c:	7139                	addi	sp,sp,-64
    80000e5e:	fc06                	sd	ra,56(sp)
    80000e60:	f822                	sd	s0,48(sp)
    80000e62:	0080                	addi	s0,sp,64
    80000e64:	fca43c23          	sd	a0,-40(s0)
    80000e68:	fcb43823          	sd	a1,-48(s0)
    80000e6c:	fcc43423          	sd	a2,-56(s0)
/home/whalefall/Projects/WhaleOS/kernel/lib/string.c:64
  const char *s1, *s2;

  s1 = v1;
    80000e70:	fd843783          	ld	a5,-40(s0)
    80000e74:	fef43423          	sd	a5,-24(s0)
/home/whalefall/Projects/WhaleOS/kernel/lib/string.c:65
  s2 = v2;
    80000e78:	fd043783          	ld	a5,-48(s0)
    80000e7c:	fef43023          	sd	a5,-32(s0)
/home/whalefall/Projects/WhaleOS/kernel/lib/string.c:66
  while(n-- > 0){
    80000e80:	a0a1                	j	80000ec8 <memcmp+0x6c>
/home/whalefall/Projects/WhaleOS/kernel/lib/string.c:67
    if(*s1 != *s2)
    80000e82:	fe843783          	ld	a5,-24(s0)
    80000e86:	0007c703          	lbu	a4,0(a5)
    80000e8a:	fe043783          	ld	a5,-32(s0)
    80000e8e:	0007c783          	lbu	a5,0(a5)
    80000e92:	02f70163          	beq	a4,a5,80000eb4 <memcmp+0x58>
/home/whalefall/Projects/WhaleOS/kernel/lib/string.c:68
      return *s1 - *s2;
    80000e96:	fe843783          	ld	a5,-24(s0)
    80000e9a:	0007c783          	lbu	a5,0(a5)
    80000e9e:	0007871b          	sext.w	a4,a5
    80000ea2:	fe043783          	ld	a5,-32(s0)
    80000ea6:	0007c783          	lbu	a5,0(a5)
    80000eaa:	2781                	sext.w	a5,a5
    80000eac:	40f707bb          	subw	a5,a4,a5
    80000eb0:	2781                	sext.w	a5,a5
    80000eb2:	a01d                	j	80000ed8 <memcmp+0x7c>
/home/whalefall/Projects/WhaleOS/kernel/lib/string.c:69
    s1++, s2++;
    80000eb4:	fe843783          	ld	a5,-24(s0)
    80000eb8:	0785                	addi	a5,a5,1
    80000eba:	fef43423          	sd	a5,-24(s0)
    80000ebe:	fe043783          	ld	a5,-32(s0)
    80000ec2:	0785                	addi	a5,a5,1
    80000ec4:	fef43023          	sd	a5,-32(s0)
/home/whalefall/Projects/WhaleOS/kernel/lib/string.c:66
  while(n-- > 0){
    80000ec8:	fc843783          	ld	a5,-56(s0)
    80000ecc:	fff78713          	addi	a4,a5,-1
    80000ed0:	fce43423          	sd	a4,-56(s0)
    80000ed4:	f7dd                	bnez	a5,80000e82 <memcmp+0x26>
/home/whalefall/Projects/WhaleOS/kernel/lib/string.c:72
  }

  return 0;
    80000ed6:	4781                	li	a5,0
/home/whalefall/Projects/WhaleOS/kernel/lib/string.c:73
}
    80000ed8:	853e                	mv	a0,a5
    80000eda:	70e2                	ld	ra,56(sp)
    80000edc:	7442                	ld	s0,48(sp)
    80000ede:	6121                	addi	sp,sp,64
    80000ee0:	8082                	ret

0000000080000ee2 <memmove>:
memmove():
/home/whalefall/Projects/WhaleOS/kernel/lib/string.c:78


void*
memmove(void *dst, const void *src, size_t n)
{
    80000ee2:	7139                	addi	sp,sp,-64
    80000ee4:	fc06                	sd	ra,56(sp)
    80000ee6:	f822                	sd	s0,48(sp)
    80000ee8:	0080                	addi	s0,sp,64
    80000eea:	fca43c23          	sd	a0,-40(s0)
    80000eee:	fcb43823          	sd	a1,-48(s0)
    80000ef2:	fcc43423          	sd	a2,-56(s0)
/home/whalefall/Projects/WhaleOS/kernel/lib/string.c:82
  const char *s;
  char *d;

  if(n == 0)
    80000ef6:	fc843783          	ld	a5,-56(s0)
    80000efa:	e781                	bnez	a5,80000f02 <memmove+0x20>
/home/whalefall/Projects/WhaleOS/kernel/lib/string.c:83
    return dst;
    80000efc:	fd843783          	ld	a5,-40(s0)
    80000f00:	a855                	j	80000fb4 <memmove+0xd2>
/home/whalefall/Projects/WhaleOS/kernel/lib/string.c:85
  
  s = src;
    80000f02:	fd043783          	ld	a5,-48(s0)
    80000f06:	fef43423          	sd	a5,-24(s0)
/home/whalefall/Projects/WhaleOS/kernel/lib/string.c:86
  d = dst;
    80000f0a:	fd843783          	ld	a5,-40(s0)
    80000f0e:	fef43023          	sd	a5,-32(s0)
/home/whalefall/Projects/WhaleOS/kernel/lib/string.c:87
  if(s < d && s + n > d){
    80000f12:	fe843703          	ld	a4,-24(s0)
    80000f16:	fe043783          	ld	a5,-32(s0)
    80000f1a:	08f77463          	bgeu	a4,a5,80000fa2 <memmove+0xc0>
/home/whalefall/Projects/WhaleOS/kernel/lib/string.c:87 (discriminator 1)
    80000f1e:	fe843703          	ld	a4,-24(s0)
    80000f22:	fc843783          	ld	a5,-56(s0)
    80000f26:	97ba                	add	a5,a5,a4
    80000f28:	fe043703          	ld	a4,-32(s0)
    80000f2c:	06f77b63          	bgeu	a4,a5,80000fa2 <memmove+0xc0>
/home/whalefall/Projects/WhaleOS/kernel/lib/string.c:88
    s += n;
    80000f30:	fe843703          	ld	a4,-24(s0)
    80000f34:	fc843783          	ld	a5,-56(s0)
    80000f38:	97ba                	add	a5,a5,a4
    80000f3a:	fef43423          	sd	a5,-24(s0)
/home/whalefall/Projects/WhaleOS/kernel/lib/string.c:89
    d += n;
    80000f3e:	fe043703          	ld	a4,-32(s0)
    80000f42:	fc843783          	ld	a5,-56(s0)
    80000f46:	97ba                	add	a5,a5,a4
    80000f48:	fef43023          	sd	a5,-32(s0)
/home/whalefall/Projects/WhaleOS/kernel/lib/string.c:90
    while(n-- > 0)
    80000f4c:	a01d                	j	80000f72 <memmove+0x90>
/home/whalefall/Projects/WhaleOS/kernel/lib/string.c:91
      *--d = *--s;
    80000f4e:	fe843783          	ld	a5,-24(s0)
    80000f52:	17fd                	addi	a5,a5,-1
    80000f54:	fef43423          	sd	a5,-24(s0)
    80000f58:	fe043783          	ld	a5,-32(s0)
    80000f5c:	17fd                	addi	a5,a5,-1
    80000f5e:	fef43023          	sd	a5,-32(s0)
    80000f62:	fe843783          	ld	a5,-24(s0)
    80000f66:	0007c703          	lbu	a4,0(a5)
    80000f6a:	fe043783          	ld	a5,-32(s0)
    80000f6e:	00e78023          	sb	a4,0(a5)
/home/whalefall/Projects/WhaleOS/kernel/lib/string.c:90
    while(n-- > 0)
    80000f72:	fc843783          	ld	a5,-56(s0)
    80000f76:	fff78713          	addi	a4,a5,-1
    80000f7a:	fce43423          	sd	a4,-56(s0)
    80000f7e:	fbe1                	bnez	a5,80000f4e <memmove+0x6c>
/home/whalefall/Projects/WhaleOS/kernel/lib/string.c:87
  if(s < d && s + n > d){
    80000f80:	a805                	j	80000fb0 <memmove+0xce>
/home/whalefall/Projects/WhaleOS/kernel/lib/string.c:94
  } else
    while(n-- > 0)
      *d++ = *s++;
    80000f82:	fe843703          	ld	a4,-24(s0)
    80000f86:	00170793          	addi	a5,a4,1
    80000f8a:	fef43423          	sd	a5,-24(s0)
    80000f8e:	fe043783          	ld	a5,-32(s0)
    80000f92:	00178693          	addi	a3,a5,1
    80000f96:	fed43023          	sd	a3,-32(s0)
    80000f9a:	00074703          	lbu	a4,0(a4)
    80000f9e:	00e78023          	sb	a4,0(a5)
/home/whalefall/Projects/WhaleOS/kernel/lib/string.c:93
    while(n-- > 0)
    80000fa2:	fc843783          	ld	a5,-56(s0)
    80000fa6:	fff78713          	addi	a4,a5,-1
    80000faa:	fce43423          	sd	a4,-56(s0)
    80000fae:	fbf1                	bnez	a5,80000f82 <memmove+0xa0>
/home/whalefall/Projects/WhaleOS/kernel/lib/string.c:96

  return dst;
    80000fb0:	fd843783          	ld	a5,-40(s0)
/home/whalefall/Projects/WhaleOS/kernel/lib/string.c:97
}
    80000fb4:	853e                	mv	a0,a5
    80000fb6:	70e2                	ld	ra,56(sp)
    80000fb8:	7442                	ld	s0,48(sp)
    80000fba:	6121                	addi	sp,sp,64
    80000fbc:	8082                	ret

0000000080000fbe <memcpy>:
memcpy():
/home/whalefall/Projects/WhaleOS/kernel/lib/string.c:102


void*
memcpy(void *dst, const void *src, size_t n)
{
    80000fbe:	7179                	addi	sp,sp,-48
    80000fc0:	f406                	sd	ra,40(sp)
    80000fc2:	f022                	sd	s0,32(sp)
    80000fc4:	1800                	addi	s0,sp,48
    80000fc6:	fea43423          	sd	a0,-24(s0)
    80000fca:	feb43023          	sd	a1,-32(s0)
    80000fce:	fcc43c23          	sd	a2,-40(s0)
/home/whalefall/Projects/WhaleOS/kernel/lib/string.c:103
  return memmove(dst, src, n);
    80000fd2:	fd843603          	ld	a2,-40(s0)
    80000fd6:	fe043583          	ld	a1,-32(s0)
    80000fda:	fe843503          	ld	a0,-24(s0)
    80000fde:	f05ff0ef          	jal	80000ee2 <memmove>
    80000fe2:	87aa                	mv	a5,a0
/home/whalefall/Projects/WhaleOS/kernel/lib/string.c:104
}
    80000fe4:	853e                	mv	a0,a5
    80000fe6:	70a2                	ld	ra,40(sp)
    80000fe8:	7402                	ld	s0,32(sp)
    80000fea:	6145                	addi	sp,sp,48
    80000fec:	8082                	ret
	...

Disassembly of section .rodata:

0000000080001000 <.rodata>:
    80001000:	6554                	ld	a3,136(a0)
    80001002:	70207473          	csrrci	s0,0x702,0
    80001006:	6972                	ld	s2,280(sp)
    80001008:	746e                	ld	s0,248(sp)
    8000100a:	6420                	ld	s0,72(s0)
    8000100c:	202c                	fld	fa1,64(s0)
    8000100e:	776f6873          	csrrsi	a6,0x776,30
    80001012:	2d20                	fld	fs0,88(a0)
    80001014:	3131                	addiw	sp,sp,-20
    80001016:	3534                	fld	fa3,104(a0)
    80001018:	3431                	addiw	s0,s0,-20
    8000101a:	093a                	slli	s2,s2,0xe
    8000101c:	6425                	lui	s0,0x9
    8000101e:	000a                	c.slli	zero,0x2
    80001020:	6554                	ld	a3,136(a0)
    80001022:	70207473          	csrrci	s0,0x702,0
    80001026:	6972                	ld	s2,280(sp)
    80001028:	746e                	ld	s0,248(sp)
    8000102a:	7820                	ld	s0,112(s0)
    8000102c:	202c                	fld	fa1,64(s0)
    8000102e:	776f6873          	csrrsi	a6,0x776,30
    80001032:	3020                	fld	fs0,96(s0)
    80001034:	3178                	fld	fa4,224(a0)
    80001036:	3431                	addiw	s0,s0,-20 # 8fec <_start-0x7fff7014>
    80001038:	3135                	addiw	sp,sp,-19
    8000103a:	3a61                	addiw	s4,s4,-8
    8000103c:	2509                	addiw	a0,a0,2
    8000103e:	61207823          	.insn	4, 0x61207823
    80001042:	646e                	ld	s0,216(sp)
    80001044:	7520                	ld	s0,104(a0)
    80001046:	7070                	ld	a2,224(s0)
    80001048:	7265                	lui	tp,0xffff9
    8000104a:	203a                	fld	ft0,392(sp)
    8000104c:	2325                	addiw	t1,t1,9
    8000104e:	0a58                	addi	a4,sp,276
	...
    80001058:	6554                	ld	a3,136(a0)
    8000105a:	70207473          	csrrci	s0,0x702,0
    8000105e:	6972                	ld	s2,280(sp)
    80001060:	746e                	ld	s0,248(sp)
    80001062:	7020                	ld	s0,96(s0)
    80001064:	202c                	fld	fa1,64(s0)
    80001066:	776f6873          	csrrsi	a6,0x776,30
    8000106a:	6d20                	ld	s0,88(a0)
    8000106c:	6961                	lui	s2,0x18
    8000106e:	3a6e                	fld	fs4,248(sp)
    80001070:	2509                	addiw	a0,a0,2
    80001072:	0a70                	addi	a2,sp,284
    80001074:	0000                	unimp
    80001076:	0000                	unimp
    80001078:	6554                	ld	a3,136(a0)
    8000107a:	70207473          	csrrci	s0,0x702,0
    8000107e:	6972                	ld	s2,280(sp)
    80001080:	746e                	ld	s0,248(sp)
    80001082:	7520                	ld	s0,104(a0)
    80001084:	202c                	fld	fa1,64(s0)
    80001086:	776f6873          	csrrsi	a6,0x776,30
    8000108a:	3120                	fld	fs0,96(a0)
    8000108c:	3431                	addiw	s0,s0,-20
    8000108e:	3135                	addiw	sp,sp,-19
    80001090:	3a34                	fld	fa3,112(a2)
    80001092:	2509                	addiw	a0,a0,2
    80001094:	0a75                	addi	s4,s4,29
    80001096:	0000                	unimp
    80001098:	6e49                	lui	t3,0x12
    8000109a:	7469                	lui	s0,0xffffa
    8000109c:	6169                	addi	sp,sp,208
    8000109e:	696c                	ld	a1,208(a0)
    800010a0:	657a                	ld	a0,408(sp)
    800010a2:	7520                	ld	s0,104(a0)
    800010a4:	7261                	lui	tp,0xffff8
    800010a6:	3074                	fld	fa3,224(s0)
    800010a8:	000a                	c.slli	zero,0x2
    800010aa:	0000                	unimp
    800010ac:	0000                	unimp
    800010ae:	0000                	unimp
    800010b0:	3130                	fld	fa2,96(a0)
    800010b2:	3332                	fld	ft6,296(sp)
    800010b4:	3534                	fld	fa3,104(a0)
    800010b6:	3736                	fld	fa4,360(sp)
    800010b8:	3938                	fld	fa4,112(a0)
    800010ba:	6261                	lui	tp,0x18
    800010bc:	66656463          	bltu	a0,t1,80001724 <digits_high+0x314>
    800010c0:	6a696867          	.insn	4, 0x6a696867
    800010c4:	6e6d6c6b          	.insn	4, 0x6e6d6c6b
    800010c8:	7271706f          	j	80018fee <init_stack+0x16fee>
    800010cc:	76757473          	csrrci	s0,0x767,10
    800010d0:	7a797877          	.insn	4, 0x7a797877
    800010d4:	0000                	unimp
    800010d6:	0000                	unimp
    800010d8:	3130                	fld	fa2,96(a0)
    800010da:	3332                	fld	ft6,296(sp)
    800010dc:	3534                	fld	fa3,104(a0)
    800010de:	3736                	fld	fa4,360(sp)
    800010e0:	3938                	fld	fa4,112(a0)
    800010e2:	4241                	li	tp,16
    800010e4:	46454443          	.insn	4, 0x46454443
    800010e8:	4a494847          	fmsub.d	fa6,fs2,ft4,fs1,rmm
    800010ec:	4e4d4c4b          	.insn	4, 0x4e4d4c4b
    800010f0:	5251504f          	fnmadd.d	ft0,ft2,ft5,fa0,unknown
    800010f4:	56555453          	.insn	4, 0x56555453
    800010f8:	5a595857          	.insn	4, 0x5a595857
    800010fc:	0000                	unimp
    800010fe:	0000                	unimp
    80001100:	6e28                	ld	a0,88(a2)
    80001102:	6c75                	lui	s8,0x1d
    80001104:	296c                	fld	fa1,208(a0)
	...

Disassembly of section .eh_frame:

0000000080001108 <.eh_frame>:
    80001108:	0010                	.insn	2, 0x0010
    8000110a:	0000                	unimp
    8000110c:	0000                	unimp
    8000110e:	0000                	unimp
    80001110:	00527a03          	.insn	4, 0x00527a03
    80001114:	7c01                	lui	s8,0xfffe0
    80001116:	0101                	addi	sp,sp,0
    80001118:	00020c1b          	sext.w	s8,tp
    8000111c:	0024                	addi	s1,sp,8
    8000111e:	0000                	unimp
    80001120:	0018                	.insn	2, 0x0018
    80001122:	0000                	unimp
    80001124:	ef2c                	sd	a1,88(a4)
    80001126:	ffff                	.insn	2, 0xffff
    80001128:	005c                	addi	a5,sp,4
    8000112a:	0000                	unimp
    8000112c:	4200                	lw	s0,0(a2)
    8000112e:	100e                	c.slli	zero,0x23
    80001130:	8144                	.insn	2, 0x8144
    80001132:	8802                	jr	a6
    80001134:	4204                	lw	s1,0(a2)
    80001136:	080c                	addi	a1,sp,16
    80001138:	0200                	addi	s0,sp,256
    8000113a:	c14e                	sw	s3,128(sp)
    8000113c:	c842                	sw	a6,16(sp)
    8000113e:	020c                	addi	a1,sp,256
    80001140:	4210                	lw	a2,0(a2)
    80001142:	000e                	c.slli	zero,0x3
    80001144:	0028                	addi	a0,sp,8
    80001146:	0000                	unimp
    80001148:	0040                	addi	s0,sp,4
    8000114a:	0000                	unimp
    8000114c:	ef60                	sd	s0,216(a4)
    8000114e:	ffff                	.insn	2, 0xffff
    80001150:	003e                	c.slli	zero,0xf
    80001152:	0000                	unimp
    80001154:	4200                	lw	s0,0(a2)
    80001156:	200e                	fld	ft0,192(sp)
    80001158:	8144                	.insn	2, 0x8144
    8000115a:	8802                	jr	a6
    8000115c:	4204                	lw	s1,0(a2)
    8000115e:	080c                	addi	a1,sp,16
    80001160:	7000                	ld	s0,32(s0)
    80001162:	42c1                	li	t0,16
    80001164:	0cc8                	addi	a0,sp,596
    80001166:	2002                	fld	ft0,0(sp)
    80001168:	0e42                	slli	t3,t3,0x10
    8000116a:	0000                	unimp
    8000116c:	0000                	unimp
    8000116e:	0000                	unimp
    80001170:	0024                	addi	s1,sp,8
    80001172:	0000                	unimp
    80001174:	006c                	addi	a1,sp,12
    80001176:	0000                	unimp
    80001178:	ef72                	sd	t3,408(sp)
    8000117a:	ffff                	.insn	2, 0xffff
    8000117c:	0066                	c.slli	zero,0x19
    8000117e:	0000                	unimp
    80001180:	4200                	lw	s0,0(a2)
    80001182:	100e                	c.slli	zero,0x23
    80001184:	8144                	.insn	2, 0x8144
    80001186:	8802                	jr	a6
    80001188:	4204                	lw	s1,0(a2)
    8000118a:	080c                	addi	a1,sp,16
    8000118c:	0200                	addi	s0,sp,256
    8000118e:	c158                	sw	a4,4(a0)
    80001190:	c842                	sw	a6,16(sp)
    80001192:	020c                	addi	a1,sp,256
    80001194:	4210                	lw	a2,0(a2)
    80001196:	000e                	c.slli	zero,0x3
    80001198:	0024                	addi	s1,sp,8
    8000119a:	0000                	unimp
    8000119c:	0094                	addi	a3,sp,64
    8000119e:	0000                	unimp
    800011a0:	efb0                	sd	a2,88(a5)
    800011a2:	ffff                	.insn	2, 0xffff
    800011a4:	0028                	addi	a0,sp,8
    800011a6:	0000                	unimp
    800011a8:	4200                	lw	s0,0(a2)
    800011aa:	100e                	c.slli	zero,0x23
    800011ac:	8144                	.insn	2, 0x8144
    800011ae:	8802                	jr	a6
    800011b0:	4204                	lw	s1,0(a2)
    800011b2:	080c                	addi	a1,sp,16
    800011b4:	5a00                	lw	s0,48(a2)
    800011b6:	42c1                	li	t0,16
    800011b8:	0cc8                	addi	a0,sp,596
    800011ba:	1002                	c.slli	zero,0x20
    800011bc:	0e42                	slli	t3,t3,0x10
    800011be:	0000                	unimp
    800011c0:	0024                	addi	s1,sp,8
    800011c2:	0000                	unimp
    800011c4:	00bc                	addi	a5,sp,72
    800011c6:	0000                	unimp
    800011c8:	efb0                	sd	a2,88(a5)
    800011ca:	ffff                	.insn	2, 0xffff
    800011cc:	0080                	addi	s0,sp,64
    800011ce:	0000                	unimp
    800011d0:	4200                	lw	s0,0(a2)
    800011d2:	300e                	fld	ft0,224(sp)
    800011d4:	8144                	.insn	2, 0x8144
    800011d6:	8802                	jr	a6
    800011d8:	4204                	lw	s1,0(a2)
    800011da:	080c                	addi	a1,sp,16
    800011dc:	0200                	addi	s0,sp,256
    800011de:	c172                	sw	t3,128(sp)
    800011e0:	c842                	sw	a6,16(sp)
    800011e2:	020c                	addi	a1,sp,256
    800011e4:	4230                	lw	a2,64(a2)
    800011e6:	000e                	c.slli	zero,0x3
    800011e8:	0024                	addi	s1,sp,8
    800011ea:	0000                	unimp
    800011ec:	00e4                	addi	s1,sp,76
    800011ee:	0000                	unimp
    800011f0:	f008                	sd	a0,32(s0)
    800011f2:	ffff                	.insn	2, 0xffff
    800011f4:	004c                	addi	a1,sp,4
    800011f6:	0000                	unimp
    800011f8:	4200                	lw	s0,0(a2)
    800011fa:	300e                	fld	ft0,224(sp)
    800011fc:	8144                	.insn	2, 0x8144
    800011fe:	8802                	jr	a6
    80001200:	4204                	lw	s1,0(a2)
    80001202:	080c                	addi	a1,sp,16
    80001204:	0200                	addi	s0,sp,256
    80001206:	c13e                	sw	a5,128(sp)
    80001208:	c842                	sw	a6,16(sp)
    8000120a:	020c                	addi	a1,sp,256
    8000120c:	4230                	lw	a2,64(a2)
    8000120e:	000e                	c.slli	zero,0x3
    80001210:	0028                	addi	a0,sp,8
    80001212:	0000                	unimp
    80001214:	010c                	addi	a1,sp,128
    80001216:	0000                	unimp
    80001218:	f02c                	sd	a1,96(s0)
    8000121a:	ffff                	.insn	2, 0xffff
    8000121c:	0362                	slli	t1,t1,0x18
    8000121e:	0000                	unimp
    80001220:	4200                	lw	s0,0(a2)
    80001222:	800e                	c.mv	zero,gp
    80001224:	4401                	li	s0,0
    80001226:	0281                	addi	t0,t0,0
    80001228:	0488                	addi	a0,sp,576
    8000122a:	0c42                	slli	s8,s8,0x10
    8000122c:	0008                	.insn	2, 0x0008
    8000122e:	c1035403          	lhu	s0,-1008(t1)
    80001232:	c842                	sw	a6,16(sp)
    80001234:	020c                	addi	a1,sp,256
    80001236:	0180                	addi	s0,sp,192
    80001238:	0e42                	slli	t3,t3,0x10
    8000123a:	0000                	unimp
    8000123c:	0028                	addi	a0,sp,8
    8000123e:	0000                	unimp
    80001240:	0138                	addi	a4,sp,136
    80001242:	0000                	unimp
    80001244:	f362                	sd	s8,416(sp)
    80001246:	ffff                	.insn	2, 0xffff
    80001248:	0602                	c.slli64	a2
    8000124a:	0000                	unimp
    8000124c:	4200                	lw	s0,0(a2)
    8000124e:	700e                	.insn	2, 0x700e
    80001250:	8144                	.insn	2, 0x8144
    80001252:	8802                	jr	a6
    80001254:	4204                	lw	s1,0(a2)
    80001256:	080c                	addi	a1,sp,16
    80001258:	0300                	addi	s0,sp,384
    8000125a:	05f4                	addi	a3,sp,716
    8000125c:	42c1                	li	t0,16
    8000125e:	0cc8                	addi	a0,sp,596
    80001260:	7002                	.insn	2, 0x7002
    80001262:	0e42                	slli	t3,t3,0x10
    80001264:	0000                	unimp
    80001266:	0000                	unimp
    80001268:	0028                	addi	a0,sp,8
    8000126a:	0000                	unimp
    8000126c:	0164                	addi	s1,sp,140
    8000126e:	0000                	unimp
    80001270:	f938                	sd	a4,112(a0)
    80001272:	ffff                	.insn	2, 0xffff
    80001274:	007c                	addi	a5,sp,12
    80001276:	0000                	unimp
    80001278:	4400                	lw	s0,8(s0)
    8000127a:	f00e                	sd	gp,32(sp)
    8000127c:	4808                	lw	a0,16(s0)
    8000127e:	1281                	addi	t0,t0,-32
    80001280:	1488                	addi	a0,sp,608
    80001282:	0c44                	addi	s1,sp,532
    80001284:	4008                	lw	a0,0(s0)
    80001286:	6202                	ld	tp,0(sp)
    80001288:	44c1                	li	s1,16
    8000128a:	0cc8                	addi	a0,sp,596
    8000128c:	f002                	sd	zero,32(sp)
    8000128e:	4408                	lw	a0,8(s0)
    80001290:	000e                	c.slli	zero,0x3
    80001292:	0000                	unimp
    80001294:	0028                	addi	a0,sp,8
    80001296:	0000                	unimp
    80001298:	0190                	addi	a2,sp,192
    8000129a:	0000                	unimp
    8000129c:	f988                	sd	a0,48(a1)
    8000129e:	ffff                	.insn	2, 0xffff
    800012a0:	004e                	c.slli	zero,0x13
    800012a2:	0000                	unimp
    800012a4:	4200                	lw	s0,0(a2)
    800012a6:	300e                	fld	ft0,224(sp)
    800012a8:	8144                	.insn	2, 0x8144
    800012aa:	8802                	jr	a6
    800012ac:	4204                	lw	s1,0(a2)
    800012ae:	080c                	addi	a1,sp,16
    800012b0:	0200                	addi	s0,sp,256
    800012b2:	c140                	sw	s0,4(a0)
    800012b4:	c842                	sw	a6,16(sp)
    800012b6:	020c                	addi	a1,sp,256
    800012b8:	4230                	lw	a2,64(a2)
    800012ba:	000e                	c.slli	zero,0x3
    800012bc:	0000                	unimp
    800012be:	0000                	unimp
    800012c0:	0024                	addi	s1,sp,8
    800012c2:	0000                	unimp
    800012c4:	01bc                	addi	a5,sp,200
    800012c6:	0000                	unimp
    800012c8:	f9aa                	sd	a0,240(sp)
    800012ca:	ffff                	.insn	2, 0xffff
    800012cc:	003a                	c.slli	zero,0xe
    800012ce:	0000                	unimp
    800012d0:	4200                	lw	s0,0(a2)
    800012d2:	300e                	fld	ft0,224(sp)
    800012d4:	8144                	.insn	2, 0x8144
    800012d6:	8802                	jr	a6
    800012d8:	4204                	lw	s1,0(a2)
    800012da:	080c                	addi	a1,sp,16
    800012dc:	6c00                	ld	s0,24(s0)
    800012de:	42c1                	li	t0,16
    800012e0:	0cc8                	addi	a0,sp,596
    800012e2:	3002                	fld	ft0,32(sp)
    800012e4:	0e42                	slli	t3,t3,0x10
    800012e6:	0000                	unimp
    800012e8:	0024                	addi	s1,sp,8
    800012ea:	0000                	unimp
    800012ec:	01e4                	addi	s1,sp,204
    800012ee:	0000                	unimp
    800012f0:	f9bc                	sd	a5,112(a1)
    800012f2:	ffff                	.insn	2, 0xffff
    800012f4:	0080                	addi	s0,sp,64
    800012f6:	0000                	unimp
    800012f8:	4200                	lw	s0,0(a2)
    800012fa:	400e                	.insn	2, 0x400e
    800012fc:	8144                	.insn	2, 0x8144
    800012fe:	8802                	jr	a6
    80001300:	4204                	lw	s1,0(a2)
    80001302:	080c                	addi	a1,sp,16
    80001304:	0200                	addi	s0,sp,256
    80001306:	c172                	sw	t3,128(sp)
    80001308:	c842                	sw	a6,16(sp)
    8000130a:	020c                	addi	a1,sp,256
    8000130c:	4240                	lw	s0,4(a2)
    8000130e:	000e                	c.slli	zero,0x3
    80001310:	0024                	addi	s1,sp,8
    80001312:	0000                	unimp
    80001314:	020c                	addi	a1,sp,256
    80001316:	0000                	unimp
    80001318:	fa14                	sd	a3,48(a2)
    8000131a:	ffff                	.insn	2, 0xffff
    8000131c:	004a                	c.slli	zero,0x12
    8000131e:	0000                	unimp
    80001320:	4200                	lw	s0,0(a2)
    80001322:	300e                	fld	ft0,224(sp)
    80001324:	8144                	.insn	2, 0x8144
    80001326:	8802                	jr	a6
    80001328:	4204                	lw	s1,0(a2)
    8000132a:	080c                	addi	a1,sp,16
    8000132c:	7c00                	ld	s0,56(s0)
    8000132e:	42c1                	li	t0,16
    80001330:	0cc8                	addi	a0,sp,596
    80001332:	3002                	fld	ft0,32(sp)
    80001334:	0e42                	slli	t3,t3,0x10
    80001336:	0000                	unimp
    80001338:	0024                	addi	s1,sp,8
    8000133a:	0000                	unimp
    8000133c:	0234                	addi	a3,sp,264
    8000133e:	0000                	unimp
    80001340:	fa36                	sd	a3,304(sp)
    80001342:	ffff                	.insn	2, 0xffff
    80001344:	0088                	addi	a0,sp,64
    80001346:	0000                	unimp
    80001348:	4200                	lw	s0,0(a2)
    8000134a:	300e                	fld	ft0,224(sp)
    8000134c:	8144                	.insn	2, 0x8144
    8000134e:	8802                	jr	a6
    80001350:	4204                	lw	s1,0(a2)
    80001352:	080c                	addi	a1,sp,16
    80001354:	0200                	addi	s0,sp,256
    80001356:	c17a                	sw	t5,128(sp)
    80001358:	c842                	sw	a6,16(sp)
    8000135a:	020c                	addi	a1,sp,256
    8000135c:	4230                	lw	a2,64(a2)
    8000135e:	000e                	c.slli	zero,0x3
    80001360:	0024                	addi	s1,sp,8
    80001362:	0000                	unimp
    80001364:	025c                	addi	a5,sp,260
    80001366:	0000                	unimp
    80001368:	fa96                	sd	t0,368(sp)
    8000136a:	ffff                	.insn	2, 0xffff
    8000136c:	005e                	c.slli	zero,0x17
    8000136e:	0000                	unimp
    80001370:	4200                	lw	s0,0(a2)
    80001372:	400e                	.insn	2, 0x400e
    80001374:	8144                	.insn	2, 0x8144
    80001376:	8802                	jr	a6
    80001378:	4204                	lw	s1,0(a2)
    8000137a:	080c                	addi	a1,sp,16
    8000137c:	0200                	addi	s0,sp,256
    8000137e:	c150                	sw	a2,4(a0)
    80001380:	c842                	sw	a6,16(sp)
    80001382:	020c                	addi	a1,sp,256
    80001384:	4240                	lw	s0,4(a2)
    80001386:	000e                	c.slli	zero,0x3
    80001388:	0024                	addi	s1,sp,8
    8000138a:	0000                	unimp
    8000138c:	0284                	addi	s1,sp,320
    8000138e:	0000                	unimp
    80001390:	facc                	sd	a1,176(a3)
    80001392:	ffff                	.insn	2, 0xffff
    80001394:	0086                	slli	ra,ra,0x1
    80001396:	0000                	unimp
    80001398:	4200                	lw	s0,0(a2)
    8000139a:	400e                	.insn	2, 0x400e
    8000139c:	8144                	.insn	2, 0x8144
    8000139e:	8802                	jr	a6
    800013a0:	4204                	lw	s1,0(a2)
    800013a2:	080c                	addi	a1,sp,16
    800013a4:	0200                	addi	s0,sp,256
    800013a6:	c178                	sw	a4,68(a0)
    800013a8:	c842                	sw	a6,16(sp)
    800013aa:	020c                	addi	a1,sp,256
    800013ac:	4240                	lw	s0,4(a2)
    800013ae:	000e                	c.slli	zero,0x3
    800013b0:	0024                	addi	s1,sp,8
    800013b2:	0000                	unimp
    800013b4:	02ac                	addi	a1,sp,328
    800013b6:	0000                	unimp
    800013b8:	fb2a                	sd	a0,432(sp)
    800013ba:	ffff                	.insn	2, 0xffff
    800013bc:	00dc                	addi	a5,sp,68
    800013be:	0000                	unimp
    800013c0:	4200                	lw	s0,0(a2)
    800013c2:	400e                	.insn	2, 0x400e
    800013c4:	8144                	.insn	2, 0x8144
    800013c6:	8802                	jr	a6
    800013c8:	4204                	lw	s1,0(a2)
    800013ca:	080c                	addi	a1,sp,16
    800013cc:	0200                	addi	s0,sp,256
    800013ce:	c1ce                	sw	s3,192(sp)
    800013d0:	c842                	sw	a6,16(sp)
    800013d2:	020c                	addi	a1,sp,256
    800013d4:	4240                	lw	s0,4(a2)
    800013d6:	000e                	c.slli	zero,0x3
    800013d8:	0024                	addi	s1,sp,8
    800013da:	0000                	unimp
    800013dc:	02d4                	addi	a3,sp,324
    800013de:	0000                	unimp
    800013e0:	fbde                	sd	s7,496(sp)
    800013e2:	ffff                	.insn	2, 0xffff
    800013e4:	0030                	addi	a2,sp,8
    800013e6:	0000                	unimp
    800013e8:	4200                	lw	s0,0(a2)
    800013ea:	300e                	fld	ft0,224(sp)
    800013ec:	8144                	.insn	2, 0x8144
    800013ee:	8802                	jr	a6
    800013f0:	4204                	lw	s1,0(a2)
    800013f2:	080c                	addi	a1,sp,16
    800013f4:	6200                	ld	s0,0(a2)
    800013f6:	42c1                	li	t0,16
    800013f8:	0cc8                	addi	a0,sp,596
    800013fa:	3002                	fld	ft0,32(sp)
    800013fc:	0e42                	slli	t3,t3,0x10
	...

Disassembly of section .data:

0000000080001400 <init_stack_top>:
/home/whalefall/Projects/WhaleOS/kernel/main.c:11
char *init_stack_top = &init_stack[PGSIZE];
    80001400:	3000                	fld	fs0,32(s0)
    80001402:	8000                	.insn	2, 0x8000
    80001404:	0000                	unimp
	...

0000000080001408 <digits_low>:
/home/whalefall/Projects/WhaleOS/kernel/lib/printf.c:20
static const char* digits_low = "0123456789abcdefghijklmnopqrstuvwxyz";
    80001408:	10b0                	addi	a2,sp,104
    8000140a:	8000                	.insn	2, 0x8000
    8000140c:	0000                	unimp
	...

0000000080001410 <digits_high>:
/home/whalefall/Projects/WhaleOS/kernel/lib/printf.c:21
static const char* digits_high = "0123456789ABCDEFGHIJKLMNOPQRSTUVWXYZ";
    80001410:	10d8                	addi	a4,sp,100
    80001412:	8000                	.insn	2, 0x8000
	...

Disassembly of section .riscv.attributes:

0000000000000000 <.riscv.attributes>:
   0:	6941                	lui	s2,0x10
   2:	0000                	unimp
   4:	7200                	ld	s0,32(a2)
   6:	7369                	lui	t1,0xffffa
   8:	01007663          	bgeu	zero,a6,14 <_start-0x7fffffec>
   c:	005f 0000 1004      	.insn	6, 0x10040000005f
  12:	7205                	lui	tp,0xfffe1
  14:	3676                	fld	fa2,376(sp)
  16:	6934                	ld	a3,80(a0)
  18:	7032                	.insn	2, 0x7032
  1a:	5f31                	li	t5,-20
  1c:	326d                	addiw	tp,tp,-5 # fffffffffffe0ffb <init_stack+0xffffffff7ffdeffb>
  1e:	3070                	fld	fa2,224(s0)
  20:	615f 7032 5f31      	.insn	6, 0x5f317032615f
  26:	3266                	fld	ft4,120(sp)
  28:	3270                	fld	fa2,224(a2)
  2a:	645f 7032 5f32      	.insn	6, 0x5f327032645f
  30:	30703263          	.insn	4, 0x30703263
  34:	7a5f 6369 7273      	.insn	6, 0x727363697a5f
  3a:	7032                	.insn	2, 0x7032
  3c:	5f30                	lw	a2,120(a4)
  3e:	697a                	ld	s2,408(sp)
  40:	6566                	ld	a0,88(sp)
  42:	636e                	ld	t1,216(sp)
  44:	6965                	lui	s2,0x19
  46:	7032                	.insn	2, 0x7032
  48:	5f30                	lw	a2,120(a4)
  4a:	6d7a                	ld	s10,408(sp)
  4c:	756d                	lui	a0,0xffffb
  4e:	316c                	fld	fa1,224(a0)
  50:	3070                	fld	fa2,224(s0)
  52:	7a5f 6161 6f6d      	.insn	6, 0x6f6d61617a5f
  58:	7031                	c.lui	zero,0xfffec
  5a:	5f30                	lw	a2,120(a4)
  5c:	617a                	ld	sp,408(sp)
  5e:	726c                	ld	a1,224(a2)
  60:	70316373          	csrrsi	t1,0x703,2
  64:	0030                	addi	a2,sp,8
  66:	0108                	addi	a0,sp,128
  68:	0b0a                	slli	s6,s6,0x2

Disassembly of section .comment:

0000000000000000 <.comment>:
   0:	3a434347          	fmsub.d	ft6,ft6,ft4,ft7,rmm
   4:	2820                	fld	fs0,80(s0)
   6:	36343067          	.insn	4, 0x36343067
   a:	3639                	addiw	a2,a2,-18
   c:	6664                	ld	s1,200(a2)
   e:	3930                	fld	fa2,112(a0)
  10:	2936                	fld	fs2,328(sp)
  12:	3120                	fld	fs0,96(a0)
  14:	2e34                	fld	fa3,88(a2)
  16:	2e32                	fld	ft8,264(sp)
  18:	0030                	addi	a2,sp,8

Disassembly of section .debug_line:

0000000000000000 <.debug_line>:
       0:	00ae                	slli	ra,ra,0xb
       2:	0000                	unimp
       4:	0005                	c.nop	1
       6:	0008                	.insn	2, 0x0008
       8:	002e                	c.slli	zero,0xb
       a:	0000                	unimp
       c:	0101                	addi	sp,sp,0
       e:	fb01                	bnez	a4,ffffffffffffff1e <init_stack+0xffffffff7fffdf1e>
      10:	0d0e                	slli	s10,s10,0x3
      12:	0100                	addi	s0,sp,128
      14:	0101                	addi	sp,sp,0
      16:	0001                	nop
      18:	0000                	unimp
      1a:	0001                	nop
      1c:	0100                	addi	s0,sp,128
      1e:	0101                	addi	sp,sp,0
      20:	021f 0000 0000      	.insn	6, 0x021f
      26:	0021                	c.nop	8
      28:	0000                	unimp
      2a:	0102                	c.slli64	sp
      2c:	021f 020f 0028      	.insn	6, 0x0028020f021f
      32:	0000                	unimp
      34:	2801                	sext.w	a6,a6
      36:	0000                	unimp
      38:	0100                	addi	s0,sp,128
      3a:	0900                	addi	s0,sp,144
      3c:	0002                	c.slli64	zero
      3e:	0000                	unimp
      40:	0080                	addi	s0,sp,64
      42:	0000                	unimp
      44:	1800                	addi	s0,sp,48
      46:	08090303          	lb	t1,128(s2) # 19080 <_start-0x7ffe6f80>
      4a:	0100                	addi	s0,sp,128
      4c:	04090403          	lb	s0,64(s2)
      50:	0100                	addi	s0,sp,128
      52:	02090103          	lb	sp,32(s2)
      56:	0100                	addi	s0,sp,128
      58:	04090103          	lb	sp,64(s2)
      5c:	0100                	addi	s0,sp,128
      5e:	02090103          	lb	sp,32(s2)
      62:	0100                	addi	s0,sp,128
      64:	04090303          	lb	t1,64(s2)
      68:	0100                	addi	s0,sp,128
      6a:	08090103          	lb	sp,128(s2)
      6e:	0100                	addi	s0,sp,128
      70:	04090303          	lb	t1,64(s2)
      74:	0100                	addi	s0,sp,128
      76:	04090303          	lb	t1,64(s2)
      7a:	0100                	addi	s0,sp,128
      7c:	04090103          	lb	sp,64(s2)
      80:	0100                	addi	s0,sp,128
      82:	04090103          	lb	sp,64(s2)
      86:	0100                	addi	s0,sp,128
      88:	04090303          	lb	t1,64(s2)
      8c:	0100                	addi	s0,sp,128
      8e:	04090103          	lb	sp,64(s2)
      92:	0100                	addi	s0,sp,128
      94:	04090503          	lb	a0,64(s2)
      98:	0100                	addi	s0,sp,128
      9a:	04090103          	lb	sp,64(s2)
      9e:	0100                	addi	s0,sp,128
      a0:	08090103          	lb	sp,128(s2)
      a4:	0100                	addi	s0,sp,128
      a6:	04090303          	lb	t1,64(s2)
      aa:	0100                	addi	s0,sp,128
      ac:	0409                	addi	s0,s0,2 # ffffffffffffa002 <init_stack+0xffffffff7fff8002>
      ae:	0000                	unimp
      b0:	0101                	addi	sp,sp,0
      b2:	000000bf 00080005 	.insn	8, 0x00080005000000bf
      ba:	00000037          	lui	zero,0x0
      be:	0101                	addi	sp,sp,0
      c0:	fb01                	bnez	a4,ffffffffffffffd0 <init_stack+0xffffffff7fffdfd0>
      c2:	0d0e                	slli	s10,s10,0x3
      c4:	0100                	addi	s0,sp,128
      c6:	0101                	addi	sp,sp,0
      c8:	0001                	nop
      ca:	0000                	unimp
      cc:	0001                	nop
      ce:	0100                	addi	s0,sp,128
      d0:	0101                	addi	sp,sp,0
      d2:	031f 0000 0000      	.insn	6, 0x031f
      d8:	0046                	c.slli	zero,0x11
      da:	0000                	unimp
      dc:	0055                	c.nop	21
      de:	0000                	unimp
      e0:	0102                	c.slli64	sp
      e2:	021f 030f 003f      	.insn	6, 0x003f030f021f
      e8:	0000                	unimp
      ea:	3f01                	addiw	t5,t5,-32
      ec:	0000                	unimp
      ee:	0100                	addi	s0,sp,128
      f0:	0064                	addi	s1,sp,12
      f2:	0000                	unimp
      f4:	0502                	c.slli64	a0
      f6:	0001                	nop
      f8:	0209                	addi	tp,tp,2 # 2 <_start-0x7ffffffe>
      fa:	0050                	addi	a2,sp,4
      fc:	8000                	.insn	2, 0x8000
      fe:	0000                	unimp
     100:	0000                	unimp
     102:	05011803          	lh	a6,80(sp)
     106:	0305                	addi	t1,t1,1 # ffffffffffffa001 <init_stack+0xffffffff7fff8001>
     108:	0902                	c.slli64	s2
     10a:	0008                	.insn	2, 0x0008
     10c:	0301                	addi	t1,t1,0
     10e:	000a0903          	lb	s2,0(s4)
     112:	0301                	addi	t1,t1,0
     114:	0902                	c.slli64	s2
     116:	0020                	addi	s0,sp,8
     118:	0301                	addi	t1,t1,0
     11a:	0901                	addi	s2,s2,0
     11c:	000a                	c.slli	zero,0x2
     11e:	0301                	addi	t1,t1,0
     120:	0904                	addi	s1,sp,144
     122:	000a                	c.slli	zero,0x2
     124:	0501                	addi	a0,a0,0 # ffffffffffffb000 <init_stack+0xffffffff7fff9000>
     126:	0301                	addi	t1,t1,0
     128:	0904                	addi	s1,sp,144
     12a:	000c                	.insn	2, 0x000c
     12c:	0301                	addi	t1,t1,0
     12e:	0905                	addi	s2,s2,1
     130:	000a                	c.slli	zero,0x2
     132:	0501                	addi	a0,a0,0
     134:	0901030b          	.insn	4, 0x0901030b
     138:	000e                	c.slli	zero,0x3
     13a:	0501                	addi	a0,a0,0
     13c:	000d                	c.nop	3
     13e:	0402                	c.slli64	s0
     140:	0301                	addi	t1,t1,0
     142:	0900                	addi	s0,sp,144
     144:	0002                	c.slli64	zero
     146:	0501                	addi	a0,a0,0
     148:	0020                	addi	s0,sp,8
     14a:	0402                	c.slli64	s0
     14c:	0301                	addi	t1,t1,0
     14e:	0900                	addi	s0,sp,144
     150:	000e                	c.slli	zero,0x3
     152:	0501                	addi	a0,a0,0
     154:	0402002f          	.insn	4, 0x0402002f
     158:	0301                	addi	t1,t1,0
     15a:	0900                	addi	s0,sp,144
     15c:	0008                	.insn	2, 0x0008
     15e:	0501                	addi	a0,a0,0
     160:	030c                	addi	a1,sp,384
     162:	0902                	c.slli64	s2
     164:	0002                	c.slli64	zero
     166:	0501                	addi	a0,a0,0
     168:	0301                	addi	t1,t1,0
     16a:	0901                	addi	s2,s2,0
     16c:	000c                	.insn	2, 0x000c
     16e:	0901                	addi	s2,s2,0
     170:	000a                	c.slli	zero,0x2
     172:	0100                	addi	s0,sp,128
     174:	7501                	lui	a0,0xfffe0
     176:	0000                	unimp
     178:	0500                	addi	s0,sp,640
     17a:	0800                	addi	s0,sp,16
     17c:	3700                	fld	fs0,40(a4)
     17e:	0000                	unimp
     180:	0100                	addi	s0,sp,128
     182:	0101                	addi	sp,sp,0
     184:	000d0efb          	.insn	4, 0x000d0efb
     188:	0101                	addi	sp,sp,0
     18a:	0101                	addi	sp,sp,0
     18c:	0000                	unimp
     18e:	0100                	addi	s0,sp,128
     190:	0000                	unimp
     192:	0101                	addi	sp,sp,0
     194:	1f01                	addi	t5,t5,-32
     196:	00000003          	lb	zero,0(zero) # 0 <_start-0x80000000>
     19a:	8300                	.insn	2, 0x8300
     19c:	0000                	unimp
     19e:	5500                	lw	s0,40(a0)
     1a0:	0000                	unimp
     1a2:	0200                	addi	s0,sp,256
     1a4:	1f01                	addi	t5,t5,-32
     1a6:	0f02                	c.slli64	t5
     1a8:	00007903          	.insn	4, 0x7903
     1ac:	0100                	addi	s0,sp,128
     1ae:	0079                	c.nop	30
     1b0:	0000                	unimp
     1b2:	a101                	j	5b2 <_start-0x7ffffa4e>
     1b4:	0000                	unimp
     1b6:	0200                	addi	s0,sp,256
     1b8:	0105                	addi	sp,sp,1
     1ba:	0900                	addi	s0,sp,144
     1bc:	ea02                	sd	zero,272(sp)
     1be:	0000                	unimp
     1c0:	0080                	addi	s0,sp,64
     1c2:	0000                	unimp
     1c4:	1700                	addi	s0,sp,928
     1c6:	0505                	addi	a0,a0,1 # fffffffffffe0001 <init_stack+0xffffffff7ffde001>
     1c8:	08090103          	lb	sp,128(s2)
     1cc:	0100                	addi	s0,sp,128
     1ce:	12090103          	lb	sp,288(s2)
     1d2:	0100                	addi	s0,sp,128
     1d4:	1c090103          	lb	sp,448(s2)
     1d8:	0100                	addi	s0,sp,128
     1da:	14090103          	lb	sp,320(s2)
     1de:	0100                	addi	s0,sp,128
     1e0:	0105                	addi	sp,sp,1
     1e2:	12090103          	lb	sp,288(s2)
     1e6:	0100                	addi	s0,sp,128
     1e8:	0a09                	addi	s4,s4,2
     1ea:	0000                	unimp
     1ec:	0101                	addi	sp,sp,0
     1ee:	007e                	c.slli	zero,0x1f
     1f0:	0000                	unimp
     1f2:	0005                	c.nop	1
     1f4:	0008                	.insn	2, 0x0008
     1f6:	003c                	addi	a5,sp,8
     1f8:	0000                	unimp
     1fa:	0101                	addi	sp,sp,0
     1fc:	fb01                	bnez	a4,10c <_start-0x7ffffef4>
     1fe:	0d0e                	slli	s10,s10,0x3
     200:	0100                	addi	s0,sp,128
     202:	0101                	addi	sp,sp,0
     204:	0001                	nop
     206:	0000                	unimp
     208:	0001                	nop
     20a:	0100                	addi	s0,sp,128
     20c:	0101                	addi	sp,sp,0
     20e:	031f 0000 0000      	.insn	6, 0x031f
     214:	0021                	c.nop	8
     216:	0000                	unimp
     218:	0055                	c.nop	21
     21a:	0000                	unimp
     21c:	0102                	c.slli64	sp
     21e:	021f 040f 0096      	.insn	6, 0x0096040f021f
     224:	0000                	unimp
     226:	9601                	srai	a2,a2,0x20
     228:	0000                	unimp
     22a:	0100                	addi	s0,sp,128
     22c:	009d                	addi	ra,ra,7
     22e:	0000                	unimp
     230:	a102                	fsd	ft0,128(sp)
     232:	0000                	unimp
     234:	0200                	addi	s0,sp,256
     236:	0105                	addi	sp,sp,1
     238:	0900                	addi	s0,sp,144
     23a:	5002                	.insn	2, 0x5002
     23c:	0001                	nop
     23e:	0080                	addi	s0,sp,64
     240:	0000                	unimp
     242:	0300                	addi	s0,sp,384
     244:	010e                	slli	sp,sp,0x3
     246:	0505                	addi	a0,a0,1
     248:	08090103          	lb	sp,128(s2)
     24c:	0100                	addi	s0,sp,128
     24e:	04090103          	lb	sp,64(s2)
     252:	0100                	addi	s0,sp,128
     254:	0c090103          	lb	sp,192(s2)
     258:	0100                	addi	s0,sp,128
     25a:	0c05                	addi	s8,s8,1 # fffffffffffe0001 <init_stack+0xffffffff7ffde001>
     25c:	04090103          	lb	sp,64(s2)
     260:	0100                	addi	s0,sp,128
     262:	0105                	addi	sp,sp,1
     264:	02090103          	lb	sp,32(s2)
     268:	0100                	addi	s0,sp,128
     26a:	0a09                	addi	s4,s4,2
     26c:	0000                	unimp
     26e:	0101                	addi	sp,sp,0
     270:	0a59                	addi	s4,s4,22
     272:	0000                	unimp
     274:	0005                	c.nop	1
     276:	0008                	.insn	2, 0x0008
     278:	0045                	c.nop	17
     27a:	0000                	unimp
     27c:	0101                	addi	sp,sp,0
     27e:	fb01                	bnez	a4,18e <_start-0x7ffffe72>
     280:	0d0e                	slli	s10,s10,0x3
     282:	0100                	addi	s0,sp,128
     284:	0101                	addi	sp,sp,0
     286:	0001                	nop
     288:	0000                	unimp
     28a:	0001                	nop
     28c:	0100                	addi	s0,sp,128
     28e:	0101                	addi	sp,sp,0
     290:	041f 0000 0000      	.insn	6, 0x041f
     296:	00bc                	addi	a5,sp,72
     298:	0000                	unimp
     29a:	000000c7          	fmsub.s	ft1,ft0,ft0,ft0,rne
     29e:	0055                	c.nop	21
     2a0:	0000                	unimp
     2a2:	0102                	c.slli64	sp
     2a4:	021f 050f 00b3      	.insn	6, 0x00b3050f021f
     2aa:	0000                	unimp
     2ac:	b301                	j	ffffffffffffffac <init_stack+0xffffffff7fffdfac>
     2ae:	0000                	unimp
     2b0:	0100                	addi	s0,sp,128
     2b2:	00000103          	lb	sp,0(zero) # 0 <_start-0x80000000>
     2b6:	0c02                	c.slli64	s8
     2b8:	0001                	nop
     2ba:	0200                	addi	s0,sp,256
     2bc:	00a1                	addi	ra,ra,8
     2be:	0000                	unimp
     2c0:	00010503          	lb	a0,0(sp)
     2c4:	0209                	addi	tp,tp,2 # 2 <_start-0x7ffffffe>
     2c6:	0178                	addi	a4,sp,140
     2c8:	8000                	.insn	2, 0x8000
     2ca:	0000                	unimp
     2cc:	0000                	unimp
     2ce:	05011903          	lh	s2,80(sp)
     2d2:	0309                	addi	t1,t1,2
     2d4:	0901                	addi	s2,s2,0
     2d6:	000c                	.insn	2, 0x000c
     2d8:	0501                	addi	a0,a0,0
     2da:	0901030b          	.insn	4, 0x0901030b
     2de:	0004                	.insn	2, 0x0004
     2e0:	0501                	addi	a0,a0,0
     2e2:	0901030f          	.insn	4, 0x0901030f
     2e6:	0002                	c.slli64	zero
     2e8:	0501                	addi	a0,a0,0
     2ea:	0319                	addi	t1,t1,6
     2ec:	0900                	addi	s0,sp,144
     2ee:	0016                	c.slli	zero,0x5
     2f0:	0501                	addi	a0,a0,0
     2f2:	031c                	addi	a5,sp,384
     2f4:	0900                	addi	s0,sp,144
     2f6:	0006                	c.slli	zero,0x1
     2f8:	0501                	addi	a0,a0,0
     2fa:	0316                	slli	t1,t1,0x5
     2fc:	0900                	addi	s0,sp,144
     2fe:	000a                	c.slli	zero,0x2
     300:	0501                	addi	a0,a0,0
     302:	0314                	addi	a3,sp,384
     304:	0900                	addi	s0,sp,144
     306:	0006                	c.slli	zero,0x1
     308:	0501                	addi	a0,a0,0
     30a:	0900030b          	.insn	4, 0x0900030b
     30e:	0004                	.insn	2, 0x0004
     310:	0501                	addi	a0,a0,0
     312:	030c                	addi	a1,sp,384
     314:	097f 0008 0001 0402 	.insn	10, 0x0601040200010008097f
     31c:	0601 
     31e:	14090003          	lb	zero,320(s2)
     322:	0100                	addi	s0,sp,128
     324:	0306                	slli	t1,t1,0x1
     326:	0902                	c.slli64	s2
     328:	0014                	.insn	2, 0x0014
     32a:	0501                	addi	a0,a0,0
     32c:	0301                	addi	t1,t1,0
     32e:	0901                	addi	s2,s2,0
     330:	0004                	.insn	2, 0x0004
     332:	0301                	addi	t1,t1,0
     334:	0904                	addi	s1,sp,144
     336:	000a                	c.slli	zero,0x2
     338:	0501                	addi	a0,a0,0
     33a:	030e                	slli	t1,t1,0x3
     33c:	0901                	addi	s2,s2,0
     33e:	0010                	.insn	2, 0x0010
     340:	0501                	addi	a0,a0,0
     342:	0305                	addi	t1,t1,1
     344:	0900                	addi	s0,sp,144
     346:	0004                	.insn	2, 0x0004
     348:	0501                	addi	a0,a0,0
     34a:	0316                	slli	t1,t1,0x5
     34c:	0901                	addi	s2,s2,0
     34e:	0002                	c.slli64	zero
     350:	0501                	addi	a0,a0,0
     352:	0309                	addi	t1,t1,2
     354:	0900                	addi	s0,sp,144
     356:	000a                	c.slli	zero,0x2
     358:	0501                	addi	a0,a0,0
     35a:	001d                	c.nop	7
     35c:	0402                	c.slli64	s0
     35e:	097f0303          	lb	t1,151(t5)
     362:	000a                	c.slli	zero,0x2
     364:	0501                	addi	a0,a0,0
     366:	04020017          	auipc	zero,0x4020
     36a:	0301                	addi	t1,t1,0
     36c:	0900                	addi	s0,sp,144
     36e:	000a                	c.slli	zero,0x2
     370:	0501                	addi	a0,a0,0
     372:	0301                	addi	t1,t1,0
     374:	0902                	c.slli64	s2
     376:	000c                	.insn	2, 0x000c
     378:	0301                	addi	t1,t1,0
     37a:	0906                	slli	s2,s2,0x1
     37c:	000c                	.insn	2, 0x000c
     37e:	0501                	addi	a0,a0,0
     380:	030a                	slli	t1,t1,0x2
     382:	0901                	addi	s2,s2,0
     384:	0024                	addi	s1,sp,8
     386:	0501                	addi	a0,a0,0
     388:	0311                	addi	t1,t1,4
     38a:	0900                	addi	s0,sp,144
     38c:	0004                	.insn	2, 0x0004
     38e:	0501                	addi	a0,a0,0
     390:	0309                	addi	t1,t1,2
     392:	0901                	addi	s2,s2,0
     394:	0004                	.insn	2, 0x0004
     396:	0501                	addi	a0,a0,0
     398:	031c                	addi	a5,sp,384
     39a:	0901                	addi	s2,s2,0
     39c:	0004                	.insn	2, 0x0004
     39e:	0501                	addi	a0,a0,0
     3a0:	0329                	addi	t1,t1,10
     3a2:	0900                	addi	s0,sp,144
     3a4:	0008                	.insn	2, 0x0008
     3a6:	0501                	addi	a0,a0,0
     3a8:	0032                	c.slli	zero,0xc
     3aa:	0402                	c.slli64	s0
     3ac:	0301                	addi	t1,t1,0
     3ae:	0900                	addi	s0,sp,144
     3b0:	0002                	c.slli64	zero
     3b2:	0501                	addi	a0,a0,0
     3b4:	0029                	c.nop	10
     3b6:	0402                	c.slli64	s0
     3b8:	0301                	addi	t1,t1,0
     3ba:	0900                	addi	s0,sp,144
     3bc:	0008                	.insn	2, 0x0008
     3be:	0501                	addi	a0,a0,0
     3c0:	0048                	addi	a0,sp,4
     3c2:	0402                	c.slli64	s0
     3c4:	09000303          	lb	t1,144(zero) # 90 <_start-0x7fffff70>
     3c8:	0002                	c.slli64	zero
     3ca:	0501                	addi	a0,a0,0
     3cc:	0029                	c.nop	10
     3ce:	0402                	c.slli64	s0
     3d0:	09000303          	lb	t1,144(zero) # 90 <_start-0x7fffff70>
     3d4:	0008                	.insn	2, 0x0008
     3d6:	0001                	nop
     3d8:	0402                	c.slli64	s0
     3da:	0605                	addi	a2,a2,1
     3dc:	02090003          	lb	zero,32(s2)
     3e0:	0100                	addi	s0,sp,128
     3e2:	0200                	addi	s0,sp,256
     3e4:	0604                	addi	s1,sp,768
     3e6:	04090003          	lb	zero,64(s2)
     3ea:	0100                	addi	s0,sp,128
     3ec:	0200                	addi	s0,sp,256
     3ee:	0404                	addi	s1,sp,512
     3f0:	04090003          	lb	zero,64(s2)
     3f4:	0100                	addi	s0,sp,128
     3f6:	0200                	addi	s0,sp,256
     3f8:	0204                	addi	s1,sp,256
     3fa:	04090003          	lb	zero,64(s2)
     3fe:	0100                	addi	s0,sp,128
     400:	0e05                	addi	t3,t3,1 # 12001 <_start-0x7ffedfff>
     402:	0200                	addi	s0,sp,256
     404:	0c04                	addi	s1,sp,528
     406:	0306                	slli	t1,t1,0x1
     408:	0900                	addi	s0,sp,144
     40a:	0002                	c.slli64	zero
     40c:	0501                	addi	a0,a0,0
     40e:	0320                	addi	s0,sp,392
     410:	0901                	addi	s2,s2,0
     412:	0004                	.insn	2, 0x0004
     414:	0501                	addi	a0,a0,0
     416:	0336                	slli	t1,t1,0xd
     418:	0900                	addi	s0,sp,144
     41a:	000a                	c.slli	zero,0x2
     41c:	0001                	nop
     41e:	0402                	c.slli64	s0
     420:	0601                	addi	a2,a2,0
     422:	02090003          	lb	zero,32(s2)
     426:	0100                	addi	s0,sp,128
     428:	0200                	addi	s0,sp,256
     42a:	0204                	addi	s1,sp,256
     42c:	0c090003          	lb	zero,192(s2)
     430:	0100                	addi	s0,sp,128
     432:	1105                	addi	sp,sp,-31
     434:	0200                	addi	s0,sp,256
     436:	0404                	addi	s1,sp,512
     438:	0306                	slli	t1,t1,0x1
     43a:	0900                	addi	s0,sp,144
     43c:	000a                	c.slli	zero,0x2
     43e:	0501                	addi	a0,a0,0
     440:	030e                	slli	t1,t1,0x3
     442:	00040903          	lb	s2,0(s0)
     446:	0501                	addi	a0,a0,0
     448:	0308                	addi	a0,sp,384
     44a:	0900                	addi	s0,sp,144
     44c:	000a                	c.slli	zero,0x2
     44e:	0501                	addi	a0,a0,0
     450:	0402001b          	addiw	zero,tp,64 # 40 <_start-0x7fffffc0>
     454:	0301                	addi	t1,t1,0
     456:	0900                	addi	s0,sp,144
     458:	0002                	c.slli64	zero
     45a:	0501                	addi	a0,a0,0
     45c:	0902030f          	.insn	4, 0x0902030f
     460:	000a                	c.slli	zero,0x2
     462:	0501                	addi	a0,a0,0
     464:	09000307          	.insn	4, 0x09000307
     468:	0008                	.insn	2, 0x0008
     46a:	0001                	nop
     46c:	0402                	c.slli64	s0
     46e:	0601                	addi	a2,a2,0
     470:	02090003          	lb	zero,32(s2)
     474:	0100                	addi	s0,sp,128
     476:	0200                	addi	s0,sp,256
     478:	0204                	addi	s1,sp,256
     47a:	06090003          	lb	zero,96(s2)
     47e:	0100                	addi	s0,sp,128
     480:	0200                	addi	s0,sp,256
     482:	0404                	addi	s1,sp,512
     484:	04090003          	lb	zero,64(s2)
     488:	0100                	addi	s0,sp,128
     48a:	0f05                	addi	t5,t5,1
     48c:	0306                	slli	t1,t1,0x1
     48e:	0902                	c.slli64	s2
     490:	0004                	.insn	2, 0x0004
     492:	0501                	addi	a0,a0,0
     494:	0308                	addi	a0,sp,384
     496:	0900                	addi	s0,sp,144
     498:	0008                	.insn	2, 0x0008
     49a:	0501                	addi	a0,a0,0
     49c:	04020017          	auipc	zero,0x4020
     4a0:	0301                	addi	t1,t1,0
     4a2:	0900                	addi	s0,sp,144
     4a4:	0002                	c.slli64	zero
     4a6:	0501                	addi	a0,a0,0
     4a8:	030e                	slli	t1,t1,0x3
     4aa:	0901                	addi	s2,s2,0
     4ac:	000a                	c.slli	zero,0x2
     4ae:	0501                	addi	a0,a0,0
     4b0:	0319                	addi	t1,t1,6
     4b2:	0900                	addi	s0,sp,144
     4b4:	0008                	.insn	2, 0x0008
     4b6:	0501                	addi	a0,a0,0
     4b8:	0318                	addi	a4,sp,384
     4ba:	0902                	c.slli64	s2
     4bc:	000c                	.insn	2, 0x000c
     4be:	0501                	addi	a0,a0,0
     4c0:	030a                	slli	t1,t1,0x2
     4c2:	0900                	addi	s0,sp,144
     4c4:	0010                	.insn	2, 0x0010
     4c6:	0501                	addi	a0,a0,0
     4c8:	030e                	slli	t1,t1,0x3
     4ca:	0902                	c.slli64	s2
     4cc:	000c                	.insn	2, 0x000c
     4ce:	0501                	addi	a0,a0,0
     4d0:	0308                	addi	a0,sp,384
     4d2:	0900                	addi	s0,sp,144
     4d4:	000a                	c.slli	zero,0x2
     4d6:	0501                	addi	a0,a0,0
     4d8:	0319                	addi	t1,t1,6
     4da:	0901                	addi	s2,s2,0
     4dc:	0002                	c.slli64	zero
     4de:	0501                	addi	a0,a0,0
     4e0:	0335                	addi	t1,t1,13
     4e2:	0900                	addi	s0,sp,144
     4e4:	0008                	.insn	2, 0x0008
     4e6:	0501                	addi	a0,a0,0
     4e8:	0029                	c.nop	10
     4ea:	0402                	c.slli64	s0
     4ec:	0302                	c.slli64	t1
     4ee:	0900                	addi	s0,sp,144
     4f0:	0002                	c.slli64	zero
     4f2:	0501                	addi	a0,a0,0
     4f4:	0020                	addi	s0,sp,8
     4f6:	0402                	c.slli64	s0
     4f8:	0302                	c.slli64	t1
     4fa:	0900                	addi	s0,sp,144
     4fc:	0008                	.insn	2, 0x0008
     4fe:	0501                	addi	a0,a0,0
     500:	0035                	c.nop	13
     502:	0402                	c.slli64	s0
     504:	09000303          	lb	t1,144(zero) # 90 <_start-0x7fffff70>
     508:	0002                	c.slli64	zero
     50a:	0601                	addi	a2,a2,0
     50c:	02090003          	lb	zero,32(s2)
     510:	0100                	addi	s0,sp,128
     512:	0200                	addi	s0,sp,256
     514:	0404                	addi	s1,sp,512
     516:	02090003          	lb	zero,32(s2)
     51a:	0100                	addi	s0,sp,128
     51c:	0e05                	addi	t3,t3,1
     51e:	0200                	addi	s0,sp,256
     520:	0604                	addi	s1,sp,768
     522:	0306                	slli	t1,t1,0x1
     524:	0900                	addi	s0,sp,144
     526:	0002                	c.slli64	zero
     528:	0501                	addi	a0,a0,0
     52a:	09010323          	sb	a6,134(sp)
     52e:	000c                	.insn	2, 0x000c
     530:	0501                	addi	a0,a0,0
     532:	030e                	slli	t1,t1,0x3
     534:	0900                	addi	s0,sp,144
     536:	000e                	c.slli	zero,0x3
     538:	0501                	addi	a0,a0,0
     53a:	0308                	addi	a0,sp,384
     53c:	0904                	addi	s1,sp,144
     53e:	000c                	.insn	2, 0x000c
     540:	0501                	addi	a0,a0,0
     542:	0312                	slli	t1,t1,0x4
     544:	0901                	addi	s2,s2,0
     546:	0008                	.insn	2, 0x0008
     548:	0501                	addi	a0,a0,0
     54a:	0316                	slli	t1,t1,0x5
     54c:	0900                	addi	s0,sp,144
     54e:	000c                	.insn	2, 0x000c
     550:	0501                	addi	a0,a0,0
     552:	0312                	slli	t1,t1,0x4
     554:	0902                	c.slli64	s2
     556:	000e                	c.slli	zero,0x3
     558:	0501                	addi	a0,a0,0
     55a:	0328                	addi	a0,sp,392
     55c:	0902                	c.slli64	s2
     55e:	0008                	.insn	2, 0x0008
     560:	0501                	addi	a0,a0,0
     562:	0322                	slli	t1,t1,0x8
     564:	0900                	addi	s0,sp,144
     566:	0014                	.insn	2, 0x0014
     568:	0501                	addi	a0,a0,0
     56a:	0316                	slli	t1,t1,0x5
     56c:	0900                	addi	s0,sp,144
     56e:	0006                	c.slli	zero,0x1
     570:	0501                	addi	a0,a0,0
     572:	0322                	slli	t1,t1,0x8
     574:	0900                	addi	s0,sp,144
     576:	000c                	.insn	2, 0x000c
     578:	0501                	addi	a0,a0,0
     57a:	031a                	slli	t1,t1,0x6
     57c:	0900                	addi	s0,sp,144
     57e:	0004                	.insn	2, 0x0004
     580:	0501                	addi	a0,a0,0
     582:	0312                	slli	t1,t1,0x4
     584:	0901                	addi	s2,s2,0
     586:	0008                	.insn	2, 0x0008
     588:	0501                	addi	a0,a0,0
     58a:	04020017          	auipc	zero,0x4020
     58e:	0301                	addi	t1,t1,0
     590:	0901                	addi	s2,s2,0
     592:	0012                	c.slli	zero,0x4
     594:	0501                	addi	a0,a0,0
     596:	0903030f          	.insn	4, 0x0903030f
     59a:	0008                	.insn	2, 0x0008
     59c:	0501                	addi	a0,a0,0
     59e:	030a                	slli	t1,t1,0x2
     5a0:	0901                	addi	s2,s2,0
     5a2:	001c                	.insn	2, 0x001c
     5a4:	0501                	addi	a0,a0,0
     5a6:	0310                	addi	a2,sp,384
     5a8:	0902                	c.slli64	s2
     5aa:	0012                	c.slli	zero,0x4
     5ac:	0501                	addi	a0,a0,0
     5ae:	0308                	addi	a0,sp,384
     5b0:	0900                	addi	s0,sp,144
     5b2:	000a                	c.slli	zero,0x2
     5b4:	0501                	addi	a0,a0,0
     5b6:	0901030f          	.insn	4, 0x0901030f
     5ba:	0002                	c.slli64	zero
     5bc:	0501                	addi	a0,a0,0
     5be:	0311                	addi	t1,t1,4
     5c0:	0901                	addi	s2,s2,0
     5c2:	0002                	c.slli64	zero
     5c4:	0501                	addi	a0,a0,0
     5c6:	0314                	addi	a3,sp,384
     5c8:	0900                	addi	s0,sp,144
     5ca:	000c                	.insn	2, 0x000c
     5cc:	0301                	addi	t1,t1,0
     5ce:	097f 0008 0501 0317 	.insn	10, 0x0900031705010008097f
     5d6:	0900 
     5d8:	000c                	.insn	2, 0x000c
     5da:	0501                	addi	a0,a0,0
     5dc:	0308                	addi	a0,sp,384
     5de:	0904                	addi	s1,sp,144
     5e0:	0004                	.insn	2, 0x0004
     5e2:	0501                	addi	a0,a0,0
     5e4:	030d                	addi	t1,t1,3
     5e6:	0901                	addi	s2,s2,0
     5e8:	000a                	c.slli	zero,0x2
     5ea:	0501                	addi	a0,a0,0
     5ec:	0310                	addi	a2,sp,384
     5ee:	0900                	addi	s0,sp,144
     5f0:	000c                	.insn	2, 0x000c
     5f2:	0501                	addi	a0,a0,0
     5f4:	030e                	slli	t1,t1,0x3
     5f6:	0902                	c.slli64	s2
     5f8:	0008                	.insn	2, 0x0008
     5fa:	0501                	addi	a0,a0,0
     5fc:	0308                	addi	a0,sp,384
     5fe:	0900                	addi	s0,sp,144
     600:	000a                	c.slli	zero,0x2
     602:	0501                	addi	a0,a0,0
     604:	030d                	addi	t1,t1,3
     606:	0901                	addi	s2,s2,0
     608:	0002                	c.slli64	zero
     60a:	0501                	addi	a0,a0,0
     60c:	0310                	addi	a2,sp,384
     60e:	0900                	addi	s0,sp,144
     610:	000c                	.insn	2, 0x000c
     612:	0501                	addi	a0,a0,0
     614:	0312                	slli	t1,t1,0x4
     616:	0901                	addi	s2,s2,0
     618:	0008                	.insn	2, 0x0008
     61a:	0501                	addi	a0,a0,0
     61c:	030c                	addi	a1,sp,384
     61e:	0900                	addi	s0,sp,144
     620:	0008                	.insn	2, 0x0008
     622:	0501                	addi	a0,a0,0
     624:	031c                	addi	a5,sp,384
     626:	0901                	addi	s2,s2,0
     628:	0002                	c.slli64	zero
     62a:	0501                	addi	a0,a0,0
     62c:	0311                	addi	t1,t1,4
     62e:	0900                	addi	s0,sp,144
     630:	0008                	.insn	2, 0x0008
     632:	0501                	addi	a0,a0,0
     634:	031c                	addi	a5,sp,384
     636:	0900                	addi	s0,sp,144
     638:	000c                	.insn	2, 0x000c
     63a:	0501                	addi	a0,a0,0
     63c:	0314                	addi	a3,sp,384
     63e:	0900                	addi	s0,sp,144
     640:	0004                	.insn	2, 0x0004
     642:	0501                	addi	a0,a0,0
     644:	0312                	slli	t1,t1,0x4
     646:	0901                	addi	s2,s2,0
     648:	0004                	.insn	2, 0x0004
     64a:	0501                	addi	a0,a0,0
     64c:	030c                	addi	a1,sp,384
     64e:	0900                	addi	s0,sp,144
     650:	0008                	.insn	2, 0x0008
     652:	0501                	addi	a0,a0,0
     654:	031c                	addi	a5,sp,384
     656:	0901                	addi	s2,s2,0
     658:	0002                	c.slli64	zero
     65a:	0501                	addi	a0,a0,0
     65c:	0311                	addi	t1,t1,4
     65e:	0900                	addi	s0,sp,144
     660:	0008                	.insn	2, 0x0008
     662:	0501                	addi	a0,a0,0
     664:	031c                	addi	a5,sp,384
     666:	0900                	addi	s0,sp,144
     668:	000c                	.insn	2, 0x000c
     66a:	0501                	addi	a0,a0,0
     66c:	0314                	addi	a3,sp,384
     66e:	0900                	addi	s0,sp,144
     670:	0004                	.insn	2, 0x0004
     672:	0501                	addi	a0,a0,0
     674:	0310                	addi	a2,sp,384
     676:	00040903          	lb	s2,0(s0)
     67a:	0501                	addi	a0,a0,0
     67c:	0308                	addi	a0,sp,384
     67e:	0900                	addi	s0,sp,144
     680:	000a                	c.slli	zero,0x2
     682:	0501                	addi	a0,a0,0
     684:	0901030f          	.insn	4, 0x0901030f
     688:	0002                	c.slli64	zero
     68a:	0501                	addi	a0,a0,0
     68c:	0311                	addi	t1,t1,4
     68e:	0901                	addi	s2,s2,0
     690:	0002                	c.slli64	zero
     692:	0501                	addi	a0,a0,0
     694:	0314                	addi	a3,sp,384
     696:	0900                	addi	s0,sp,144
     698:	000c                	.insn	2, 0x000c
     69a:	0301                	addi	t1,t1,0
     69c:	097f 0008 0501 0310 	.insn	10, 0x0900031005010008097f
     6a4:	0900 
     6a6:	000c                	.insn	2, 0x000c
     6a8:	0501                	addi	a0,a0,0
     6aa:	0904030b          	.insn	4, 0x0904030b
     6ae:	0002                	c.slli64	zero
     6b0:	0501                	addi	a0,a0,0
     6b2:	0021                	c.nop	8
     6b4:	0402                	c.slli64	s0
     6b6:	0302                	c.slli64	t1
     6b8:	0900                	addi	s0,sp,144
     6ba:	0002                	c.slli64	zero
     6bc:	0501                	addi	a0,a0,0
     6be:	0024                	addi	s1,sp,8
     6c0:	0402                	c.slli64	s0
     6c2:	0302                	c.slli64	t1
     6c4:	0900                	addi	s0,sp,144
     6c6:	000c                	.insn	2, 0x000c
     6c8:	0501                	addi	a0,a0,0
     6ca:	0019                	c.nop	6
     6cc:	0402                	c.slli64	s0
     6ce:	0301                	addi	t1,t1,0
     6d0:	0900                	addi	s0,sp,144
     6d2:	0008                	.insn	2, 0x0008
     6d4:	0501                	addi	a0,a0,0
     6d6:	000e                	c.slli	zero,0x3
     6d8:	0402                	c.slli64	s0
     6da:	0301                	addi	t1,t1,0
     6dc:	0900                	addi	s0,sp,144
     6de:	000c                	.insn	2, 0x000c
     6e0:	0501                	addi	a0,a0,0
     6e2:	0901030b          	.insn	4, 0x0901030b
     6e6:	000a                	c.slli	zero,0x2
     6e8:	0501                	addi	a0,a0,0
     6ea:	0019                	c.nop	6
     6ec:	0402                	c.slli64	s0
     6ee:	0302                	c.slli64	t1
     6f0:	0900                	addi	s0,sp,144
     6f2:	0002                	c.slli64	zero
     6f4:	0501                	addi	a0,a0,0
     6f6:	0025                	c.nop	9
     6f8:	0402                	c.slli64	s0
     6fa:	0302                	c.slli64	t1
     6fc:	0900                	addi	s0,sp,144
     6fe:	000c                	.insn	2, 0x000c
     700:	0501                	addi	a0,a0,0
     702:	001c                	.insn	2, 0x001c
     704:	0402                	c.slli64	s0
     706:	0302                	c.slli64	t1
     708:	0900                	addi	s0,sp,144
     70a:	000c                	.insn	2, 0x000c
     70c:	0501                	addi	a0,a0,0
     70e:	000d                	c.nop	3
     710:	0402                	c.slli64	s0
     712:	0301                	addi	t1,t1,0
     714:	0900                	addi	s0,sp,144
     716:	0004                	.insn	2, 0x0004
     718:	0501                	addi	a0,a0,0
     71a:	0010                	.insn	2, 0x0010
     71c:	0402                	c.slli64	s0
     71e:	0301                	addi	t1,t1,0
     720:	0900                	addi	s0,sp,144
     722:	000c                	.insn	2, 0x000c
     724:	0501                	addi	a0,a0,0
     726:	0901030b          	.insn	4, 0x0901030b
     72a:	0004                	.insn	2, 0x0004
     72c:	0501                	addi	a0,a0,0
     72e:	001c                	.insn	2, 0x001c
     730:	0402                	c.slli64	s0
     732:	0302                	c.slli64	t1
     734:	0900                	addi	s0,sp,144
     736:	0002                	c.slli64	zero
     738:	0501                	addi	a0,a0,0
     73a:	001f 0402 0302      	.insn	6, 0x03020402001f
     740:	0900                	addi	s0,sp,144
     742:	000c                	.insn	2, 0x000c
     744:	0501                	addi	a0,a0,0
     746:	0010                	.insn	2, 0x0010
     748:	0402                	c.slli64	s0
     74a:	0301                	addi	t1,t1,0
     74c:	0900                	addi	s0,sp,144
     74e:	0008                	.insn	2, 0x0008
     750:	0501                	addi	a0,a0,0
     752:	04020013          	addi	zero,tp,64 # 40 <_start-0x7fffffc0>
     756:	0301                	addi	t1,t1,0
     758:	0900                	addi	s0,sp,144
     75a:	000c                	.insn	2, 0x000c
     75c:	0501                	addi	a0,a0,0
     75e:	030c                	addi	a1,sp,384
     760:	0902                	c.slli64	s2
     762:	0004                	.insn	2, 0x0004
     764:	0501                	addi	a0,a0,0
     766:	0301                	addi	t1,t1,0
     768:	0901                	addi	s2,s2,0
     76a:	0004                	.insn	2, 0x0004
     76c:	0301                	addi	t1,t1,0
     76e:	0905                	addi	s2,s2,1
     770:	000a                	c.slli	zero,0x2
     772:	0501                	addi	a0,a0,0
     774:	0309                	addi	t1,t1,2
     776:	0901                	addi	s2,s2,0
     778:	0018                	.insn	2, 0x0018
     77a:	0501                	addi	a0,a0,0
     77c:	030e                	slli	t1,t1,0x3
     77e:	00040903          	lb	s2,0(s0)
     782:	0501                	addi	a0,a0,0
     784:	0305                	addi	t1,t1,1
     786:	0900                	addi	s0,sp,144
     788:	0008                	.insn	2, 0x0008
     78a:	0501                	addi	a0,a0,0
     78c:	030d                	addi	t1,t1,3
     78e:	0902                	c.slli64	s2
     790:	0002                	c.slli64	zero
     792:	0501                	addi	a0,a0,0
     794:	030c                	addi	a1,sp,384
     796:	0900                	addi	s0,sp,144
     798:	0008                	.insn	2, 0x0008
     79a:	0501                	addi	a0,a0,0
     79c:	0316                	slli	t1,t1,0x5
     79e:	0901                	addi	s2,s2,0
     7a0:	000a                	c.slli	zero,0x2
     7a2:	0501                	addi	a0,a0,0
     7a4:	0311                	addi	t1,t1,4
     7a6:	0900                	addi	s0,sp,144
     7a8:	0004                	.insn	2, 0x0004
     7aa:	0501                	addi	a0,a0,0
     7ac:	0316                	slli	t1,t1,0x5
     7ae:	0900                	addi	s0,sp,144
     7b0:	000c                	.insn	2, 0x000c
     7b2:	0501                	addi	a0,a0,0
     7b4:	0314                	addi	a3,sp,384
     7b6:	0900                	addi	s0,sp,144
     7b8:	0004                	.insn	2, 0x0004
     7ba:	0501                	addi	a0,a0,0
     7bc:	030d                	addi	t1,t1,3
     7be:	0901                	addi	s2,s2,0
     7c0:	0004                	.insn	2, 0x0004
     7c2:	0301                	addi	t1,t1,0
     7c4:	00020903          	lb	s2,0(tp) # 0 <_start-0x80000000>
     7c8:	0501                	addi	a0,a0,0
     7ca:	0310                	addi	a2,sp,384
     7cc:	0902                	c.slli64	s2
     7ce:	0004                	.insn	2, 0x0004
     7d0:	0501                	addi	a0,a0,0
     7d2:	09000317          	auipc	t1,0x9000
     7d6:	000a                	c.slli	zero,0x2
     7d8:	0501                	addi	a0,a0,0
     7da:	0314                	addi	a3,sp,384
     7dc:	0901                	addi	s2,s2,0
     7de:	000a                	c.slli	zero,0x2
     7e0:	0501                	addi	a0,a0,0
     7e2:	030d                	addi	t1,t1,3 # 90007d5 <_start-0x76fff82b>
     7e4:	0900                	addi	s0,sp,144
     7e6:	000a                	c.slli	zero,0x2
     7e8:	0501                	addi	a0,a0,0
     7ea:	0321                	addi	t1,t1,8
     7ec:	0901                	addi	s2,s2,0
     7ee:	0020                	addi	s0,sp,8
     7f0:	0501                	addi	a0,a0,0
     7f2:	032a                	slli	t1,t1,0xa
     7f4:	0900                	addi	s0,sp,144
     7f6:	000c                	.insn	2, 0x000c
     7f8:	0501                	addi	a0,a0,0
     7fa:	0321                	addi	t1,t1,8
     7fc:	0901                	addi	s2,s2,0
     7fe:	0002                	c.slli64	zero
     800:	0501                	addi	a0,a0,0
     802:	032c                	addi	a1,sp,392
     804:	0900                	addi	s0,sp,144
     806:	000c                	.insn	2, 0x000c
     808:	0501                	addi	a0,a0,0
     80a:	0321                	addi	t1,t1,8
     80c:	0901                	addi	s2,s2,0
     80e:	0002                	c.slli64	zero
     810:	0501                	addi	a0,a0,0
     812:	032d                	addi	t1,t1,11
     814:	0900                	addi	s0,sp,144
     816:	000c                	.insn	2, 0x000c
     818:	0501                	addi	a0,a0,0
     81a:	030d                	addi	t1,t1,3
     81c:	00020903          	lb	s2,0(tp) # 0 <_start-0x80000000>
     820:	0301                	addi	t1,t1,0
     822:	0901                	addi	s2,s2,0
     824:	0006                	c.slli	zero,0x1
     826:	0501                	addi	a0,a0,0
     828:	030c                	addi	a1,sp,384
     82a:	0900                	addi	s0,sp,144
     82c:	0008                	.insn	2, 0x0008
     82e:	0501                	addi	a0,a0,0
     830:	000d                	c.nop	3
     832:	0402                	c.slli64	s0
     834:	0301                	addi	t1,t1,0
     836:	0900                	addi	s0,sp,144
     838:	000a                	c.slli	zero,0x2
     83a:	0501                	addi	a0,a0,0
     83c:	0901031b          	addiw	t1,sp,144
     840:	0012                	c.slli	zero,0x4
     842:	0501                	addi	a0,a0,0
     844:	0319                	addi	t1,t1,6
     846:	0900                	addi	s0,sp,144
     848:	0010                	.insn	2, 0x0010
     84a:	0501                	addi	a0,a0,0
     84c:	0314                	addi	a3,sp,384
     84e:	0901                	addi	s2,s2,0
     850:	0002                	c.slli64	zero
     852:	0501                	addi	a0,a0,0
     854:	09000313          	li	t1,144
     858:	0008                	.insn	2, 0x0008
     85a:	0501                	addi	a0,a0,0
     85c:	0310                	addi	a2,sp,384
     85e:	0901                	addi	s2,s2,0
     860:	000a                	c.slli	zero,0x2
     862:	0501                	addi	a0,a0,0
     864:	09000317          	auipc	t1,0x9000
     868:	000a                	c.slli	zero,0x2
     86a:	0501                	addi	a0,a0,0
     86c:	0319                	addi	t1,t1,6 # 900086a <_start-0x76fff796>
     86e:	0901                	addi	s2,s2,0
     870:	000a                	c.slli	zero,0x2
     872:	0501                	addi	a0,a0,0
     874:	0310                	addi	a2,sp,384
     876:	0901                	addi	s2,s2,0
     878:	0012                	c.slli	zero,0x4
     87a:	0501                	addi	a0,a0,0
     87c:	031d                	addi	t1,t1,7
     87e:	0901                	addi	s2,s2,0
     880:	000a                	c.slli	zero,0x2
     882:	0501                	addi	a0,a0,0
     884:	09010317          	auipc	t1,0x9010
     888:	000c                	.insn	2, 0x000c
     88a:	0501                	addi	a0,a0,0
     88c:	030d                	addi	t1,t1,3 # 9010887 <_start-0x76fef779>
     88e:	0904                	addi	s1,sp,144
     890:	000c                	.insn	2, 0x000c
     892:	0301                	addi	t1,t1,0
     894:	0901                	addi	s2,s2,0
     896:	0006                	c.slli	zero,0x1
     898:	0501                	addi	a0,a0,0
     89a:	030c                	addi	a1,sp,384
     89c:	0900                	addi	s0,sp,144
     89e:	0008                	.insn	2, 0x0008
     8a0:	0501                	addi	a0,a0,0
     8a2:	0310                	addi	a2,sp,384
     8a4:	0901                	addi	s2,s2,0
     8a6:	000a                	c.slli	zero,0x2
     8a8:	0501                	addi	a0,a0,0
     8aa:	09000317          	auipc	t1,0x9000
     8ae:	000a                	c.slli	zero,0x2
     8b0:	0501                	addi	a0,a0,0
     8b2:	0311                	addi	t1,t1,4 # 90008ae <_start-0x76fff752>
     8b4:	0901                	addi	s2,s2,0
     8b6:	000a                	c.slli	zero,0x2
     8b8:	0501                	addi	a0,a0,0
     8ba:	0310                	addi	a2,sp,384
     8bc:	0900                	addi	s0,sp,144
     8be:	0008                	.insn	2, 0x0008
     8c0:	0501                	addi	a0,a0,0
     8c2:	0011                	c.nop	4
     8c4:	0402                	c.slli64	s0
     8c6:	0301                	addi	t1,t1,0
     8c8:	0900                	addi	s0,sp,144
     8ca:	000a                	c.slli	zero,0x2
     8cc:	0501                	addi	a0,a0,0
     8ce:	031d                	addi	t1,t1,7
     8d0:	0901                	addi	s2,s2,0
     8d2:	0012                	c.slli	zero,0x4
     8d4:	0501                	addi	a0,a0,0
     8d6:	0900031b          	addiw	t1,zero,144
     8da:	0010                	.insn	2, 0x0010
     8dc:	0501                	addi	a0,a0,0
     8de:	0316                	slli	t1,t1,0x5
     8e0:	0901                	addi	s2,s2,0
     8e2:	0002                	c.slli64	zero
     8e4:	0501                	addi	a0,a0,0
     8e6:	0315                	addi	t1,t1,5
     8e8:	0900                	addi	s0,sp,144
     8ea:	0008                	.insn	2, 0x0008
     8ec:	0501                	addi	a0,a0,0
     8ee:	0901031b          	addiw	t1,sp,144
     8f2:	000a                	c.slli	zero,0x2
     8f4:	0501                	addi	a0,a0,0
     8f6:	09010317          	auipc	t1,0x9010
     8fa:	0012                	c.slli	zero,0x4
     8fc:	0501                	addi	a0,a0,0
     8fe:	030d                	addi	t1,t1,3 # 90108f9 <_start-0x76fef707>
     900:	00120903          	lb	s2,1(tp) # 1 <_start-0x7fffffff>
     904:	0501                	addi	a0,a0,0
     906:	030c                	addi	a1,sp,384
     908:	0900                	addi	s0,sp,144
     90a:	0008                	.insn	2, 0x0008
     90c:	0501                	addi	a0,a0,0
     90e:	001c                	.insn	2, 0x001c
     910:	0402                	c.slli64	s0
     912:	0301                	addi	t1,t1,0
     914:	0900                	addi	s0,sp,144
     916:	000a                	c.slli	zero,0x2
     918:	0501                	addi	a0,a0,0
     91a:	0019                	c.nop	6
     91c:	0402                	c.slli64	s0
     91e:	0301                	addi	t1,t1,0
     920:	0900                	addi	s0,sp,144
     922:	0008                	.insn	2, 0x0008
     924:	0501                	addi	a0,a0,0
     926:	0402002b          	.insn	4, 0x0402002b
     92a:	0302                	c.slli64	t1
     92c:	0900                	addi	s0,sp,144
     92e:	000a                	c.slli	zero,0x2
     930:	0501                	addi	a0,a0,0
     932:	0028                	addi	a0,sp,8
     934:	0402                	c.slli64	s0
     936:	0302                	c.slli64	t1
     938:	0900                	addi	s0,sp,144
     93a:	0008                	.insn	2, 0x0008
     93c:	0501                	addi	a0,a0,0
     93e:	0310                	addi	a2,sp,384
     940:	0901                	addi	s2,s2,0
     942:	000a                	c.slli	zero,0x2
     944:	0501                	addi	a0,a0,0
     946:	09000317          	auipc	t1,0x9000
     94a:	000a                	c.slli	zero,0x2
     94c:	0501                	addi	a0,a0,0
     94e:	0311                	addi	t1,t1,4 # 900094a <_start-0x76fff6b6>
     950:	0902                	c.slli64	s2
     952:	000a                	c.slli	zero,0x2
     954:	0501                	addi	a0,a0,0
     956:	0309                	addi	t1,t1,2
     958:	0900                	addi	s0,sp,144
     95a:	000a                	c.slli	zero,0x2
     95c:	0501                	addi	a0,a0,0
     95e:	0311                	addi	t1,t1,4
     960:	0902                	c.slli64	s2
     962:	0090                	addi	a2,sp,64
     964:	0001                	nop
     966:	0402                	c.slli64	s0
     968:	0602                	c.slli64	a2
     96a:	0e090003          	lb	zero,224(s2)
     96e:	0100                	addi	s0,sp,128
     970:	0200                	addi	s0,sp,256
     972:	0104                	addi	s1,sp,128
     974:	14090003          	lb	zero,320(s2)
     978:	0100                	addi	s0,sp,128
     97a:	2a05                	addiw	s4,s4,1
     97c:	0306                	slli	t1,t1,0x1
     97e:	0901                	addi	s2,s2,0
     980:	0010                	.insn	2, 0x0010
     982:	0501                	addi	a0,a0,0
     984:	0015                	c.nop	5
     986:	0402                	c.slli64	s0
     988:	0301                	addi	t1,t1,0
     98a:	0900                	addi	s0,sp,144
     98c:	000e                	c.slli	zero,0x3
     98e:	0501                	addi	a0,a0,0
     990:	001a                	c.slli	zero,0x6
     992:	0402                	c.slli64	s0
     994:	0301                	addi	t1,t1,0
     996:	0900                	addi	s0,sp,144
     998:	000c                	.insn	2, 0x000c
     99a:	0501                	addi	a0,a0,0
     99c:	0018                	.insn	2, 0x0018
     99e:	0402                	c.slli64	s0
     9a0:	0301                	addi	t1,t1,0
     9a2:	0900                	addi	s0,sp,144
     9a4:	0004                	.insn	2, 0x0004
     9a6:	0501                	addi	a0,a0,0
     9a8:	0311                	addi	t1,t1,4
     9aa:	0901                	addi	s2,s2,0
     9ac:	0004                	.insn	2, 0x0004
     9ae:	0001                	nop
     9b0:	0402                	c.slli64	s0
     9b2:	0602                	c.slli64	a2
     9b4:	02090003          	lb	zero,32(s2)
     9b8:	0100                	addi	s0,sp,128
     9ba:	0200                	addi	s0,sp,256
     9bc:	0104                	addi	s1,sp,128
     9be:	14090003          	lb	zero,320(s2)
     9c2:	0100                	addi	s0,sp,128
     9c4:	0306                	slli	t1,t1,0x1
     9c6:	0901                	addi	s2,s2,0
     9c8:	0010                	.insn	2, 0x0010
     9ca:	0501                	addi	a0,a0,0
     9cc:	09030317          	auipc	t1,0x9030
     9d0:	0002                	c.slli64	zero
     9d2:	0501                	addi	a0,a0,0
     9d4:	031d                	addi	t1,t1,7 # 90309d3 <_start-0x76fcf62d>
     9d6:	0901                	addi	s2,s2,0
     9d8:	0012                	c.slli	zero,0x4
     9da:	0001                	nop
     9dc:	0402                	c.slli64	s0
     9de:	0601                	addi	a2,a2,0
     9e0:	06090003          	lb	zero,96(s2)
     9e4:	0100                	addi	s0,sp,128
     9e6:	0200                	addi	s0,sp,256
     9e8:	0204                	addi	s1,sp,256
     9ea:	06090003          	lb	zero,96(s2)
     9ee:	0100                	addi	s0,sp,128
     9f0:	1305                	addi	t1,t1,-31
     9f2:	0200                	addi	s0,sp,256
     9f4:	0404                	addi	s1,sp,512
     9f6:	0306                	slli	t1,t1,0x1
     9f8:	0900                	addi	s0,sp,144
     9fa:	0008                	.insn	2, 0x0008
     9fc:	0501                	addi	a0,a0,0
     9fe:	0901031b          	addiw	t1,sp,144
     a02:	0004                	.insn	2, 0x0004
     a04:	0501                	addi	a0,a0,0
     a06:	0015                	c.nop	5
     a08:	0402                	c.slli64	s0
     a0a:	0301                	addi	t1,t1,0
     a0c:	0900                	addi	s0,sp,144
     a0e:	000a                	c.slli	zero,0x2
     a10:	0501                	addi	a0,a0,0
     a12:	0311                	addi	t1,t1,4
     a14:	0901                	addi	s2,s2,0
     a16:	0004                	.insn	2, 0x0004
     a18:	0001                	nop
     a1a:	0402                	c.slli64	s0
     a1c:	0602                	c.slli64	a2
     a1e:	0e090003          	lb	zero,224(s2)
     a22:	0100                	addi	s0,sp,128
     a24:	0200                	addi	s0,sp,256
     a26:	0104                	addi	s1,sp,128
     a28:	14090003          	lb	zero,320(s2)
     a2c:	0100                	addi	s0,sp,128
     a2e:	1a05                	addi	s4,s4,-31
     a30:	0306                	slli	t1,t1,0x1
     a32:	0901                	addi	s2,s2,0
     a34:	0010                	.insn	2, 0x0010
     a36:	0501                	addi	a0,a0,0
     a38:	0311                	addi	t1,t1,4
     a3a:	0900                	addi	s0,sp,144
     a3c:	0004                	.insn	2, 0x0004
     a3e:	0501                	addi	a0,a0,0
     a40:	0320                	addi	s0,sp,392
     a42:	0901                	addi	s2,s2,0
     a44:	0002                	c.slli64	zero
     a46:	0501                	addi	a0,a0,0
     a48:	0319                	addi	t1,t1,6
     a4a:	0900                	addi	s0,sp,144
     a4c:	000c                	.insn	2, 0x000c
     a4e:	0501                	addi	a0,a0,0
     a50:	031e                	slli	t1,t1,0x7
     a52:	0900                	addi	s0,sp,144
     a54:	000c                	.insn	2, 0x000c
     a56:	0501                	addi	a0,a0,0
     a58:	031c                	addi	a5,sp,384
     a5a:	0900                	addi	s0,sp,144
     a5c:	0004                	.insn	2, 0x0004
     a5e:	0501                	addi	a0,a0,0
     a60:	0402002b          	.insn	4, 0x0402002b
     a64:	097f0303          	lb	t1,151(t5)
     a68:	0004                	.insn	2, 0x0004
     a6a:	0501                	addi	a0,a0,0
     a6c:	04020023          	sb	zero,64(tp) # 40 <_start-0x7fffffc0>
     a70:	0301                	addi	t1,t1,0
     a72:	0900                	addi	s0,sp,144
     a74:	000a                	c.slli	zero,0x2
     a76:	0501                	addi	a0,a0,0
     a78:	0311                	addi	t1,t1,4
     a7a:	0902                	c.slli64	s2
     a7c:	0012                	c.slli	zero,0x4
     a7e:	0001                	nop
     a80:	0402                	c.slli64	s0
     a82:	0602                	c.slli64	a2
     a84:	02090003          	lb	zero,32(s2)
     a88:	0100                	addi	s0,sp,128
     a8a:	0200                	addi	s0,sp,256
     a8c:	0104                	addi	s1,sp,128
     a8e:	14090003          	lb	zero,320(s2)
     a92:	0100                	addi	s0,sp,128
     a94:	0306                	slli	t1,t1,0x1
     a96:	0901                	addi	s2,s2,0
     a98:	0010                	.insn	2, 0x0010
     a9a:	0501                	addi	a0,a0,0
     a9c:	09030317          	auipc	t1,0x9030
     aa0:	0002                	c.slli64	zero
     aa2:	0501                	addi	a0,a0,0
     aa4:	09010323          	sb	a6,134(sp)
     aa8:	000c                	.insn	2, 0x000c
     aaa:	0501                	addi	a0,a0,0
     aac:	04020017          	auipc	zero,0x4020
     ab0:	0301                	addi	t1,t1,0 # 9030a9c <_start-0x76fcf564>
     ab2:	0900                	addi	s0,sp,144
     ab4:	000e                	c.slli	zero,0x3
     ab6:	0501                	addi	a0,a0,0
     ab8:	0311                	addi	t1,t1,4
     aba:	0901                	addi	s2,s2,0
     abc:	001c                	.insn	2, 0x001c
     abe:	0501                	addi	a0,a0,0
     ac0:	0314                	addi	a3,sp,384
     ac2:	00020903          	lb	s2,0(tp) # 0 <_start-0x80000000>
     ac6:	0501                	addi	a0,a0,0
     ac8:	0321                	addi	t1,t1,8
     aca:	0901                	addi	s2,s2,0
     acc:	000e                	c.slli	zero,0x3
     ace:	0501                	addi	a0,a0,0
     ad0:	0901031b          	addiw	t1,sp,144
     ad4:	0006                	c.slli	zero,0x1
     ad6:	0501                	addi	a0,a0,0
     ad8:	09020317          	auipc	t1,0x9020
     adc:	000c                	.insn	2, 0x000c
     ade:	0501                	addi	a0,a0,0
     ae0:	09010323          	sb	a6,134(sp)
     ae4:	000c                	.insn	2, 0x000c
     ae6:	0501                	addi	a0,a0,0
     ae8:	04020017          	auipc	zero,0x4020
     aec:	0301                	addi	t1,t1,0 # 9020ad8 <_start-0x76fdf528>
     aee:	0900                	addi	s0,sp,144
     af0:	000e                	c.slli	zero,0x3
     af2:	0501                	addi	a0,a0,0
     af4:	0311                	addi	t1,t1,4
     af6:	0901                	addi	s2,s2,0
     af8:	001c                	.insn	2, 0x001c
     afa:	0501                	addi	a0,a0,0
     afc:	09030317          	auipc	t1,0x9030
     b00:	0002                	c.slli64	zero
     b02:	0301                	addi	t1,t1,0 # 9030afc <_start-0x76fcf504>
     b04:	0902                	c.slli64	s2
     b06:	000c                	.insn	2, 0x000c
     b08:	0501                	addi	a0,a0,0
     b0a:	09010323          	sb	a6,134(sp)
     b0e:	000c                	.insn	2, 0x000c
     b10:	0501                	addi	a0,a0,0
     b12:	04020017          	auipc	zero,0x4020
     b16:	0301                	addi	t1,t1,0
     b18:	0900                	addi	s0,sp,144
     b1a:	000e                	c.slli	zero,0x3
     b1c:	0501                	addi	a0,a0,0
     b1e:	0311                	addi	t1,t1,4
     b20:	0901                	addi	s2,s2,0
     b22:	001c                	.insn	2, 0x001c
     b24:	0501                	addi	a0,a0,0
     b26:	09040317          	auipc	t1,0x9040
     b2a:	0002                	c.slli64	zero
     b2c:	0501                	addi	a0,a0,0
     b2e:	09020323          	sb	a6,134(tp) # 86 <_start-0x7fffff7a>
     b32:	000c                	.insn	2, 0x000c
     b34:	0501                	addi	a0,a0,0
     b36:	04020017          	auipc	zero,0x4020
     b3a:	0301                	addi	t1,t1,0 # 9040b26 <_start-0x76fbf4da>
     b3c:	0900                	addi	s0,sp,144
     b3e:	000e                	c.slli	zero,0x3
     b40:	0501                	addi	a0,a0,0
     b42:	0311                	addi	t1,t1,4
     b44:	0901                	addi	s2,s2,0
     b46:	001c                	.insn	2, 0x001c
     b48:	0501                	addi	a0,a0,0
     b4a:	09030317          	auipc	t1,0x9030
     b4e:	0002                	c.slli64	zero
     b50:	0501                	addi	a0,a0,0
     b52:	031c                	addi	a5,sp,384
     b54:	0901                	addi	s2,s2,0
     b56:	0012                	c.slli	zero,0x4
     b58:	0501                	addi	a0,a0,0
     b5a:	0315                	addi	t1,t1,5 # 9030b4f <_start-0x76fcf4b1>
     b5c:	0900                	addi	s0,sp,144
     b5e:	000c                	.insn	2, 0x000c
     b60:	0501                	addi	a0,a0,0
     b62:	0311                	addi	t1,t1,4
     b64:	0901                	addi	s2,s2,0
     b66:	000c                	.insn	2, 0x000c
     b68:	0501                	addi	a0,a0,0
     b6a:	0315                	addi	t1,t1,5
     b6c:	00020903          	lb	s2,0(tp) # 0 <_start-0x80000000>
     b70:	0501                	addi	a0,a0,0
     b72:	0314                	addi	a3,sp,384
     b74:	0900                	addi	s0,sp,144
     b76:	0008                	.insn	2, 0x0008
     b78:	0501                	addi	a0,a0,0
     b7a:	0319                	addi	t1,t1,6
     b7c:	0901                	addi	s2,s2,0
     b7e:	000a                	c.slli	zero,0x2
     b80:	0501                	addi	a0,a0,0
     b82:	031c                	addi	a5,sp,384
     b84:	0900                	addi	s0,sp,144
     b86:	000c                	.insn	2, 0x000c
     b88:	0501                	addi	a0,a0,0
     b8a:	0315                	addi	t1,t1,5
     b8c:	0901                	addi	s2,s2,0
     b8e:	0008                	.insn	2, 0x0008
     b90:	0501                	addi	a0,a0,0
     b92:	0314                	addi	a3,sp,384
     b94:	0900                	addi	s0,sp,144
     b96:	0008                	.insn	2, 0x0008
     b98:	0501                	addi	a0,a0,0
     b9a:	031e                	slli	t1,t1,0x7
     b9c:	0901                	addi	s2,s2,0
     b9e:	0002                	c.slli64	zero
     ba0:	0501                	addi	a0,a0,0
     ba2:	0319                	addi	t1,t1,6
     ba4:	0900                	addi	s0,sp,144
     ba6:	0004                	.insn	2, 0x0004
     ba8:	0501                	addi	a0,a0,0
     baa:	031e                	slli	t1,t1,0x7
     bac:	0900                	addi	s0,sp,144
     bae:	000c                	.insn	2, 0x000c
     bb0:	0501                	addi	a0,a0,0
     bb2:	031c                	addi	a5,sp,384
     bb4:	0900                	addi	s0,sp,144
     bb6:	0004                	.insn	2, 0x0004
     bb8:	0501                	addi	a0,a0,0
     bba:	0311                	addi	t1,t1,4
     bbc:	00040903          	lb	s2,0(s0)
     bc0:	0501                	addi	a0,a0,0
     bc2:	0318                	addi	a4,sp,384
     bc4:	097f 0002 0501 031f 	.insn	10, 0x0900031f05010002097f
     bcc:	0900 
     bce:	000a                	c.slli	zero,0x2
     bd0:	0501                	addi	a0,a0,0
     bd2:	0311                	addi	t1,t1,4
     bd4:	0901                	addi	s2,s2,0
     bd6:	000a                	c.slli	zero,0x2
     bd8:	0501                	addi	a0,a0,0
     bda:	0029                	c.nop	10
     bdc:	0402                	c.slli64	s0
     bde:	0302                	c.slli64	t1
     be0:	7f9e                	ld	t6,480(sp)
     be2:	0209                	addi	tp,tp,2 # 2 <_start-0x7ffffffe>
     be4:	0100                	addi	s0,sp,128
     be6:	3005                	.insn	2, 0x3005
     be8:	0200                	addi	s0,sp,256
     bea:	0204                	addi	s1,sp,256
     bec:	0a090003          	lb	zero,160(s2)
     bf0:	0100                	addi	s0,sp,128
     bf2:	1505                	addi	a0,a0,-31
     bf4:	0200                	addi	s0,sp,256
     bf6:	0104                	addi	s1,sp,128
     bf8:	0a090003          	lb	zero,160(s2)
     bfc:	0100                	addi	s0,sp,128
     bfe:	1a05                	addi	s4,s4,-31
     c00:	0200                	addi	s0,sp,256
     c02:	0104                	addi	s1,sp,128
     c04:	08090003          	lb	zero,128(s2)
     c08:	0100                	addi	s0,sp,128
     c0a:	2105                	addiw	sp,sp,1
     c0c:	0200                	addi	s0,sp,256
     c0e:	0304                	addi	s1,sp,384
     c10:	02090003          	lb	zero,32(s2)
     c14:	0100                	addi	s0,sp,128
     c16:	1a05                	addi	s4,s4,-31
     c18:	0200                	addi	s0,sp,256
     c1a:	0304                	addi	s1,sp,384
     c1c:	04090003          	lb	zero,64(s2)
     c20:	0100                	addi	s0,sp,128
     c22:	0a05                	addi	s4,s4,1
     c24:	0900e503          	lwu	a0,144(ra)
     c28:	0008                	.insn	2, 0x0008
     c2a:	0501                	addi	a0,a0,0
     c2c:	0310                	addi	a2,sp,384
     c2e:	0901                	addi	s2,s2,0
     c30:	0008                	.insn	2, 0x0008
     c32:	0501                	addi	a0,a0,0
     c34:	0301                	addi	t1,t1,0
     c36:	0901                	addi	s2,s2,0
     c38:	000e                	c.slli	zero,0x3
     c3a:	0301                	addi	t1,t1,0
     c3c:	091e                	slli	s2,s2,0x7
     c3e:	000a                	c.slli	zero,0x2
     c40:	0501                	addi	a0,a0,0
     c42:	0305                	addi	t1,t1,1
     c44:	0904                	addi	s1,sp,144
     c46:	0026                	c.slli	zero,0x9
     c48:	0501                	addi	a0,a0,0
     c4a:	0314                	addi	a3,sp,384
     c4c:	0901                	addi	s2,s2,0
     c4e:	0014                	.insn	2, 0x0014
     c50:	0501                	addi	a0,a0,0
     c52:	0005                	c.nop	1
     c54:	0402                	c.slli64	s0
     c56:	0301                	addi	t1,t1,0
     c58:	0900                	addi	s0,sp,144
     c5a:	001e                	c.slli	zero,0x7
     c5c:	0501                	addi	a0,a0,0
     c5e:	030c                	addi	a1,sp,384
     c60:	0902                	c.slli64	s2
     c62:	0010                	.insn	2, 0x0010
     c64:	0501                	addi	a0,a0,0
     c66:	0301                	addi	t1,t1,0
     c68:	0901                	addi	s2,s2,0
     c6a:	0004                	.insn	2, 0x0004
     c6c:	0301                	addi	t1,t1,0
     c6e:	0904                	addi	s1,sp,144
     c70:	0010                	.insn	2, 0x0010
     c72:	0501                	addi	a0,a0,0
     c74:	030c                	addi	a1,sp,384
     c76:	0902                	c.slli64	s2
     c78:	000c                	.insn	2, 0x000c
     c7a:	0501                	addi	a0,a0,0
     c7c:	0305                	addi	t1,t1,1
     c7e:	0900                	addi	s0,sp,144
     c80:	0004                	.insn	2, 0x0004
     c82:	0501                	addi	a0,a0,0
     c84:	0316                	slli	t1,t1,0x5
     c86:	0901                	addi	s2,s2,0
     c88:	0002                	c.slli64	zero
     c8a:	0501                	addi	a0,a0,0
     c8c:	0309                	addi	t1,t1,2
     c8e:	0900                	addi	s0,sp,144
     c90:	000a                	c.slli	zero,0x2
     c92:	0501                	addi	a0,a0,0
     c94:	0022                	c.slli	zero,0x8
     c96:	0402                	c.slli64	s0
     c98:	097f0303          	lb	t1,151(t5)
     c9c:	000a                	c.slli	zero,0x2
     c9e:	0501                	addi	a0,a0,0
     ca0:	0014                	.insn	2, 0x0014
     ca2:	0402                	c.slli64	s0
     ca4:	0301                	addi	t1,t1,0
     ca6:	0900                	addi	s0,sp,144
     ca8:	000a                	c.slli	zero,0x2
     caa:	0501                	addi	a0,a0,0
     cac:	0018                	.insn	2, 0x0018
     cae:	0402                	c.slli64	s0
     cb0:	0301                	addi	t1,t1,0
     cb2:	0900                	addi	s0,sp,144
     cb4:	000e                	c.slli	zero,0x3
     cb6:	0501                	addi	a0,a0,0
     cb8:	030c                	addi	a1,sp,384
     cba:	0902                	c.slli64	s2
     cbc:	0002                	c.slli64	zero
     cbe:	0501                	addi	a0,a0,0
     cc0:	0301                	addi	t1,t1,0
     cc2:	0901                	addi	s2,s2,0
     cc4:	0004                	.insn	2, 0x0004
     cc6:	0901                	addi	s2,s2,0
     cc8:	000a                	c.slli	zero,0x2
     cca:	0100                	addi	s0,sp,128
     ccc:	c701                	beqz	a4,cd4 <_start-0x7ffff32c>
     cce:	05000003          	lb	zero,80(zero) # 50 <_start-0x7fffffb0>
     cd2:	0800                	addi	s0,sp,16
     cd4:	3700                	fld	fs0,40(a4)
     cd6:	0000                	unimp
     cd8:	0100                	addi	s0,sp,128
     cda:	0101                	addi	sp,sp,0
     cdc:	000d0efb          	.insn	4, 0x000d0efb
     ce0:	0101                	addi	sp,sp,0
     ce2:	0101                	addi	sp,sp,0
     ce4:	0000                	unimp
     ce6:	0100                	addi	s0,sp,128
     ce8:	0000                	unimp
     cea:	0101                	addi	sp,sp,0
     cec:	1f01                	addi	t5,t5,-32
     cee:	00000003          	lb	zero,0(zero) # 0 <_start-0x80000000>
     cf2:	bc00                	fsd	fs0,56(s0)
     cf4:	0000                	unimp
     cf6:	c700                	sw	s0,8(a4)
     cf8:	0000                	unimp
     cfa:	0200                	addi	s0,sp,256
     cfc:	1f01                	addi	t5,t5,-32
     cfe:	0f02                	c.slli64	t5
     d00:	00012003          	lw	zero,0(sp)
     d04:	0100                	addi	s0,sp,128
     d06:	0120                	addi	s0,sp,136
     d08:	0000                	unimp
     d0a:	0301                	addi	t1,t1,0
     d0c:	0001                	nop
     d0e:	0200                	addi	s0,sp,256
     d10:	0105                	addi	sp,sp,1
     d12:	0900                	addi	s0,sp,144
     d14:	7202                	ld	tp,32(sp)
     d16:	000c                	.insn	2, 0x000c
     d18:	0080                	addi	s0,sp,64
     d1a:	0000                	unimp
     d1c:	1600                	addi	s0,sp,800
     d1e:	0c05                	addi	s8,s8,1
     d20:	0c090203          	lb	tp,192(s2)
     d24:	0100                	addi	s0,sp,128
     d26:	0505                	addi	a0,a0,1
     d28:	04090003          	lb	zero,64(s2)
     d2c:	0100                	addi	s0,sp,128
     d2e:	2005                	.insn	2, 0x2005
     d30:	0200                	addi	s0,sp,256
     d32:	0304                	addi	s1,sp,384
     d34:	02090003          	lb	zero,32(s2)
     d38:	0100                	addi	s0,sp,128
     d3a:	1205                	addi	tp,tp,-31 # ffffffffffffffe1 <init_stack+0xffffffff7fffdfe1>
     d3c:	0200                	addi	s0,sp,256
     d3e:	0104                	addi	s1,sp,128
     d40:	0a090003          	lb	zero,160(s2)
     d44:	0100                	addi	s0,sp,128
     d46:	1605                	addi	a2,a2,-31
     d48:	0200                	addi	s0,sp,256
     d4a:	0104                	addi	s1,sp,128
     d4c:	0e090003          	lb	zero,224(s2)
     d50:	0100                	addi	s0,sp,128
     d52:	0c05                	addi	s8,s8,1
     d54:	02090203          	lb	tp,32(s2)
     d58:	0100                	addi	s0,sp,128
     d5a:	0105                	addi	sp,sp,1
     d5c:	04090103          	lb	sp,64(s2)
     d60:	0100                	addi	s0,sp,128
     d62:	0a090503          	lb	a0,160(s2)
     d66:	0100                	addi	s0,sp,128
     d68:	0b05                	addi	s6,s6,1
     d6a:	14090103          	lb	sp,320(s2)
     d6e:	0100                	addi	s0,sp,128
     d70:	08090103          	lb	sp,128(s2)
     d74:	0100                	addi	s0,sp,128
     d76:	0d05                	addi	s10,s10,1
     d78:	0200                	addi	s0,sp,256
     d7a:	0204                	addi	s1,sp,256
     d7c:	02090003          	lb	zero,32(s2)
     d80:	0100                	addi	s0,sp,128
     d82:	1405                	addi	s0,s0,-31
     d84:	0200                	addi	s0,sp,256
     d86:	0204                	addi	s1,sp,256
     d88:	0c090003          	lb	zero,192(s2)
     d8c:	0100                	addi	s0,sp,128
     d8e:	2505                	addiw	a0,a0,1
     d90:	0200                	addi	s0,sp,256
     d92:	0104                	addi	s1,sp,128
     d94:	02090003          	lb	zero,32(s2)
     d98:	0100                	addi	s0,sp,128
     d9a:	1c05                	addi	s8,s8,-31
     d9c:	0200                	addi	s0,sp,256
     d9e:	0104                	addi	s1,sp,128
     da0:	0c090003          	lb	zero,192(s2)
     da4:	0100                	addi	s0,sp,128
     da6:	2105                	addiw	sp,sp,1
     da8:	0200                	addi	s0,sp,256
     daa:	0104                	addi	s1,sp,128
     dac:	0c090003          	lb	zero,192(s2)
     db0:	0100                	addi	s0,sp,128
     db2:	1f05                	addi	t5,t5,-31
     db4:	0200                	addi	s0,sp,256
     db6:	0104                	addi	s1,sp,128
     db8:	04090003          	lb	zero,64(s2)
     dbc:	0100                	addi	s0,sp,128
     dbe:	1805                	addi	a6,a6,-31
     dc0:	0200                	addi	s0,sp,256
     dc2:	0104                	addi	s1,sp,128
     dc4:	04090003          	lb	zero,64(s2)
     dc8:	0100                	addi	s0,sp,128
     dca:	1405                	addi	s0,s0,-31
     dcc:	0200                	addi	s0,sp,256
     dce:	0104                	addi	s1,sp,128
     dd0:	04090003          	lb	zero,64(s2)
     dd4:	0100                	addi	s0,sp,128
     dd6:	0b05                	addi	s6,s6,1
     dd8:	02090203          	lb	tp,32(s2)
     ddc:	0100                	addi	s0,sp,128
     dde:	0d05                	addi	s10,s10,1
     de0:	02090103          	lb	sp,32(s2)
     de4:	0100                	addi	s0,sp,128
     de6:	1005                	c.nop	-31
     de8:	0c090003          	lb	zero,192(s2)
     dec:	0100                	addi	s0,sp,128
     dee:	0d05                	addi	s10,s10,1
     df0:	04097f03          	.insn	4, 0x04097f03
     df4:	0100                	addi	s0,sp,128
     df6:	1005                	c.nop	-31
     df8:	0c090003          	lb	zero,192(s2)
     dfc:	0100                	addi	s0,sp,128
     dfe:	0c05                	addi	s8,s8,1
     e00:	02090203          	lb	tp,32(s2)
     e04:	0100                	addi	s0,sp,128
     e06:	0105                	addi	sp,sp,1
     e08:	04090103          	lb	sp,64(s2)
     e0c:	0100                	addi	s0,sp,128
     e0e:	0a090603          	lb	a2,160(s2)
     e12:	0100                	addi	s0,sp,128
     e14:	0b05                	addi	s6,s6,1
     e16:	10090103          	lb	sp,256(s2)
     e1a:	0100                	addi	s0,sp,128
     e1c:	08090103          	lb	sp,128(s2)
     e20:	0100                	addi	s0,sp,128
     e22:	0d05                	addi	s10,s10,1
     e24:	02090103          	lb	sp,32(s2)
     e28:	0100                	addi	s0,sp,128
     e2a:	1205                	addi	tp,tp,-31 # ffffffffffffffe1 <init_stack+0xffffffff7fffdfe1>
     e2c:	0c090003          	lb	zero,192(s2)
     e30:	0100                	addi	s0,sp,128
     e32:	1005                	c.nop	-31
     e34:	08090003          	lb	zero,128(s2)
     e38:	0100                	addi	s0,sp,128
     e3a:	0c05                	addi	s8,s8,1
     e3c:	04097f03          	.insn	4, 0x04097f03
     e40:	0100                	addi	s0,sp,128
     e42:	0a090203          	lb	tp,160(s2)
     e46:	0100                	addi	s0,sp,128
     e48:	0105                	addi	sp,sp,1
     e4a:	04090103          	lb	sp,64(s2)
     e4e:	0100                	addi	s0,sp,128
     e50:	0a090503          	lb	a0,160(s2)
     e54:	0100                	addi	s0,sp,128
     e56:	0b05                	addi	s6,s6,1
     e58:	14090103          	lb	sp,320(s2)
     e5c:	0100                	addi	s0,sp,128
     e5e:	0a05                	addi	s4,s4,1
     e60:	02090103          	lb	sp,32(s2)
     e64:	0100                	addi	s0,sp,128
     e66:	1005                	c.nop	-31
     e68:	0a090003          	lb	zero,160(s2)
     e6c:	0100                	addi	s0,sp,128
     e6e:	1605                	addi	a2,a2,-31
     e70:	0a090003          	lb	zero,160(s2)
     e74:	0100                	addi	s0,sp,128
     e76:	1905                	addi	s2,s2,-31
     e78:	0a097f03          	.insn	4, 0x0a097f03
     e7c:	0100                	addi	s0,sp,128
     e7e:	1505                	addi	a0,a0,-31
     e80:	0200                	addi	s0,sp,256
     e82:	0104                	addi	s1,sp,128
     e84:	06090003          	lb	zero,96(s2)
     e88:	0100                	addi	s0,sp,128
     e8a:	1205                	addi	tp,tp,-31 # ffffffffffffffe1 <init_stack+0xffffffff7fffdfe1>
     e8c:	0200                	addi	s0,sp,256
     e8e:	0104                	addi	s1,sp,128
     e90:	08090003          	lb	zero,128(s2)
     e94:	0100                	addi	s0,sp,128
     e96:	1c05                	addi	s8,s8,-31
     e98:	0200                	addi	s0,sp,256
     e9a:	0204                	addi	s1,sp,256
     e9c:	02090003          	lb	zero,32(s2)
     ea0:	0100                	addi	s0,sp,128
     ea2:	2305                	addiw	t1,t1,1
     ea4:	0200                	addi	s0,sp,256
     ea6:	0204                	addi	s1,sp,256
     ea8:	08090003          	lb	zero,128(s2)
     eac:	0100                	addi	s0,sp,128
     eae:	1905                	addi	s2,s2,-31
     eb0:	0200                	addi	s0,sp,256
     eb2:	0204                	addi	s1,sp,256
     eb4:	08090003          	lb	zero,128(s2)
     eb8:	0100                	addi	s0,sp,128
     eba:	0805                	addi	a6,a6,1
     ebc:	04090203          	lb	tp,64(s2)
     ec0:	0100                	addi	s0,sp,128
     ec2:	1005                	c.nop	-31
     ec4:	06090103          	lb	sp,96(s2)
     ec8:	0100                	addi	s0,sp,128
     eca:	0c05                	addi	s8,s8,1
     ecc:	04090103          	lb	sp,64(s2)
     ed0:	0100                	addi	s0,sp,128
     ed2:	1205                	addi	tp,tp,-31 # ffffffffffffffe1 <init_stack+0xffffffff7fffdfe1>
     ed4:	0c090003          	lb	zero,192(s2)
     ed8:	0100                	addi	s0,sp,128
     eda:	1005                	c.nop	-31
     edc:	0a090003          	lb	zero,160(s2)
     ee0:	0100                	addi	s0,sp,128
     ee2:	0105                	addi	sp,sp,1
     ee4:	06090103          	lb	sp,96(s2)
     ee8:	0100                	addi	s0,sp,128
     eea:	0a090503          	lb	a0,160(s2)
     eee:	0100                	addi	s0,sp,128
     ef0:	0905                	addi	s2,s2,1
     ef2:	16090103          	lb	sp,352(s2)
     ef6:	0100                	addi	s0,sp,128
     ef8:	08090203          	lb	tp,128(s2)
     efc:	0100                	addi	s0,sp,128
     efe:	0305                	addi	t1,t1,1
     f00:	04090003          	lb	zero,64(s2)
     f04:	0100                	addi	s0,sp,128
     f06:	0905                	addi	s2,s2,1
     f08:	02090103          	lb	sp,32(s2)
     f0c:	0100                	addi	s0,sp,128
     f0e:	0d05                	addi	s10,s10,1
     f10:	0a090003          	lb	zero,160(s2)
     f14:	0100                	addi	s0,sp,128
     f16:	1605                	addi	a2,a2,-31
     f18:	0200                	addi	s0,sp,256
     f1a:	0304                	addi	s1,sp,384
     f1c:	0c097f03          	.insn	4, 0x0c097f03
     f20:	0100                	addi	s0,sp,128
     f22:	1005                	c.nop	-31
     f24:	0200                	addi	s0,sp,256
     f26:	0104                	addi	s1,sp,128
     f28:	0a090003          	lb	zero,160(s2)
     f2c:	0100                	addi	s0,sp,128
     f2e:	0a05                	addi	s4,s4,1
     f30:	0c090303          	lb	t1,192(s2)
     f34:	0100                	addi	s0,sp,128
     f36:	0105                	addi	sp,sp,1
     f38:	04090103          	lb	sp,64(s2)
     f3c:	0100                	addi	s0,sp,128
     f3e:	0a090503          	lb	a0,160(s2)
     f42:	0100                	addi	s0,sp,128
     f44:	0605                	addi	a2,a2,1
     f46:	14090303          	lb	t1,320(s2)
     f4a:	0100                	addi	s0,sp,128
     f4c:	08090103          	lb	sp,128(s2)
     f50:	0100                	addi	s0,sp,128
     f52:	0805                	addi	a6,a6,1
     f54:	08090103          	lb	sp,128(s2)
     f58:	0100                	addi	s0,sp,128
     f5a:	02090103          	lb	sp,32(s2)
     f5e:	0100                	addi	s0,sp,128
     f60:	0f05                	addi	t5,t5,1
     f62:	08090003          	lb	zero,128(s2)
     f66:	0100                	addi	s0,sp,128
     f68:	0705                	addi	a4,a4,1
     f6a:	08090003          	lb	zero,128(s2)
     f6e:	0100                	addi	s0,sp,128
     f70:	0e05                	addi	t3,t3,1
     f72:	04090103          	lb	sp,64(s2)
     f76:	0100                	addi	s0,sp,128
     f78:	1405                	addi	s0,s0,-31
     f7a:	0c090003          	lb	zero,192(s2)
     f7e:	0100                	addi	s0,sp,128
     f80:	1205                	addi	tp,tp,-31 # ffffffffffffffe1 <init_stack+0xffffffff7fffdfe1>
     f82:	0a090003          	lb	zero,160(s2)
     f86:	0100                	addi	s0,sp,128
     f88:	0705                	addi	a4,a4,1
     f8a:	08090103          	lb	sp,128(s2)
     f8e:	0100                	addi	s0,sp,128
     f90:	0d05                	addi	s10,s10,1
     f92:	0a090003          	lb	zero,160(s2)
     f96:	0100                	addi	s0,sp,128
     f98:	0a05                	addi	s4,s4,1
     f9a:	0a097d03          	.insn	4, 0x0a097d03
     f9e:	0100                	addi	s0,sp,128
     fa0:	0d05                	addi	s10,s10,1
     fa2:	0c090003          	lb	zero,192(s2)
     fa6:	0100                	addi	s0,sp,128
     fa8:	0a05                	addi	s4,s4,1
     faa:	02090603          	lb	a2,32(s2)
     fae:	0100                	addi	s0,sp,128
     fb0:	0105                	addi	sp,sp,1
     fb2:	02090103          	lb	sp,32(s2)
     fb6:	0100                	addi	s0,sp,128
     fb8:	0a090503          	lb	a0,160(s2)
     fbc:	0100                	addi	s0,sp,128
     fbe:	0505                	addi	a0,a0,1
     fc0:	14090403          	lb	s0,320(s2)
     fc4:	0100                	addi	s0,sp,128
     fc6:	0c05                	addi	s8,s8,1
     fc8:	06090103          	lb	sp,96(s2)
     fcc:	0100                	addi	s0,sp,128
     fce:	0505                	addi	a0,a0,1
     fd0:	06090203          	lb	tp,96(s2)
     fd4:	0100                	addi	s0,sp,128
     fd6:	08090103          	lb	sp,128(s2)
     fda:	0100                	addi	s0,sp,128
     fdc:	08090103          	lb	sp,128(s2)
     fe0:	0100                	addi	s0,sp,128
     fe2:	1105                	addi	sp,sp,-31
     fe4:	0200                	addi	s0,sp,256
     fe6:	0104                	addi	s1,sp,128
     fe8:	0c090003          	lb	zero,192(s2)
     fec:	0100                	addi	s0,sp,128
     fee:	0c05                	addi	s8,s8,1
     ff0:	0200                	addi	s0,sp,256
     ff2:	0104                	addi	s1,sp,128
     ff4:	0a090003          	lb	zero,160(s2)
     ff8:	0100                	addi	s0,sp,128
     ffa:	0705                	addi	a4,a4,1
     ffc:	08090103          	lb	sp,128(s2)
    1000:	0100                	addi	s0,sp,128
    1002:	0e090103          	lb	sp,224(s2)
    1006:	0100                	addi	s0,sp,128
    1008:	0a05                	addi	s4,s4,1
    100a:	0e090103          	lb	sp,224(s2)
    100e:	0100                	addi	s0,sp,128
    1010:	0c05                	addi	s8,s8,1
    1012:	02090103          	lb	sp,32(s2)
    1016:	0100                	addi	s0,sp,128
    1018:	0e05                	addi	t3,t3,1
    101a:	14090003          	lb	zero,320(s2)
    101e:	0100                	addi	s0,sp,128
    1020:	0c05                	addi	s8,s8,1
    1022:	08090003          	lb	zero,128(s2)
    1026:	0100                	addi	s0,sp,128
    1028:	08097f03          	.insn	4, 0x08097f03
    102c:	0100                	addi	s0,sp,128
    102e:	0f05                	addi	t5,t5,1
    1030:	0c090003          	lb	zero,192(s2)
    1034:	0100                	addi	s0,sp,128
    1036:	0505                	addi	a0,a0,1
    1038:	02097d03          	.insn	4, 0x02097d03
    103c:	0100                	addi	s0,sp,128
    103e:	1005                	c.nop	-31
    1040:	02090703          	lb	a4,32(s2)
    1044:	0100                	addi	s0,sp,128
    1046:	0905                	addi	s2,s2,1
    1048:	0c090003          	lb	zero,192(s2)
    104c:	0100                	addi	s0,sp,128
    104e:	0e05                	addi	t3,t3,1
    1050:	0c090003          	lb	zero,192(s2)
    1054:	0100                	addi	s0,sp,128
    1056:	0c05                	addi	s8,s8,1
    1058:	04090003          	lb	zero,64(s2)
    105c:	0100                	addi	s0,sp,128
    105e:	04097f03          	.insn	4, 0x04097f03
    1062:	0100                	addi	s0,sp,128
    1064:	0f05                	addi	t5,t5,1
    1066:	0c090003          	lb	zero,192(s2)
    106a:	0100                	addi	s0,sp,128
    106c:	0a05                	addi	s4,s4,1
    106e:	02090303          	lb	t1,32(s2)
    1072:	0100                	addi	s0,sp,128
    1074:	0105                	addi	sp,sp,1
    1076:	04090103          	lb	sp,64(s2)
    107a:	0100                	addi	s0,sp,128
    107c:	0a090503          	lb	a0,160(s2)
    1080:	0100                	addi	s0,sp,128
    1082:	0a05                	addi	s4,s4,1
    1084:	14090103          	lb	sp,320(s2)
    1088:	0100                	addi	s0,sp,128
    108a:	0105                	addi	sp,sp,1
    108c:	12090103          	lb	sp,288(s2)
    1090:	0100                	addi	s0,sp,128
    1092:	0a09                	addi	s4,s4,2
    1094:	0000                	unimp
    1096:	0101                	addi	sp,sp,0

Disassembly of section .debug_line_str:

0000000000000000 <.debug_line_str>:
   0:	6d6f682f          	.insn	4, 0x6d6f682f
   4:	2f65                	addiw	t5,t5,25
   6:	6c616877          	.insn	4, 0x6c616877
   a:	6665                	lui	a2,0x19
   c:	6c61                	lui	s8,0x18
   e:	2f6c                	fld	fa1,216(a4)
  10:	7250                	ld	a2,160(a2)
  12:	63656a6f          	jal	s4,56648 <_start-0x7ffa99b8>
  16:	7374                	ld	a3,224(a4)
  18:	6168572f          	.insn	4, 0x6168572f
  1c:	656c                	ld	a1,200(a0)
  1e:	6b00534f          	fnmadd.d	ft6,ft0,fa6,fa3,unknown
  22:	7265                	lui	tp,0xffff9
  24:	656e                	ld	a0,216(sp)
  26:	006c                	addi	a1,sp,12
  28:	72617473          	csrrci	s0,mhpmevent6h,2
  2c:	2e74                	fld	fa3,216(a2)
  2e:	656b0053          	.insn	4, 0x656b0053
  32:	6e72                	ld	t3,280(sp)
  34:	6c65                	lui	s8,0x19
  36:	7665642f          	.insn	4, 0x7665642f
  3a:	6369                	lui	t1,0x1a
  3c:	7365                	lui	t1,0xffff9
  3e:	7261752f          	.insn	4, 0x7261752f
  42:	2e74                	fld	fa3,216(a2)
  44:	656b0063          	beq	s6,s6,684 <_start-0x7ffff97c>
  48:	6e72                	ld	t3,280(sp)
  4a:	6c65                	lui	s8,0x19
  4c:	7665642f          	.insn	4, 0x7665642f
  50:	6369                	lui	t1,0x1a
  52:	7365                	lui	t1,0xffff9
  54:	6b00                	ld	s0,16(a4)
  56:	7265                	lui	tp,0xffff9
  58:	656e                	ld	a0,216(sp)
  5a:	2f6c                	fld	fa1,216(a4)
  5c:	6e69                	lui	t3,0x1a
  5e:	64756c63          	bltu	a0,t2,6b6 <_start-0x7ffff94a>
  62:	0065                	c.nop	25
  64:	6d6d6f63          	bltu	s10,s6,742 <_start-0x7ffff8be>
  68:	682e6e6f          	jal	t3,e66ea <_start-0x7ff19916>
  6c:	6b00                	ld	s0,16(a4)
  6e:	7265                	lui	tp,0xffff9
  70:	656e                	ld	a0,216(sp)
  72:	2f6c                	fld	fa1,216(a4)
  74:	6574                	ld	a3,200(a0)
  76:	742f7473          	csrrci	s0,0x742,30
  7a:	7365                	lui	t1,0xffff9
  7c:	6c74                	ld	a3,216(s0)
  7e:	6269                	lui	tp,0x1a
  80:	632e                	ld	t1,200(sp)
  82:	6b00                	ld	s0,16(a4)
  84:	7265                	lui	tp,0xffff9
  86:	656e                	ld	a0,216(sp)
  88:	2f6c                	fld	fa1,216(a4)
  8a:	6574                	ld	a3,200(a0)
  8c:	6b007473          	csrrci	s0,0x6b0,0
  90:	7265                	lui	tp,0xffff9
  92:	656e                	ld	a0,216(sp)
  94:	2f6c                	fld	fa1,216(a4)
  96:	616d                	addi	sp,sp,240
  98:	6e69                	lui	t3,0x1a
  9a:	632e                	ld	t1,200(sp)
  9c:	7400                	ld	s0,40(s0)
  9e:	7365                	lui	t1,0xffff9
  a0:	6474                	ld	a3,200(s0)
  a2:	6665                	lui	a2,0x19
  a4:	00682e73          	csrrs	t3,0x6,a6
  a8:	6e72656b          	.insn	4, 0x6e72656b
  ac:	6c65                	lui	s8,0x19
  ae:	62696c2f          	.insn	4, 0x62696c2f
  b2:	6972702f          	.insn	4, 0x6972702f
  b6:	746e                	ld	s0,248(sp)
  b8:	2e66                	fld	ft8,88(sp)
  ba:	656b0063          	beq	s6,s6,6fa <_start-0x7ffff906>
  be:	6e72                	ld	t3,280(sp)
  c0:	6c65                	lui	s8,0x19
  c2:	62696c2f          	.insn	4, 0x62696c2f
  c6:	2f00                	fld	fs0,24(a4)
  c8:	2f74706f          	j	47bbe <_start-0x7ffb8442>
  cc:	6972                	ld	s2,280(sp)
  ce:	2f766373          	csrrsi	t1,0x2f7,12
  d2:	696c                	ld	a1,208(a0)
  d4:	2f62                	fld	ft10,24(sp)
  d6:	2f636367          	.insn	4, 0x2f636367
  da:	6972                	ld	s2,280(sp)
  dc:	36766373          	csrrsi	t1,0x367,12
  e0:	2d34                	fld	fa3,88(a0)
  e2:	6e75                	lui	t3,0x1d
  e4:	776f6e6b          	.insn	4, 0x776f6e6b
  e8:	2d6e                	fld	fs10,216(sp)
  ea:	696c                	ld	a1,208(a0)
  ec:	756e                	ld	a0,248(sp)
  ee:	2d78                	fld	fa4,216(a0)
  f0:	2f756e67          	.insn	4, 0x2f756e67
  f4:	3431                	addiw	s0,s0,-20
  f6:	322e                	fld	ft4,232(sp)
  f8:	302e                	fld	ft0,232(sp)
  fa:	636e692f          	.insn	4, 0x636e692f
  fe:	756c                	ld	a1,232(a0)
 100:	6564                	ld	s1,200(a0)
 102:	7300                	ld	s0,32(a4)
 104:	6474                	ld	a3,200(s0)
 106:	6564                	ld	s1,200(a0)
 108:	2e66                	fld	ft8,88(sp)
 10a:	0068                	addi	a0,sp,12
 10c:	61647473          	csrrci	s0,0x616,8
 110:	6772                	ld	a4,280(sp)
 112:	682e                	ld	a6,200(sp)
 114:	6b00                	ld	s0,16(a4)
 116:	7265                	lui	tp,0xffff9
 118:	656e                	ld	a0,216(sp)
 11a:	2f6c                	fld	fa1,216(a4)
 11c:	696c                	ld	a1,208(a0)
 11e:	2f62                	fld	ft10,24(sp)
 120:	69727473          	csrrci	s0,0x697,4
 124:	676e                	ld	a4,216(sp)
 126:	632e                	ld	t1,200(sp)
	...

Disassembly of section .debug_info:

0000000000000000 <.debug_info>:
   0:	0024                	addi	s1,sp,8
   2:	0000                	unimp
   4:	0005                	c.nop	1
   6:	0801                	addi	a6,a6,0
   8:	0000                	unimp
   a:	0000                	unimp
   c:	0001                	nop
   e:	0000                	unimp
  10:	0000                	unimp
  12:	0000                	unimp
  14:	0080                	addi	s0,sp,64
  16:	0000                	unimp
  18:	5000                	lw	s0,32(s0)
  1a:	0000                	unimp
  1c:	0000                	unimp
  1e:	0000000f          	fence	unknown,unknown
  22:	0030                	addi	a2,sp,8
  24:	0000                	unimp
  26:	8001                	c.srli64	s0
  28:	00a4                	addi	s1,sp,72
  2a:	0000                	unimp
  2c:	0005                	c.nop	1
  2e:	0801                	addi	a6,a6,0
  30:	0014                	.insn	2, 0x0014
  32:	0000                	unimp
  34:	5e02                	lw	t3,32(sp)
  36:	0000                	unimp
  38:	1d00                	addi	s0,sp,688
  3a:	0030                	addi	a2,sp,8
  3c:	0000                	unimp
  3e:	0000                	unimp
  40:	0000                	unimp
  42:	0050                	addi	a2,sp,4
  44:	8000                	.insn	2, 0x8000
  46:	0000                	unimp
  48:	0000                	unimp
  4a:	009a                	slli	ra,ra,0x6
  4c:	0000                	unimp
  4e:	0000                	unimp
  50:	0000                	unimp
  52:	00b2                	slli	ra,ra,0xc
  54:	0000                	unimp
  56:	0801                	addi	a6,a6,0
  58:	00003e07          	fld	ft8,0(zero) # 0 <_start-0x80000000>
  5c:	0100                	addi	s0,sp,128
  5e:	0704                	addi	s1,sp,896
  60:	00000043          	fmadd.s	ft0,ft0,ft0,ft0,rne
  64:	0201                	addi	tp,tp,0 # ffffffffffff9000 <init_stack+0xffffffff7fff7000>
  66:	00011207          	.insn	4, 0x00011207
  6a:	0300                	addi	s0,sp,384
  6c:	0139                	addi	sp,sp,14
  6e:	0000                	unimp
  70:	0802                	c.slli64	a6
  72:	00004f17          	auipc	t5,0x4
  76:	0100                	addi	s0,sp,128
  78:	0801                	addi	a6,a6,0
  7a:	0050                	addi	a2,sp,4
  7c:	0000                	unimp
  7e:	2f04                	fld	fs1,24(a4)
  80:	0001                	nop
  82:	0100                	addi	s0,sp,128
  84:	012d                	addi	sp,sp,11
  86:	0086                	slli	ra,ra,0x1
  88:	0000                	unimp
  8a:	00ac                	addi	a1,sp,72
  8c:	8000                	.insn	2, 0x8000
  8e:	0000                	unimp
  90:	0000                	unimp
  92:	003e                	c.slli	zero,0xf
  94:	0000                	unimp
  96:	0000                	unimp
  98:	0000                	unimp
  9a:	9c01                	subw	s0,s0,s0
  9c:	0086                	slli	ra,ra,0x1
  9e:	0000                	unimp
  a0:	6305                	lui	t1,0x1
  a2:	0100                	addi	s0,sp,128
  a4:	102d                	c.nop	-21
  a6:	0086                	slli	ra,ra,0x1
  a8:	0000                	unimp
  aa:	9102                	jalr	sp
  ac:	0101006f          	j	100bc <_start-0x7ffeff44>
  b0:	5908                	lw	a0,48(a0)
  b2:	0000                	unimp
  b4:	0600                	addi	s0,sp,768
  b6:	0125                	addi	sp,sp,9
  b8:	0000                	unimp
  ba:	1801                	addi	a6,a6,-32
  bc:	5001                	c.li	zero,-32
  be:	0000                	unimp
  c0:	0080                	addi	s0,sp,64
  c2:	0000                	unimp
  c4:	5c00                	lw	s0,56(s0)
  c6:	0000                	unimp
  c8:	0000                	unimp
  ca:	0000                	unimp
  cc:	0100                	addi	s0,sp,128
  ce:	009c                	addi	a5,sp,64
  d0:	0091                	addi	ra,ra,4
  d2:	0000                	unimp
  d4:	0005                	c.nop	1
  d6:	0801                	addi	a6,a6,0
  d8:	00000087          	.insn	4, 0x0087
  dc:	5e02                	lw	t3,32(sp)
  de:	0000                	unimp
  e0:	1d00                	addi	s0,sp,688
  e2:	006d                	c.nop	27
  e4:	0000                	unimp
  e6:	0000                	unimp
  e8:	0000                	unimp
  ea:	00ea                	slli	ra,ra,0x1a
  ec:	8000                	.insn	2, 0x8000
  ee:	0000                	unimp
  f0:	0000                	unimp
  f2:	0066                	c.slli	zero,0x19
  f4:	0000                	unimp
  f6:	0000                	unimp
  f8:	0000                	unimp
  fa:	0175                	addi	sp,sp,29
  fc:	0000                	unimp
  fe:	0801                	addi	a6,a6,0
 100:	5c05                	li	s8,-31
 102:	0001                	nop
 104:	0100                	addi	s0,sp,128
 106:	0708                	addi	a0,sp,896
 108:	003e                	c.slli	zero,0xf
 10a:	0000                	unimp
 10c:	69050403          	lb	s0,1680(a0)
 110:	746e                	ld	s0,248(sp)
 112:	0100                	addi	s0,sp,128
 114:	0508                	addi	a0,sp,640
 116:	00000157          	.insn	4, 0x0157
 11a:	1001                	c.nop	-32
 11c:	4b04                	lw	s1,16(a4)
 11e:	0001                	nop
 120:	0400                	addi	s0,sp,512
 122:	0144                	addi	s1,sp,132
 124:	0000                	unimp
 126:	1802                	slli	a6,a6,0x20
 128:	3c11                	addiw	s8,s8,-28 # 18fe4 <_start-0x7ffe701c>
 12a:	0000                	unimp
 12c:	6800                	ld	s0,16(s0)
 12e:	0000                	unimp
 130:	0500                	addi	s0,sp,640
 132:	0068                	addi	a0,sp,12
 134:	0000                	unimp
 136:	0006                	c.slli	zero,0x1
 138:	00750807          	.insn	4, 0x00750807
 13c:	0000                	unimp
 13e:	0101                	addi	sp,sp,0
 140:	5908                	lw	a0,48(a0)
 142:	0000                	unimp
 144:	0800                	addi	s0,sp,16
 146:	006e                	c.slli	zero,0x1b
 148:	0000                	unimp
 14a:	3f09                	addiw	t5,t5,-30 # 4054 <_start-0x7fffbfac>
 14c:	0001                	nop
 14e:	0100                	addi	s0,sp,128
 150:	0105                	addi	sp,sp,1
 152:	00ea                	slli	ra,ra,0x1a
 154:	8000                	.insn	2, 0x8000
 156:	0000                	unimp
 158:	0000                	unimp
 15a:	0066                	c.slli	zero,0x19
 15c:	0000                	unimp
 15e:	0000                	unimp
 160:	0000                	unimp
 162:	9c01                	subw	s0,s0,s0
 164:	f900                	sd	s0,48(a0)
 166:	0000                	unimp
 168:	0500                	addi	s0,sp,640
 16a:	0100                	addi	s0,sp,128
 16c:	fb08                	sd	a0,48(a4)
 16e:	0000                	unimp
 170:	0200                	addi	s0,sp,256
 172:	005e                	c.slli	zero,0x17
 174:	0000                	unimp
 176:	8f1d                	sub	a4,a4,a5
 178:	0000                	unimp
 17a:	0000                	unimp
 17c:	0000                	unimp
 17e:	5000                	lw	s0,32(s0)
 180:	0001                	nop
 182:	0080                	addi	s0,sp,64
 184:	0000                	unimp
 186:	2800                	fld	fs0,16(s0)
 188:	0000                	unimp
 18a:	0000                	unimp
 18c:	0000                	unimp
 18e:	ee00                	sd	s0,24(a2)
 190:	0001                	nop
 192:	0100                	addi	s0,sp,128
 194:	0708                	addi	a0,sp,896
 196:	003e                	c.slli	zero,0xf
 198:	0000                	unimp
 19a:	0401                	addi	s0,s0,0
 19c:	00004307          	.insn	4, 0x4307
 1a0:	0100                	addi	s0,sp,128
 1a2:	0702                	c.slli64	a4
 1a4:	0112                	slli	sp,sp,0x4
 1a6:	0000                	unimp
 1a8:	0101                	addi	sp,sp,0
 1aa:	5008                	lw	a0,32(s0)
 1ac:	0000                	unimp
 1ae:	0100                	addi	s0,sp,128
 1b0:	0508                	addi	a0,sp,640
 1b2:	015c                	addi	a5,sp,132
 1b4:	0000                	unimp
 1b6:	69050403          	lb	s0,1680(a0)
 1ba:	746e                	ld	s0,248(sp)
 1bc:	0100                	addi	s0,sp,128
 1be:	0508                	addi	a0,sp,640
 1c0:	00000157          	.insn	4, 0x0157
 1c4:	1001                	c.nop	-32
 1c6:	4b04                	lw	s1,16(a4)
 1c8:	0001                	nop
 1ca:	0400                	addi	s0,sp,512
 1cc:	00000077          	.insn	4, 0x0077
 1d0:	00000077          	.insn	4, 0x0077
 1d4:	2e05                	addiw	t3,t3,1 # 1d001 <_start-0x7ffe2fff>
 1d6:	0000                	unimp
 1d8:	ff00                	sd	s0,56(a4)
 1da:	0101000f          	.insn	4, 0x0101000f
 1de:	5908                	lw	a0,48(a0)
 1e0:	0000                	unimp
 1e2:	0600                	addi	s0,sp,768
 1e4:	017e                	slli	sp,sp,0x1f
 1e6:	0000                	unimp
 1e8:	0a01                	addi	s4,s4,0
 1ea:	6606                	ld	a2,64(sp)
 1ec:	0000                	unimp
 1ee:	0000                	unimp
 1f0:	0910                	addi	a2,sp,144
 1f2:	00200003          	lb	zero,2(zero) # 2 <_start-0x7ffffffe>
 1f6:	0080                	addi	s0,sp,64
 1f8:	0000                	unimp
 1fa:	0700                	addi	s0,sp,896
 1fc:	0000016f          	jal	sp,1fc <_start-0x7ffffe04>
 200:	0b01                	addi	s6,s6,0
 202:	0000ac07          	flw	fs8,0(ra)
 206:	0900                	addi	s0,sp,144
 208:	00140003          	lb	zero,1(s0)
 20c:	0080                	addi	s0,sp,64
 20e:	0000                	unimp
 210:	0800                	addi	s0,sp,16
 212:	7708                	ld	a0,40(a4)
 214:	0000                	unimp
 216:	0900                	addi	s0,sp,144
 218:	0000013f c00d0402 	.insn	8, 0xc00d04020000013f
 220:	0000                	unimp
 222:	0a00                	addi	s0,sp,272
 224:	0b00                	addi	s0,sp,400
 226:	0165                	addi	sp,sp,25
 228:	0000                	unimp
 22a:	51111903          	lh	s2,1297(sp)
 22e:	0000                	unimp
 230:	d600                	sw	s0,40(a2)
 232:	0000                	unimp
 234:	0c00                	addi	s0,sp,528
 236:	00ac                	addi	a1,sp,72
 238:	0000                	unimp
 23a:	0d00                	addi	s0,sp,656
 23c:	0125                	addi	sp,sp,9
 23e:	0000                	unimp
 240:	0e110503          	lb	a0,225(sp)
 244:	016a                	slli	sp,sp,0x1a
 246:	0000                	unimp
 248:	0e01                	addi	t3,t3,0
 24a:	5101                	li	sp,-32
 24c:	0000                	unimp
 24e:	5000                	lw	s0,32(s0)
 250:	0001                	nop
 252:	0080                	addi	s0,sp,64
 254:	0000                	unimp
 256:	2800                	fld	fs0,16(s0)
 258:	0000                	unimp
 25a:	0000                	unimp
 25c:	0000                	unimp
 25e:	0100                	addi	s0,sp,128
 260:	009c                	addi	a5,sp,64
 262:	0000042f          	.insn	4, 0x042f
 266:	0005                	c.nop	1
 268:	0801                	addi	a6,a6,0
 26a:	000001cb          	fnmsub.s	ft3,ft0,ft0,ft0,rne
 26e:	5e0e                	lw	t3,224(sp)
 270:	0000                	unimp
 272:	1d00                	addi	s0,sp,688
 274:	00a8                	addi	a0,sp,72
 276:	0000                	unimp
 278:	0000                	unimp
 27a:	0000                	unimp
 27c:	0178                	addi	a4,sp,140
 27e:	8000                	.insn	2, 0x8000
 280:	0000                	unimp
 282:	0000                	unimp
 284:	0afa                	slli	s5,s5,0x1e
 286:	0000                	unimp
 288:	0000                	unimp
 28a:	0000                	unimp
 28c:	0270                	addi	a2,sp,268
 28e:	0000                	unimp
 290:	0804                	addi	s1,sp,16
 292:	5c05                	li	s8,-31
 294:	0001                	nop
 296:	0600                	addi	s0,sp,768
 298:	0190                	addi	a2,sp,192
 29a:	0000                	unimp
 29c:	d602                	sw	zero,44(sp)
 29e:	00004117          	auipc	sp,0x4
 2a2:	0400                	addi	s0,sp,512
 2a4:	0708                	addi	a0,sp,896
 2a6:	003e                	c.slli	zero,0xf
 2a8:	0000                	unimp
 2aa:	6905040f          	.insn	4, 0x6905040f
 2ae:	746e                	ld	s0,248(sp)
 2b0:	0400                	addi	s0,sp,512
 2b2:	0508                	addi	a0,sp,640
 2b4:	00000157          	.insn	4, 0x0157
 2b8:	1004                	addi	s1,sp,32
 2ba:	4b04                	lw	s1,16(a4)
 2bc:	0001                	nop
 2be:	0600                	addi	s0,sp,768
 2c0:	01c9                	addi	gp,gp,18
 2c2:	0000                	unimp
 2c4:	691b2803          	lw	a6,1681(s6)
 2c8:	0000                	unimp
 2ca:	1000                	addi	s0,sp,32
 2cc:	9708                	.insn	2, 0x9708
 2ce:	0001                	nop
 2d0:	0600                	addi	s0,sp,768
 2d2:	01d0                	addi	a2,sp,196
 2d4:	0000                	unimp
 2d6:	5d186703          	lwu	a4,1489(a6)
 2da:	0000                	unimp
 2dc:	0200                	addi	s0,sp,256
 2de:	0224                	addi	s1,sp,264
 2e0:	0000                	unimp
 2e2:	1414                	addi	a3,sp,544
 2e4:	0090                	addi	a2,sp,64
 2e6:	0000                	unimp
 2e8:	0309                	addi	t1,t1,2 # 1002 <_start-0x7fffeffe>
 2ea:	1408                	addi	a0,sp,544
 2ec:	8000                	.insn	2, 0x8000
 2ee:	0000                	unimp
 2f0:	0000                	unimp
 2f2:	00009c07          	.insn	4, 0x9c07
 2f6:	0400                	addi	s0,sp,512
 2f8:	0801                	addi	a6,a6,0
 2fa:	0059                	c.nop	22
 2fc:	0000                	unimp
 2fe:	9511                	srai	a0,a0,0x24
 300:	0000                	unimp
 302:	0200                	addi	s0,sp,256
 304:	01bd                	addi	gp,gp,15
 306:	0000                	unimp
 308:	1415                	addi	s0,s0,-27
 30a:	0090                	addi	a2,sp,64
 30c:	0000                	unimp
 30e:	0309                	addi	t1,t1,2
 310:	1410                	addi	a2,sp,544
 312:	8000                	.insn	2, 0x8000
 314:	0000                	unimp
 316:	0000                	unimp
 318:	2f09                	addiw	t5,t5,2
 31a:	0001                	nop
 31c:	0600                	addi	s0,sp,768
 31e:	0048                	addi	a0,sp,4
 320:	0000                	unimp
 322:	00ca                	slli	ra,ra,0x12
 324:	0000                	unimp
 326:	950a                	add	a0,a0,sp
 328:	0000                	unimp
 32a:	0000                	unimp
 32c:	fa09                	bnez	a2,23e <_start-0x7ffffdc2>
 32e:	0001                	nop
 330:	0a00                	addi	s0,sp,272
 332:	0035                	c.nop	13
 334:	0000                	unimp
 336:	00de                	slli	ra,ra,0x17
 338:	0000                	unimp
 33a:	900a                	c.add	zero,sp
 33c:	0000                	unimp
 33e:	0000                	unimp
 340:	6512                	ld	a0,256(sp)
 342:	0001                	nop
 344:	0100                	addi	s0,sp,128
 346:	0102                	c.slli64	sp
 348:	4801                	li	a6,0
 34a:	0000                	unimp
 34c:	2400                	fld	fs0,8(s0)
 34e:	000c                	.insn	2, 0x000c
 350:	0080                	addi	s0,sp,64
 352:	0000                	unimp
 354:	4e00                	lw	s0,24(a2)
 356:	0000                	unimp
 358:	0000                	unimp
 35a:	0000                	unimp
 35c:	0100                	addi	s0,sp,128
 35e:	209c                	fld	fa5,0(s1)
 360:	0001                	nop
 362:	1300                	addi	s0,sp,416
 364:	7562                	ld	a0,56(sp)
 366:	0066                	c.slli	zero,0x19
 368:	0201                	addi	tp,tp,0 # 0 <_start-0x80000000>
 36a:	0c01                	addi	s8,s8,0
 36c:	0120                	addi	s0,sp,136
 36e:	0000                	unimp
 370:	9102                	jalr	sp
 372:	1458                	addi	a4,sp,548
 374:	0069                	c.nop	26
 376:	0401                	addi	s0,s0,0
 378:	0901                	addi	s2,s2,0
 37a:	0048                	addi	a0,sp,4
 37c:	0000                	unimp
 37e:	9102                	jalr	sp
 380:	006c                	addi	a1,sp,12
 382:	00009507          	.insn	4, 0x9507
 386:	0b00                	addi	s0,sp,400
 388:	0144                	addi	s1,sp,132
 38a:	0000                	unimp
 38c:	48f6                	lw	a7,92(sp)
 38e:	0000                	unimp
 390:	a800                	fsd	fs0,16(s0)
 392:	0080000b          	.insn	4, 0x0080000b
 396:	0000                	unimp
 398:	7c00                	ld	s0,56(s0)
 39a:	0000                	unimp
 39c:	0000                	unimp
 39e:	0000                	unimp
 3a0:	0100                	addi	s0,sp,128
 3a2:	819c                	.insn	2, 0x819c
 3a4:	0001                	nop
 3a6:	0300                	addi	s0,sp,384
 3a8:	6d66                	ld	s10,88(sp)
 3aa:	0074                	addi	a3,sp,12
 3ac:	14f6                	slli	s1,s1,0x3d
 3ae:	0090                	addi	a2,sp,64
 3b0:	0000                	unimp
 3b2:	77989103          	lh	sp,1913(a7)
 3b6:	0115                	addi	sp,sp,5 # 42a3 <_start-0x7fffbd5d>
 3b8:	0069                	c.nop	26
 3ba:	09f8                	addi	a4,sp,220
 3bc:	0048                	addi	a0,sp,4
 3be:	0000                	unimp
 3c0:	7fac9103          	lh	sp,2042(s9)
 3c4:	6201                	.insn	2, 0x6201
 3c6:	6675                	lui	a2,0x1d
 3c8:	f900                	sd	s0,48(a0)
 3ca:	810a                	mv	sp,sp
 3cc:	0001                	nop
 3ce:	0300                	addi	s0,sp,384
 3d0:	a891                	j	424 <_start-0x7ffffbdc>
 3d2:	021f0277          	.insn	4, 0x021f0277
 3d6:	0000                	unimp
 3d8:	0dfa                	slli	s11,s11,0x1e
 3da:	0000006f          	j	3da <_start-0x7ffffc26>
 3de:	77a09103          	lh	sp,1914(ra)
 3e2:	0c00                	addi	s0,sp,528
 3e4:	0095                	addi	ra,ra,5
 3e6:	0000                	unimp
 3e8:	0192                	slli	gp,gp,0x4
 3ea:	0000                	unimp
 3ec:	4116                	lw	sp,68(sp)
 3ee:	0000                	unimp
 3f0:	ff00                	sd	s0,56(a4)
 3f2:	a90b0003          	lb	zero,-1392(s6)
 3f6:	0001                	nop
 3f8:	6d00                	ld	s0,24(a0)
 3fa:	0048                	addi	a0,sp,4
 3fc:	0000                	unimp
 3fe:	05a6                	slli	a1,a1,0x9
 400:	8000                	.insn	2, 0x8000
 402:	0000                	unimp
 404:	0000                	unimp
 406:	0602                	c.slli64	a2
 408:	0000                	unimp
 40a:	0000                	unimp
 40c:	0000                	unimp
 40e:	9c01                	subw	s0,s0,s0
 410:	02ac                	addi	a1,sp,328
 412:	0000                	unimp
 414:	74756f03          	lwu	t5,1863(a0)
 418:	6d00                	ld	s0,24(a0)
 41a:	2011                	.insn	2, 0x2011
 41c:	0001                	nop
 41e:	0300                	addi	s0,sp,384
 420:	a891                	j	474 <_start-0x7ffffb8c>
 422:	037f 006e 1d6d 0035 	.insn	10, 0x00351d6d006e037f
 42a:	0000 
 42c:	7fa09103          	lh	sp,2042(ra)
 430:	746d6603          	lwu	a2,1862(s10)
 434:	6d00                	ld	s0,24(a0)
 436:	902c                	.insn	2, 0x902c
 438:	0000                	unimp
 43a:	0300                	addi	s0,sp,384
 43c:	9891                	andi	s1,s1,-28
 43e:	037f 7061 6d00 6f39 	.insn	10, 0x6f396d007061037f
 446:	0000 
 448:	0300                	addi	s0,sp,384
 44a:	9091                	srli	s1,s1,0x24
 44c:	017f 6e63 0074 096f 	.insn	10, 0x0048096f00746e63017f
 454:	0048 
 456:	0000                	unimp
 458:	9102                	jalr	sp
 45a:	016c                	addi	a1,sp,140
 45c:	00727473          	csrrci	s0,0x7,4
 460:	0b70                	addi	a2,sp,412
 462:	0120                	addi	s0,sp,136
 464:	0000                	unimp
 466:	9102                	jalr	sp
 468:	1760                	addi	s0,sp,940
 46a:	01e2                	slli	gp,gp,0x18
 46c:	0000                	unimp
 46e:	7a01                	lui	s4,0xfffe0
 470:	fc09                	bnez	s0,38a <_start-0x7ffffc76>
 472:	0005                	c.nop	1
 474:	0080                	addi	s0,sp,64
 476:	0000                	unimp
 478:	0500                	addi	s0,sp,640
 47a:	05cc                	addi	a1,sp,708
 47c:	8000                	.insn	2, 0x8000
 47e:	0000                	unimp
 480:	0000                	unimp
 482:	0592                	slli	a1,a1,0x4
 484:	0000                	unimp
 486:	0000                	unimp
 488:	0000                	unimp
 48a:	0102                	c.slli64	sp
 48c:	0002                	c.slli64	zero
 48e:	7900                	ld	s0,48(a0)
 490:	480d                	li	a6,3
 492:	0000                	unimp
 494:	0200                	addi	s0,sp,256
 496:	5c91                	li	s9,-28
 498:	1302                	slli	t1,t1,0x20
 49a:	0002                	c.slli64	zero
 49c:	8200                	.insn	2, 0x8200
 49e:	480d                	li	a6,3
 4a0:	0000                	unimp
 4a2:	0200                	addi	s0,sp,256
 4a4:	5891                	li	a7,-28
 4a6:	d802                	sw	zero,48(sp)
 4a8:	0001                	nop
 4aa:	8e00                	.insn	2, 0x8e00
 4ac:	480d                	li	a6,3
 4ae:	0000                	unimp
 4b0:	0200                	addi	s0,sp,256
 4b2:	5491                	li	s1,-28
 4b4:	7605                	lui	a2,0xfffe1
 4b6:	0008                	.insn	2, 0x0008
 4b8:	0080                	addi	s0,sp,64
 4ba:	0000                	unimp
 4bc:	e800                	sd	s0,16(s0)
 4be:	0002                	c.slli64	zero
 4c0:	0000                	unimp
 4c2:	0000                	unimp
 4c4:	0100                	addi	s0,sp,128
 4c6:	17a30073          	.insn	4, 0x17a30073
 4ca:	0120                	addi	s0,sp,136
 4cc:	0000                	unimp
 4ce:	9102                	jalr	sp
 4d0:	0148                	addi	a0,sp,132
 4d2:	656c                	ld	a1,200(a0)
 4d4:	006e                	c.slli	zero,0x1b
 4d6:	15a5                	addi	a1,a1,-23
 4d8:	0048                	addi	a0,sp,4
 4da:	0000                	unimp
 4dc:	9102                	jalr	sp
 4de:	0140                	addi	s0,sp,132
 4e0:	7069                	c.lui	zero,0xffffa
 4e2:	c900                	sw	s0,16(a0)
 4e4:	00012017          	auipc	zero,0x12
 4e8:	0300                	addi	s0,sp,384
 4ea:	b891                	j	fffffffffffffd3e <init_stack+0xffffffff7fffdd3e>
 4ec:	057f 095c 8000 0000 	.insn	10, 0x8000095c057f
 4f4:	0000 
 4f6:	0042                	c.slli	zero,0x10
 4f8:	0000                	unimp
 4fa:	0000                	unimp
 4fc:	0000                	unimp
 4fe:	6901                	.insn	2, 0x6901
 500:	a700                	fsd	fs0,8(a4)
 502:	481a                	lw	a6,132(sp)
 504:	0000                	unimp
 506:	0200                	addi	s0,sp,256
 508:	4491                	li	s1,4
 50a:	0000                	unimp
 50c:	0000                	unimp
 50e:	070d                	addi	a4,a4,3
 510:	0002                	c.slli64	zero
 512:	2b00                	fld	fs0,16(a4)
 514:	0120                	addi	s0,sp,136
 516:	0000                	unimp
 518:	0244                	addi	s1,sp,260
 51a:	8000                	.insn	2, 0x8000
 51c:	0000                	unimp
 51e:	0000                	unimp
 520:	0362                	slli	t1,t1,0x18
 522:	0000                	unimp
 524:	0000                	unimp
 526:	0000                	unimp
 528:	9c01                	subw	s0,s0,s0
 52a:	0386                	slli	t2,t2,0x1
 52c:	0000                	unimp
 52e:	72747303          	.insn	4, 0x72747303
 532:	2b00                	fld	fs0,16(a4)
 534:	200e                	fld	ft0,192(sp)
 536:	0001                	nop
 538:	0300                	addi	s0,sp,384
 53a:	9891                	andi	s1,s1,-28
 53c:	037f 756e 006d 172b 	.insn	10, 0x0048172b006d756e037f
 544:	0048 
 546:	0000                	unimp
 548:	7f949103          	lh	sp,2041(s1)
 54c:	3908                	fld	fa0,48(a0)
 54e:	0002                	c.slli64	zero
 550:	2000                	fld	fs0,0(s0)
 552:	0048                	addi	a0,sp,4
 554:	0000                	unimp
 556:	7f909103          	lh	sp,2041(ra)
 55a:	d808                	sw	a0,48(s0)
 55c:	0001                	nop
 55e:	2a00                	fld	fs0,16(a2)
 560:	0048                	addi	a0,sp,4
 562:	0000                	unimp
 564:	7f8c9103          	lh	sp,2040(s9)
 568:	0e08                	addi	a0,sp,784
 56a:	0002                	c.slli64	zero
 56c:	3900                	fld	fs0,48(a0)
 56e:	0048                	addi	a0,sp,4
 570:	0000                	unimp
 572:	7f889103          	lh	sp,2040(a7)
 576:	6301                	.insn	2, 0x6301
 578:	2d00                	fld	fs0,24(a0)
 57a:	950a                	add	a0,a0,sp
 57c:	0000                	unimp
 57e:	0200                	addi	s0,sp,256
 580:	6391                	lui	t2,0x4
 582:	2f02                	fld	ft10,0(sp)
 584:	0002                	c.slli64	zero
 586:	2d00                	fld	fs0,24(a0)
 588:	9511                	srai	a0,a0,0x24
 58a:	0000                	unimp
 58c:	0200                	addi	s0,sp,256
 58e:	6f91                	lui	t6,0x4
 590:	e702                	sd	zero,392(sp)
 592:	0001                	nop
 594:	2d00                	fld	fs0,24(a0)
 596:	0003861b          	sext.w	a2,t2
 59a:	0300                	addi	s0,sp,384
 59c:	a891                	j	5f0 <_start-0x7ffffa10>
 59e:	017f 0069 092e 0048 	.insn	10, 0x0048092e0069017f
 5a6:	0000 
 5a8:	9102                	jalr	sp
 5aa:	0268                	addi	a0,sp,268
 5ac:	01f5                	addi	gp,gp,29
 5ae:	0000                	unimp
 5b0:	03960e2f          	.insn	4, 0x03960e2f
 5b4:	0000                	unimp
 5b6:	9102                	jalr	sp
 5b8:	025c                	addi	a5,sp,260
 5ba:	0189                	addi	gp,gp,2
 5bc:	0000                	unimp
 5be:	1130                	addi	a2,sp,168
 5c0:	0090                	addi	a2,sp,64
 5c2:	0000                	unimp
 5c4:	9102                	jalr	sp
 5c6:	0550                	addi	a2,sp,644
 5c8:	03aa                	slli	t2,t2,0xa
 5ca:	8000                	.insn	2, 0x8000
 5cc:	0000                	unimp
 5ce:	0000                	unimp
 5d0:	0054                	addi	a3,sp,4
 5d2:	0000                	unimp
 5d4:	0000                	unimp
 5d6:	0000                	unimp
 5d8:	3402                	fld	fs0,32(sp)
 5da:	0002                	c.slli64	zero
 5dc:	4500                	lw	s0,8(a0)
 5de:	9612                	add	a2,a2,tp
 5e0:	02000003          	lb	zero,32(zero) # 20 <_start-0x7fffffe0>
 5e4:	6491                	lui	s1,0x4
 5e6:	0000                	unimp
 5e8:	950c                	.insn	2, 0x950c
 5ea:	0000                	unimp
 5ec:	9600                	.insn	2, 0x9600
 5ee:	18000003          	lb	zero,384(zero) # 180 <_start-0x7ffffe80>
 5f2:	0041                	c.nop	16
 5f4:	0000                	unimp
 5f6:	04040023          	sb	zero,64(s0)
 5fa:	00004307          	.insn	4, 0x4307
 5fe:	1900                	addi	s0,sp,176
 600:	000001ef          	jal	gp,600 <_start-0x7ffffa00>
 604:	2201                	sext.w	tp,tp
 606:	f801                	bnez	s0,516 <_start-0x7ffffaea>
 608:	0001                	nop
 60a:	0080                	addi	s0,sp,64
 60c:	0000                	unimp
 60e:	4c00                	lw	s0,24(s0)
 610:	0000                	unimp
 612:	0000                	unimp
 614:	0000                	unimp
 616:	0100                	addi	s0,sp,128
 618:	f49c                	sd	a5,40(s1)
 61a:	03000003          	lb	zero,48(zero) # 30 <_start-0x7fffffd0>
 61e:	7562                	ld	a0,56(sp)
 620:	0066                	c.slli	zero,0x19
 622:	0d22                	slli	s10,s10,0x8
 624:	0120                	addi	s0,sp,136
 626:	0000                	unimp
 628:	9102                	jalr	sp
 62a:	0358                	addi	a4,sp,388
 62c:	006e                	c.slli	zero,0x1b
 62e:	1922                	slli	s2,s2,0x28
 630:	0035                	c.nop	13
 632:	0000                	unimp
 634:	9102                	jalr	sp
 636:	0550                	addi	a2,sp,644
 638:	0208                	addi	a0,sp,256
 63a:	8000                	.insn	2, 0x8000
 63c:	0000                	unimp
 63e:	0000                	unimp
 640:	0030                	addi	a2,sp,8
 642:	0000                	unimp
 644:	0000                	unimp
 646:	0000                	unimp
 648:	6901                	.insn	2, 0x6901
 64a:	2400                	fld	fs0,8(s0)
 64c:	480e                	lw	a6,192(sp)
 64e:	0000                	unimp
 650:	0200                	addi	s0,sp,256
 652:	6c91                	lui	s9,0x4
 654:	0000                	unimp
 656:	b30d                	j	378 <_start-0x7ffffc88>
 658:	0001                	nop
 65a:	1900                	addi	s0,sp,176
 65c:	0048                	addi	a0,sp,4
 65e:	0000                	unimp
 660:	0178                	addi	a4,sp,140
 662:	8000                	.insn	2, 0x8000
 664:	0000                	unimp
 666:	0000                	unimp
 668:	0080                	addi	s0,sp,64
 66a:	0000                	unimp
 66c:	0000                	unimp
 66e:	0000                	unimp
 670:	9c01                	subw	s0,s0,s0
 672:	042d                	addi	s0,s0,11
 674:	0000                	unimp
 676:	19007303          	.insn	4, 0x19007303
 67a:	2d18                	fld	fa4,24(a0)
 67c:	0004                	.insn	2, 0x0004
 67e:	0200                	addi	s0,sp,256
 680:	5891                	li	a7,-28
 682:	6901                	.insn	2, 0x6901
 684:	1b00                	addi	s0,sp,432
 686:	4809                	li	a6,2
 688:	0000                	unimp
 68a:	0200                	addi	s0,sp,256
 68c:	6c91                	lui	s9,0x4
 68e:	0700                	addi	s0,sp,896
 690:	0090                	addi	a2,sp,64
 692:	0000                	unimp
 694:	0600                	addi	s0,sp,768
 696:	05000003          	lb	zero,80(zero) # 50 <_start-0x7fffffb0>
 69a:	0100                	addi	s0,sp,128
 69c:	5308                	lw	a0,32(a4)
 69e:	07000003          	lb	zero,112(zero) # 70 <_start-0x7fffff90>
 6a2:	005e                	c.slli	zero,0x17
 6a4:	0000                	unimp
 6a6:	151d                	addi	a0,a0,-25
 6a8:	0001                	nop
 6aa:	0000                	unimp
 6ac:	0000                	unimp
 6ae:	7200                	ld	s0,32(a2)
 6b0:	000c                	.insn	2, 0x000c
 6b2:	0080                	addi	s0,sp,64
 6b4:	0000                	unimp
 6b6:	7c00                	ld	s0,56(s0)
 6b8:	00000003          	lb	zero,0(zero) # 0 <_start-0x80000000>
 6bc:	0000                	unimp
 6be:	cd00                	sw	s0,24(a0)
 6c0:	000c                	.insn	2, 0x000c
 6c2:	0400                	addi	s0,sp,512
 6c4:	0508                	addi	a0,sp,640
 6c6:	015c                	addi	a5,sp,132
 6c8:	0000                	unimp
 6ca:	9008                	.insn	2, 0x9008
 6cc:	0001                	nop
 6ce:	0200                	addi	s0,sp,256
 6d0:	17d6                	slli	a5,a5,0x35
 6d2:	0041                	c.nop	16
 6d4:	0000                	unimp
 6d6:	0804                	addi	s1,sp,16
 6d8:	00003e07          	fld	ft8,0(zero) # 0 <_start-0x80000000>
 6dc:	0900                	addi	s0,sp,144
 6de:	0504                	addi	s1,sp,640
 6e0:	6e69                	lui	t3,0x1a
 6e2:	0074                	addi	a3,sp,12
 6e4:	0804                	addi	s1,sp,16
 6e6:	5705                	li	a4,-31
 6e8:	0001                	nop
 6ea:	0400                	addi	s0,sp,512
 6ec:	0410                	addi	a2,sp,512
 6ee:	0000014b          	fnmsub.s	ft2,ft0,ft0,ft0,rne
 6f2:	5c0a                	lw	s8,160(sp)
 6f4:	0002                	c.slli64	zero
 6f6:	0100                	addi	s0,sp,128
 6f8:	0165                	addi	sp,sp,25
 6fa:	00a8                	addi	a0,sp,72
 6fc:	0000                	unimp
 6fe:	0fbe                	slli	t6,t6,0xf
 700:	8000                	.insn	2, 0x8000
 702:	0000                	unimp
 704:	0000                	unimp
 706:	0030                	addi	a2,sp,8
 708:	0000                	unimp
 70a:	0000                	unimp
 70c:	0000                	unimp
 70e:	9c01                	subw	s0,s0,s0
 710:	00a8                	addi	a0,sp,72
 712:	0000                	unimp
 714:	6401                	.insn	2, 0x6401
 716:	65007473          	csrrci	s0,0x650,0
 71a:	a80e                	fsd	ft3,16(sp)
 71c:	0000                	unimp
 71e:	0200                	addi	s0,sp,256
 720:	6891                	lui	a7,0x4
 722:	7301                	lui	t1,0xfffe0
 724:	6372                	ld	t1,280(sp)
 726:	6500                	ld	s0,8(a0)
 728:	aa1f 0000 0200      	.insn	6, 0x02000000aa1f
 72e:	6091                	lui	ra,0x4
 730:	6e01                	.insn	2, 0x6e01
 732:	6500                	ld	s0,8(a0)
 734:	0000352b          	.insn	4, 0x352b
 738:	0200                	addi	s0,sp,256
 73a:	5891                	li	a7,-28
 73c:	0b00                	addi	s0,sp,400
 73e:	0508                	addi	a0,sp,640
 740:	000000af          	.insn	4, 0x00af
 744:	020c                	addi	a1,sp,256
 746:	023e                	slli	tp,tp,0xf
 748:	0000                	unimp
 74a:	a84d                	j	7fc <_start-0x7ffff804>
 74c:	0000                	unimp
 74e:	e200                	sd	s0,0(a2)
 750:	000e                	c.slli	zero,0x3
 752:	0080                	addi	s0,sp,64
 754:	0000                	unimp
 756:	dc00                	sw	s0,56(s0)
 758:	0000                	unimp
 75a:	0000                	unimp
 75c:	0000                	unimp
 75e:	0100                	addi	s0,sp,128
 760:	119c                	addi	a5,sp,224
 762:	0001                	nop
 764:	0100                	addi	s0,sp,128
 766:	7364                	ld	s1,224(a4)
 768:	0074                	addi	a3,sp,12
 76a:	0f4d                	addi	t5,t5,19
 76c:	00a8                	addi	a0,sp,72
 76e:	0000                	unimp
 770:	9102                	jalr	sp
 772:	0158                	addi	a4,sp,132
 774:	00637273          	csrrci	tp,0x6,6
 778:	204d                	.insn	2, 0x204d
 77a:	00aa                	slli	ra,ra,0xa
 77c:	0000                	unimp
 77e:	9102                	jalr	sp
 780:	0150                	addi	a2,sp,132
 782:	006e                	c.slli	zero,0x1b
 784:	2c4d                	addiw	s8,s8,19
 786:	0035                	c.nop	13
 788:	0000                	unimp
 78a:	9102                	jalr	sp
 78c:	0348                	addi	a0,sp,388
 78e:	0f4f0073          	.insn	4, 0x0f4f0073
 792:	0111                	addi	sp,sp,4
 794:	0000                	unimp
 796:	9102                	jalr	sp
 798:	0368                	addi	a0,sp,396
 79a:	0064                	addi	s1,sp,12
 79c:	0950                	addi	a2,sp,148
 79e:	0122                	slli	sp,sp,0x8
 7a0:	0000                	unimp
 7a2:	9102                	jalr	sp
 7a4:	0060                	addi	s0,sp,12
 7a6:	1d05                	addi	s10,s10,-31
 7a8:	0001                	nop
 7aa:	0400                	addi	s0,sp,512
 7ac:	0801                	addi	a6,a6,0
 7ae:	0059                	c.nop	22
 7b0:	0000                	unimp
 7b2:	160d                	addi	a2,a2,-29 # fffffffffffe0fe3 <init_stack+0xffffffff7ffdefe3>
 7b4:	0001                	nop
 7b6:	0500                	addi	s0,sp,640
 7b8:	0116                	slli	sp,sp,0x5
 7ba:	0000                	unimp
 7bc:	4d02                	lw	s10,0(sp)
 7be:	0002                	c.slli64	zero
 7c0:	3c00                	fld	fs0,56(s0)
 7c2:	0048                	addi	a0,sp,4
 7c4:	0000                	unimp
 7c6:	0e5c                	addi	a5,sp,788
 7c8:	8000                	.insn	2, 0x8000
 7ca:	0000                	unimp
 7cc:	0000                	unimp
 7ce:	0086                	slli	ra,ra,0x1
 7d0:	0000                	unimp
 7d2:	0000                	unimp
 7d4:	0000                	unimp
 7d6:	9c01                	subw	s0,s0,s0
 7d8:	0188                	addi	a0,sp,192
 7da:	0000                	unimp
 7dc:	7601                	lui	a2,0xfffe0
 7de:	0031                	c.nop	12
 7e0:	143c                	addi	a5,sp,552
 7e2:	00aa                	slli	ra,ra,0xa
 7e4:	0000                	unimp
 7e6:	9102                	jalr	sp
 7e8:	0158                	addi	a4,sp,132
 7ea:	3276                	fld	ft4,376(sp)
 7ec:	3c00                	fld	fs0,56(s0)
 7ee:	aa24                	fsd	fs1,80(a2)
 7f0:	0000                	unimp
 7f2:	0200                	addi	s0,sp,256
 7f4:	5091                	li	ra,-28
 7f6:	6e01                	.insn	2, 0x6e01
 7f8:	3c00                	fld	fs0,56(s0)
 7fa:	0000352f          	amoadd.d	a0,zero,(zero)
 7fe:	0200                	addi	s0,sp,256
 800:	4891                	li	a7,4
 802:	00317303          	.insn	4, 0x00317303
 806:	0f3e                	slli	t5,t5,0xf
 808:	0111                	addi	sp,sp,4
 80a:	0000                	unimp
 80c:	9102                	jalr	sp
 80e:	0368                	addi	a0,sp,396
 810:	3e003273          	csrrc	tp,0x3e0,zero
 814:	1114                	addi	a3,sp,160
 816:	0001                	nop
 818:	0200                	addi	s0,sp,256
 81a:	6091                	lui	ra,0x4
 81c:	0200                	addi	s0,sp,256
 81e:	0276                	slli	tp,tp,0x1d
 820:	0000                	unimp
 822:	a830                	fsd	fa2,80(s0)
 824:	0000                	unimp
 826:	fe00                	sd	s0,56(a2)
 828:	000d                	c.nop	3
 82a:	0080                	addi	s0,sp,64
 82c:	0000                	unimp
 82e:	5e00                	lw	s0,56(a2)
 830:	0000                	unimp
 832:	0000                	unimp
 834:	0000                	unimp
 836:	0100                	addi	s0,sp,128
 838:	e99c                	sd	a5,16(a1)
 83a:	0001                	nop
 83c:	0100                	addi	s0,sp,128
 83e:	7364                	ld	s1,224(a4)
 840:	0074                	addi	a3,sp,12
 842:	0e30                	addi	a2,sp,792
 844:	00a8                	addi	a0,sp,72
 846:	0000                	unimp
 848:	9102                	jalr	sp
 84a:	0158                	addi	a4,sp,132
 84c:	17300063          	beq	zero,s3,9ac <_start-0x7ffff654>
 850:	0048                	addi	a0,sp,4
 852:	0000                	unimp
 854:	9102                	jalr	sp
 856:	0154                	addi	a3,sp,132
 858:	006e                	c.slli	zero,0x1b
 85a:	2130                	fld	fa2,64(a0)
 85c:	0035                	c.nop	13
 85e:	0000                	unimp
 860:	9102                	jalr	sp
 862:	0648                	addi	a0,sp,772
 864:	027d                	addi	tp,tp,31 # 1f <_start-0x7fffffe1>
 866:	0000                	unimp
 868:	0932                	slli	s2,s2,0xc
 86a:	0122                	slli	sp,sp,0x8
 86c:	0000                	unimp
 86e:	9102                	jalr	sp
 870:	0360                	addi	s0,sp,396
 872:	0069                	c.nop	26
 874:	00480733          	add	a4,a6,tp
 878:	0000                	unimp
 87a:	9102                	jalr	sp
 87c:	006c                	addi	a1,sp,12
 87e:	6e02                	ld	t3,0(sp)
 880:	0002                	c.slli64	zero
 882:	2500                	fld	fs0,8(a0)
 884:	0048                	addi	a0,sp,4
 886:	0000                	unimp
 888:	0d76                	slli	s10,s10,0x1d
 88a:	8000                	.insn	2, 0x8000
 88c:	0000                	unimp
 88e:	0000                	unimp
 890:	0088                	addi	a0,sp,64
 892:	0000                	unimp
 894:	0000                	unimp
 896:	0000                	unimp
 898:	9c01                	subw	s0,s0,s0
 89a:	0230                	addi	a2,sp,264
 89c:	0000                	unimp
 89e:	7301                	lui	t1,0xfffe0
 8a0:	0031                	c.nop	12
 8a2:	1525                	addi	a0,a0,-23
 8a4:	0111                	addi	sp,sp,4
 8a6:	0000                	unimp
 8a8:	9102                	jalr	sp
 8aa:	0168                	addi	a0,sp,140
 8ac:	25003273          	csrrc	tp,vsiselect,zero
 8b0:	1125                	addi	sp,sp,-23
 8b2:	0001                	nop
 8b4:	0200                	addi	s0,sp,256
 8b6:	6091                	lui	ra,0x4
 8b8:	6e01                	.insn	2, 0x6e01
 8ba:	2500                	fld	fs0,8(a0)
 8bc:	3530                	fld	fa2,104(a0)
 8be:	0000                	unimp
 8c0:	0200                	addi	s0,sp,256
 8c2:	5891                	li	a7,-28
 8c4:	0200                	addi	s0,sp,256
 8c6:	0246                	slli	tp,tp,0x11
 8c8:	0000                	unimp
 8ca:	0001221b          	.insn	4, 0x0001221b
 8ce:	2c00                	fld	fs0,24(s0)
 8d0:	000d                	c.nop	3
 8d2:	0080                	addi	s0,sp,64
 8d4:	0000                	unimp
 8d6:	4a00                	lw	s0,16(a2)
 8d8:	0000                	unimp
 8da:	0000                	unimp
 8dc:	0000                	unimp
 8de:	0100                	addi	s0,sp,128
 8e0:	7b9c                	ld	a5,48(a5)
 8e2:	0002                	c.slli64	zero
 8e4:	0100                	addi	s0,sp,128
 8e6:	7364                	ld	s1,224(a4)
 8e8:	0074                	addi	a3,sp,12
 8ea:	01220e1b          	addiw	t3,tp,18 # 12 <_start-0x7fffffee>
 8ee:	0000                	unimp
 8f0:	9102                	jalr	sp
 8f2:	0158                	addi	a4,sp,132
 8f4:	00637273          	csrrci	tp,0x6,6
 8f8:	01111f1b          	slliw	t5,sp,0x11
 8fc:	0000                	unimp
 8fe:	9102                	jalr	sp
 900:	0650                	addi	a2,sp,772
 902:	00000263          	beqz	zero,906 <_start-0x7ffff6fa>
 906:	0b1d                	addi	s6,s6,7
 908:	0122                	slli	sp,sp,0x8
 90a:	0000                	unimp
 90c:	9102                	jalr	sp
 90e:	0068                	addi	a0,sp,12
 910:	5402                	lw	s0,32(sp)
 912:	0002                	c.slli64	zero
 914:	0e00                	addi	s0,sp,784
 916:	0122                	slli	sp,sp,0x8
 918:	0000                	unimp
 91a:	0cac                	addi	a1,sp,600
 91c:	8000                	.insn	2, 0x8000
 91e:	0000                	unimp
 920:	0000                	unimp
 922:	0080                	addi	s0,sp,64
 924:	0000                	unimp
 926:	0000                	unimp
 928:	0000                	unimp
 92a:	9c01                	subw	s0,s0,s0
 92c:	02d2                	slli	t0,t0,0x14
 92e:	0000                	unimp
 930:	6401                	.insn	2, 0x6401
 932:	0e007473          	csrrci	s0,0xe0,0
 936:	0001220f          	.insn	4, 0x0001220f
 93a:	0200                	addi	s0,sp,256
 93c:	5891                	li	a7,-28
 93e:	7301                	lui	t1,0xfffe0
 940:	6372                	ld	t1,280(sp)
 942:	0e00                	addi	s0,sp,784
 944:	1120                	addi	s0,sp,168
 946:	0001                	nop
 948:	0200                	addi	s0,sp,256
 94a:	5091                	li	ra,-28
 94c:	6e01                	.insn	2, 0x6e01
 94e:	0e00                	addi	s0,sp,784
 950:	352c                	fld	fa1,104(a0)
 952:	0000                	unimp
 954:	0200                	addi	s0,sp,256
 956:	4891                	li	a7,4
 958:	6306                	ld	t1,64(sp)
 95a:	0002                	c.slli64	zero
 95c:	1000                	addi	s0,sp,32
 95e:	0001220b          	.insn	4, 0x0001220b
 962:	0200                	addi	s0,sp,256
 964:	6891                	lui	a7,0x4
 966:	0e00                	addi	s0,sp,784
 968:	01fa                	slli	gp,gp,0x1e
 96a:	0000                	unimp
 96c:	0401                	addi	s0,s0,0
 96e:	3501                	addiw	a0,a0,-32
 970:	0000                	unimp
 972:	7200                	ld	s0,32(a2)
 974:	000c                	.insn	2, 0x000c
 976:	0080                	addi	s0,sp,64
 978:	0000                	unimp
 97a:	3a00                	fld	fs0,48(a2)
 97c:	0000                	unimp
 97e:	0000                	unimp
 980:	0000                	unimp
 982:	0100                	addi	s0,sp,128
 984:	019c                	addi	a5,sp,192
 986:	14040073          	.insn	4, 0x14040073
 98a:	0111                	addi	sp,sp,4
 98c:	0000                	unimp
 98e:	9102                	jalr	sp
 990:	0358                	addi	a4,sp,388
 992:	0069                	c.nop	26
 994:	0906                	slli	s2,s2,0x1
 996:	0048                	addi	a0,sp,4
 998:	0000                	unimp
 99a:	9102                	jalr	sp
 99c:	006c                	addi	a1,sp,12
	...

Disassembly of section .debug_abbrev:

0000000000000000 <.debug_abbrev>:
   0:	1101                	addi	sp,sp,-32
   2:	1000                	addi	s0,sp,32
   4:	12011117          	auipc	sp,0x12011
   8:	1b0e030f          	.insn	4, 0x1b0e030f
   c:	250e                	fld	fa0,192(sp)
   e:	130e                	slli	t1,t1,0x23
  10:	0005                	c.nop	1
  12:	0000                	unimp
  14:	2401                	sext.w	s0,s0
  16:	0b00                	addi	s0,sp,400
  18:	030b3e0b          	.insn	4, 0x030b3e0b
  1c:	000e                	c.slli	zero,0x3
  1e:	0200                	addi	s0,sp,256
  20:	0111                	addi	sp,sp,4 # 12011008 <_start-0x6dfeeff8>
  22:	0e25                	addi	t3,t3,9 # 1a009 <_start-0x7ffe5ff7>
  24:	1f030b13          	addi	s6,t1,496 # fffffffffffe01f0 <init_stack+0xffffffff7ffde1f0>
  28:	01111f1b          	slliw	t5,sp,0x11
  2c:	0712                	slli	a4,a4,0x4
  2e:	1710                	addi	a2,sp,928
  30:	0000                	unimp
  32:	03001603          	lh	a2,48(zero) # 30 <_start-0x7fffffd0>
  36:	3a0e                	fld	fs4,224(sp)
  38:	390b3b0b          	.insn	4, 0x390b3b0b
  3c:	0013490b          	.insn	4, 0x0013490b
  40:	0400                	addi	s0,sp,512
  42:	012e                	slli	sp,sp,0xb
  44:	0e03193f 0b3b0b3a 	.insn	8, 0x0b3b0b3a0e03193f
  4c:	0b39                	addi	s6,s6,14
  4e:	13491927          	.insn	4, 0x13491927
  52:	0111                	addi	sp,sp,4
  54:	0712                	slli	a4,a4,0x4
  56:	1840                	addi	s0,sp,52
  58:	197a                	slli	s2,s2,0x3e
  5a:	1301                	addi	t1,t1,-32
  5c:	0000                	unimp
  5e:	0505                	addi	a0,a0,1
  60:	0300                	addi	s0,sp,384
  62:	3a08                	fld	fa0,48(a2)
  64:	390b3b0b          	.insn	4, 0x390b3b0b
  68:	0213490b          	.insn	4, 0x0213490b
  6c:	0018                	.insn	2, 0x0018
  6e:	0600                	addi	s0,sp,768
  70:	002e                	c.slli	zero,0xb
  72:	0e03193f 0b3b0b3a 	.insn	8, 0x0b3b0b3a0e03193f
  7a:	0b39                	addi	s6,s6,14
  7c:	0111                	addi	sp,sp,4
  7e:	0712                	slli	a4,a4,0x4
  80:	1840                	addi	s0,sp,52
  82:	197a                	slli	s2,s2,0x3e
  84:	0000                	unimp
  86:	0100                	addi	s0,sp,128
  88:	0024                	addi	s1,sp,8
  8a:	0b3e0b0b          	.insn	4, 0x0b3e0b0b
  8e:	00000e03          	lb	t3,0(zero) # 0 <_start-0x80000000>
  92:	1102                	slli	sp,sp,0x20
  94:	2501                	sext.w	a0,a0
  96:	130e                	slli	t1,t1,0x23
  98:	1b1f030b          	.insn	4, 0x1b1f030b
  9c:	111f 1201 1007      	.insn	6, 0x10071201111f
  a2:	03000017          	auipc	zero,0x3000
  a6:	0024                	addi	s1,sp,8
  a8:	0b3e0b0b          	.insn	4, 0x0b3e0b0b
  ac:	00000803          	lb	a6,0(zero) # 0 <_start-0x80000000>
  b0:	2e04                	fld	fs1,24(a2)
  b2:	3f01                	addiw	t5,t5,-32
  b4:	0319                	addi	t1,t1,6
  b6:	3a0e                	fld	fs4,224(sp)
  b8:	390b3b0b          	.insn	4, 0x390b3b0b
  bc:	4919270b          	.insn	4, 0x4919270b
  c0:	01193c13          	sltiu	s8,s2,17
  c4:	05000013          	li	zero,80
  c8:	0005                	c.nop	1
  ca:	1349                	addi	t1,t1,-14
  cc:	0000                	unimp
  ce:	1806                	slli	a6,a6,0x21
  d0:	0000                	unimp
  d2:	0700                	addi	s0,sp,896
  d4:	0b0b000f          	.insn	4, 0x0b0b000f
  d8:	1349                	addi	t1,t1,-14
  da:	0000                	unimp
  dc:	2608                	fld	fa0,8(a2)
  de:	4900                	lw	s0,16(a0)
  e0:	09000013          	li	zero,144
  e4:	002e                	c.slli	zero,0xb
  e6:	0e03193f 0b3b0b3a 	.insn	8, 0x0b3b0b3a0e03193f
  ee:	0b39                	addi	s6,s6,14
  f0:	0111                	addi	sp,sp,4
  f2:	0712                	slli	a4,a4,0x4
  f4:	1840                	addi	s0,sp,52
  f6:	197c                	addi	a5,sp,188
  f8:	0000                	unimp
  fa:	0100                	addi	s0,sp,128
  fc:	0024                	addi	s1,sp,8
  fe:	0b3e0b0b          	.insn	4, 0x0b3e0b0b
 102:	00000e03          	lb	t3,0(zero) # 0 <_start-0x80000000>
 106:	1102                	slli	sp,sp,0x20
 108:	2501                	sext.w	a0,a0
 10a:	130e                	slli	t1,t1,0x23
 10c:	1b1f030b          	.insn	4, 0x1b1f030b
 110:	111f 1201 1007      	.insn	6, 0x10071201111f
 116:	03000017          	auipc	zero,0x3000
 11a:	0024                	addi	s1,sp,8
 11c:	0b3e0b0b          	.insn	4, 0x0b3e0b0b
 120:	00000803          	lb	a6,0(zero) # 0 <_start-0x80000000>
 124:	0104                	addi	s1,sp,128
 126:	4901                	li	s2,0
 128:	00130113          	addi	sp,t1,1
 12c:	0500                	addi	s0,sp,640
 12e:	0021                	c.nop	8
 130:	1349                	addi	t1,t1,-14
 132:	0000052f          	.insn	4, 0x052f
 136:	3406                	fld	fs0,96(sp)
 138:	0300                	addi	s0,sp,384
 13a:	3a0e                	fld	fs4,224(sp)
 13c:	390b3b0b          	.insn	4, 0x390b3b0b
 140:	3f13490b          	.insn	4, 0x3f13490b
 144:	8819                	andi	s0,s0,6
 146:	0501                	addi	a0,a0,0
 148:	1802                	slli	a6,a6,0x20
 14a:	0000                	unimp
 14c:	03003407          	fld	fs0,48(zero) # 30 <_start-0x7fffffd0>
 150:	3a0e                	fld	fs4,224(sp)
 152:	390b3b0b          	.insn	4, 0x390b3b0b
 156:	3f13490b          	.insn	4, 0x3f13490b
 15a:	0219                	addi	tp,tp,6 # 6 <_start-0x7ffffffa>
 15c:	0018                	.insn	2, 0x0018
 15e:	0800                	addi	s0,sp,16
 160:	0b0b000f          	.insn	4, 0x0b0b000f
 164:	1349                	addi	t1,t1,-14
 166:	0000                	unimp
 168:	2e09                	addiw	t3,t3,2
 16a:	3f01                	addiw	t5,t5,-32
 16c:	0319                	addi	t1,t1,6
 16e:	3a0e                	fld	fs4,224(sp)
 170:	390b3b0b          	.insn	4, 0x390b3b0b
 174:	01193c0b          	.insn	4, 0x01193c0b
 178:	0a000013          	li	zero,160
 17c:	0018                	.insn	2, 0x0018
 17e:	0000                	unimp
 180:	3f012e0b          	.insn	4, 0x3f012e0b
 184:	0319                	addi	t1,t1,6
 186:	3a0e                	fld	fs4,224(sp)
 188:	390b3b0b          	.insn	4, 0x390b3b0b
 18c:	4919270b          	.insn	4, 0x4919270b
 190:	01193c13          	sltiu	s8,s2,17
 194:	0c000013          	li	zero,192
 198:	0005                	c.nop	1
 19a:	1349                	addi	t1,t1,-14
 19c:	0000                	unimp
 19e:	2e0d                	addiw	t3,t3,3
 1a0:	3f00                	fld	fs0,56(a4)
 1a2:	0319                	addi	t1,t1,6
 1a4:	3a0e                	fld	fs4,224(sp)
 1a6:	390b3b0b          	.insn	4, 0x390b3b0b
 1aa:	3c19270b          	.insn	4, 0x3c19270b
 1ae:	0019                	c.nop	6
 1b0:	0e00                	addi	s0,sp,784
 1b2:	002e                	c.slli	zero,0xb
 1b4:	0e03193f 0b3b0b3a 	.insn	8, 0x0b3b0b3a0e03193f
 1bc:	0b39                	addi	s6,s6,14
 1be:	1349                	addi	t1,t1,-14
 1c0:	0111                	addi	sp,sp,4
 1c2:	0712                	slli	a4,a4,0x4
 1c4:	1840                	addi	s0,sp,52
 1c6:	197c                	addi	a5,sp,188
 1c8:	0000                	unimp
 1ca:	0100                	addi	s0,sp,128
 1cc:	0034                	addi	a3,sp,8
 1ce:	213a0803          	lb	a6,531(s4) # fffffffffffe0213 <init_stack+0xffffffff7ffde213>
 1d2:	3b01                	addiw	s6,s6,-32
 1d4:	490b390b          	.insn	4, 0x490b390b
 1d8:	00180213          	addi	tp,a6,1
 1dc:	0200                	addi	s0,sp,256
 1de:	0034                	addi	a3,sp,8
 1e0:	213a0e03          	lb	t3,531(s4)
 1e4:	3b01                	addiw	s6,s6,-32
 1e6:	490b390b          	.insn	4, 0x490b390b
 1ea:	00180213          	addi	tp,a6,1
 1ee:	0300                	addi	s0,sp,384
 1f0:	0005                	c.nop	1
 1f2:	213a0803          	lb	a6,531(s4)
 1f6:	3b01                	addiw	s6,s6,-32
 1f8:	490b390b          	.insn	4, 0x490b390b
 1fc:	00180213          	addi	tp,a6,1
 200:	0400                	addi	s0,sp,512
 202:	0024                	addi	s1,sp,8
 204:	0b3e0b0b          	.insn	4, 0x0b3e0b0b
 208:	00000e03          	lb	t3,0(zero) # 0 <_start-0x80000000>
 20c:	0b05                	addi	s6,s6,1
 20e:	1101                	addi	sp,sp,-32
 210:	1201                	addi	tp,tp,-32 # ffffffffffffffe0 <init_stack+0xffffffff7fffdfe0>
 212:	06000007          	.insn	4, 0x06000007
 216:	0016                	c.slli	zero,0x5
 218:	0b3a0e03          	lb	t3,179(s4)
 21c:	0b390b3b          	.insn	4, 0x0b390b3b
 220:	1349                	addi	t1,t1,-14
 222:	0000                	unimp
 224:	0b000f07          	.insn	4, 0x0b000f07
 228:	0821                	addi	a6,a6,8
 22a:	1349                	addi	t1,t1,-14
 22c:	0000                	unimp
 22e:	0508                	addi	a0,sp,640
 230:	0300                	addi	s0,sp,384
 232:	3a0e                	fld	fs4,224(sp)
 234:	0121                	addi	sp,sp,8
 236:	392b213b          	.insn	4, 0x392b213b
 23a:	0213490b          	.insn	4, 0x0213490b
 23e:	0018                	.insn	2, 0x0018
 240:	0900                	addi	s0,sp,144
 242:	012e                	slli	sp,sp,0xb
 244:	0e03193f 3b04213a 	.insn	8, 0x3b04213a0e03193f
 24c:	1121390b          	.insn	4, 0x1121390b
 250:	13491927          	.insn	4, 0x13491927
 254:	193c                	addi	a5,sp,184
 256:	1301                	addi	t1,t1,-32
 258:	0000                	unimp
 25a:	050a                	slli	a0,a0,0x2
 25c:	4900                	lw	s0,16(a0)
 25e:	0b000013          	li	zero,176
 262:	012e                	slli	sp,sp,0xb
 264:	0e03193f 3b01213a 	.insn	8, 0x3b01213a0e03193f
 26c:	0121390b          	.insn	4, 0x0121390b
 270:	13491927          	.insn	4, 0x13491927
 274:	0111                	addi	sp,sp,4
 276:	0712                	slli	a4,a4,0x4
 278:	1840                	addi	s0,sp,52
 27a:	197c                	addi	a5,sp,188
 27c:	1301                	addi	t1,t1,-32
 27e:	0000                	unimp
 280:	010c                	addi	a1,sp,128
 282:	4901                	li	s2,0
 284:	00130113          	addi	sp,t1,1
 288:	0d00                	addi	s0,sp,656
 28a:	012e                	slli	sp,sp,0xb
 28c:	213a0e03          	lb	t3,531(s4)
 290:	3b01                	addiw	s6,s6,-32
 292:	0121390b          	.insn	4, 0x0121390b
 296:	13491927          	.insn	4, 0x13491927
 29a:	0111                	addi	sp,sp,4
 29c:	0712                	slli	a4,a4,0x4
 29e:	1840                	addi	s0,sp,52
 2a0:	197a                	slli	s2,s2,0x3e
 2a2:	1301                	addi	t1,t1,-32
 2a4:	0000                	unimp
 2a6:	110e                	slli	sp,sp,0x23
 2a8:	2501                	sext.w	a0,a0
 2aa:	130e                	slli	t1,t1,0x23
 2ac:	1b1f030b          	.insn	4, 0x1b1f030b
 2b0:	111f 1201 1007      	.insn	6, 0x10071201111f
 2b6:	0f000017          	auipc	zero,0xf000
 2ba:	0024                	addi	s1,sp,8
 2bc:	0b3e0b0b          	.insn	4, 0x0b3e0b0b
 2c0:	00000803          	lb	a6,0(zero) # 0 <_start-0x80000000>
 2c4:	0f10                	addi	a2,sp,912
 2c6:	0b00                	addi	s0,sp,400
 2c8:	000e030b          	.insn	4, 0x000e030b
 2cc:	1100                	addi	s0,sp,160
 2ce:	0026                	c.slli	zero,0x9
 2d0:	1349                	addi	t1,t1,-14
 2d2:	0000                	unimp
 2d4:	2e12                	fld	ft8,256(sp)
 2d6:	3f01                	addiw	t5,t5,-32
 2d8:	0319                	addi	t1,t1,6
 2da:	3a0e                	fld	fs4,224(sp)
 2dc:	39053b0b          	.insn	4, 0x39053b0b
 2e0:	4919270b          	.insn	4, 0x4919270b
 2e4:	12011113          	.insn	4, 0x12011113
 2e8:	7c184007          	.insn	4, 0x7c184007
 2ec:	0119                	addi	sp,sp,6
 2ee:	13000013          	li	zero,304
 2f2:	0005                	c.nop	1
 2f4:	0b3a0803          	lb	a6,179(s4)
 2f8:	0b39053b          	.insn	4, 0x0b39053b
 2fc:	1349                	addi	t1,t1,-14
 2fe:	1802                	slli	a6,a6,0x20
 300:	0000                	unimp
 302:	3414                	fld	fa3,40(s0)
 304:	0300                	addi	s0,sp,384
 306:	3a08                	fld	fa0,48(a2)
 308:	39053b0b          	.insn	4, 0x39053b0b
 30c:	0213490b          	.insn	4, 0x0213490b
 310:	0018                	.insn	2, 0x0018
 312:	1500                	addi	s0,sp,672
 314:	0018                	.insn	2, 0x0018
 316:	0000                	unimp
 318:	2116                	fld	ft2,320(sp)
 31a:	4900                	lw	s0,16(a0)
 31c:	00052f13          	slti	t5,a0,0
 320:	1700                	addi	s0,sp,928
 322:	000a                	c.slli	zero,0x2
 324:	0b3a0e03          	lb	t3,179(s4)
 328:	0b390b3b          	.insn	4, 0x0b390b3b
 32c:	0111                	addi	sp,sp,4
 32e:	0000                	unimp
 330:	2118                	fld	fa4,0(a0)
 332:	4900                	lw	s0,16(a0)
 334:	000b2f13          	slti	t5,s6,0
 338:	1900                	addi	s0,sp,176
 33a:	012e                	slli	sp,sp,0xb
 33c:	0b3a0e03          	lb	t3,179(s4)
 340:	0b390b3b          	.insn	4, 0x0b390b3b
 344:	01111927          	.insn	4, 0x01111927
 348:	0712                	slli	a4,a4,0x4
 34a:	1840                	addi	s0,sp,52
 34c:	197c                	addi	a5,sp,188
 34e:	1301                	addi	t1,t1,-32
 350:	0000                	unimp
 352:	0100                	addi	s0,sp,128
 354:	0005                	c.nop	1
 356:	213a0803          	lb	a6,531(s4)
 35a:	3b01                	addiw	s6,s6,-32
 35c:	490b390b          	.insn	4, 0x490b390b
 360:	00180213          	addi	tp,a6,1
 364:	0200                	addi	s0,sp,256
 366:	012e                	slli	sp,sp,0xb
 368:	0e03193f 3b01213a 	.insn	8, 0x3b01213a0e03193f
 370:	0121390b          	.insn	4, 0x0121390b
 374:	13491927          	.insn	4, 0x13491927
 378:	0111                	addi	sp,sp,4
 37a:	0712                	slli	a4,a4,0x4
 37c:	1840                	addi	s0,sp,52
 37e:	197a                	slli	s2,s2,0x3e
 380:	1301                	addi	t1,t1,-32
 382:	0000                	unimp
 384:	03003403          	ld	s0,48(zero) # 30 <_start-0x7fffffd0>
 388:	3a08                	fld	fa0,48(a2)
 38a:	0121                	addi	sp,sp,8
 38c:	0b390b3b          	.insn	4, 0x0b390b3b
 390:	1349                	addi	t1,t1,-14
 392:	1802                	slli	a6,a6,0x20
 394:	0000                	unimp
 396:	2404                	fld	fs1,8(s0)
 398:	0b00                	addi	s0,sp,400
 39a:	030b3e0b          	.insn	4, 0x030b3e0b
 39e:	000e                	c.slli	zero,0x3
 3a0:	0500                	addi	s0,sp,640
 3a2:	210b000f          	.insn	4, 0x210b000f
 3a6:	4908                	lw	a0,16(a0)
 3a8:	06000013          	li	zero,96
 3ac:	0034                	addi	a3,sp,8
 3ae:	213a0e03          	lb	t3,531(s4)
 3b2:	3b01                	addiw	s6,s6,-32
 3b4:	490b390b          	.insn	4, 0x490b390b
 3b8:	00180213          	addi	tp,a6,1
 3bc:	0700                	addi	s0,sp,896
 3be:	0111                	addi	sp,sp,4
 3c0:	0e25                	addi	t3,t3,9
 3c2:	1f030b13          	addi	s6,t1,496
 3c6:	01111f1b          	slliw	t5,sp,0x11
 3ca:	0712                	slli	a4,a4,0x4
 3cc:	1710                	addi	a2,sp,928
 3ce:	0000                	unimp
 3d0:	1608                	addi	a0,sp,800
 3d2:	0300                	addi	s0,sp,384
 3d4:	3a0e                	fld	fs4,224(sp)
 3d6:	390b3b0b          	.insn	4, 0x390b3b0b
 3da:	0013490b          	.insn	4, 0x0013490b
 3de:	0900                	addi	s0,sp,144
 3e0:	0024                	addi	s1,sp,8
 3e2:	0b3e0b0b          	.insn	4, 0x0b3e0b0b
 3e6:	00000803          	lb	a6,0(zero) # 0 <_start-0x80000000>
 3ea:	2e0a                	fld	ft8,128(sp)
 3ec:	3f01                	addiw	t5,t5,-32
 3ee:	0319                	addi	t1,t1,6
 3f0:	3a0e                	fld	fs4,224(sp)
 3f2:	390b3b0b          	.insn	4, 0x390b3b0b
 3f6:	4919270b          	.insn	4, 0x4919270b
 3fa:	12011113          	.insn	4, 0x12011113
 3fe:	7c184007          	.insn	4, 0x7c184007
 402:	0119                	addi	sp,sp,6
 404:	0b000013          	li	zero,176
 408:	0b0b000f          	.insn	4, 0x0b0b000f
 40c:	0000                	unimp
 40e:	260c                	fld	fa1,8(a2)
 410:	0000                	unimp
 412:	0d00                	addi	s0,sp,656
 414:	0026                	c.slli	zero,0x9
 416:	1349                	addi	t1,t1,-14
 418:	0000                	unimp
 41a:	2e0e                	fld	ft8,192(sp)
 41c:	3f01                	addiw	t5,t5,-32
 41e:	0319                	addi	t1,t1,6
 420:	3a0e                	fld	fs4,224(sp)
 422:	390b3b0b          	.insn	4, 0x390b3b0b
 426:	4919270b          	.insn	4, 0x4919270b
 42a:	12011113          	.insn	4, 0x12011113
 42e:	7a184007          	.insn	4, 0x7a184007
 432:	0019                	c.nop	6
	...

Disassembly of section .debug_aranges:

0000000000000000 <.debug_aranges>:
   0:	002c                	addi	a1,sp,8
   2:	0000                	unimp
   4:	0002                	c.slli64	zero
   6:	0000                	unimp
   8:	0000                	unimp
   a:	0008                	.insn	2, 0x0008
   c:	0000                	unimp
   e:	0000                	unimp
  10:	0000                	unimp
  12:	8000                	.insn	2, 0x8000
  14:	0000                	unimp
  16:	0000                	unimp
  18:	0050                	addi	a2,sp,4
	...
  2e:	0000                	unimp
  30:	002c                	addi	a1,sp,8
  32:	0000                	unimp
  34:	0002                	c.slli64	zero
  36:	0028                	addi	a0,sp,8
  38:	0000                	unimp
  3a:	0008                	.insn	2, 0x0008
  3c:	0000                	unimp
  3e:	0000                	unimp
  40:	0050                	addi	a2,sp,4
  42:	8000                	.insn	2, 0x8000
  44:	0000                	unimp
  46:	0000                	unimp
  48:	009a                	slli	ra,ra,0x6
	...
  5e:	0000                	unimp
  60:	002c                	addi	a1,sp,8
  62:	0000                	unimp
  64:	0002                	c.slli64	zero
  66:	00d0                	addi	a2,sp,68
  68:	0000                	unimp
  6a:	0008                	.insn	2, 0x0008
  6c:	0000                	unimp
  6e:	0000                	unimp
  70:	00ea                	slli	ra,ra,0x1a
  72:	8000                	.insn	2, 0x8000
  74:	0000                	unimp
  76:	0000                	unimp
  78:	0066                	c.slli	zero,0x19
	...
  8e:	0000                	unimp
  90:	002c                	addi	a1,sp,8
  92:	0000                	unimp
  94:	0002                	c.slli64	zero
  96:	0165                	addi	sp,sp,25
  98:	0000                	unimp
  9a:	0008                	.insn	2, 0x0008
  9c:	0000                	unimp
  9e:	0000                	unimp
  a0:	0150                	addi	a2,sp,132
  a2:	8000                	.insn	2, 0x8000
  a4:	0000                	unimp
  a6:	0000                	unimp
  a8:	0028                	addi	a0,sp,8
	...
  be:	0000                	unimp
  c0:	002c                	addi	a1,sp,8
  c2:	0000                	unimp
  c4:	0002                	c.slli64	zero
  c6:	0262                	slli	tp,tp,0x18
  c8:	0000                	unimp
  ca:	0008                	.insn	2, 0x0008
  cc:	0000                	unimp
  ce:	0000                	unimp
  d0:	0178                	addi	a4,sp,140
  d2:	8000                	.insn	2, 0x8000
  d4:	0000                	unimp
  d6:	0000                	unimp
  d8:	0afa                	slli	s5,s5,0x1e
	...
  ee:	0000                	unimp
  f0:	002c                	addi	a1,sp,8
  f2:	0000                	unimp
  f4:	0002                	c.slli64	zero
  f6:	0695                	addi	a3,a3,5
  f8:	0000                	unimp
  fa:	0008                	.insn	2, 0x0008
  fc:	0000                	unimp
  fe:	0000                	unimp
 100:	0c72                	slli	s8,s8,0x1c
 102:	8000                	.insn	2, 0x8000
 104:	0000                	unimp
 106:	0000                	unimp
 108:	037c                	addi	a5,sp,396
	...

Disassembly of section .debug_str:

0000000000000000 <.debug_str>:
   0:	6e72656b          	.insn	4, 0x6e72656b
   4:	6c65                	lui	s8,0x19
   6:	6174732f          	.insn	4, 0x6174732f
   a:	7472                	ld	s0,312(sp)
   c:	532e                	lw	t1,232(sp)
   e:	2f00                	fld	fs0,24(a4)
  10:	6f68                	ld	a0,216(a4)
  12:	656d                	lui	a0,0x1b
  14:	6168772f          	.insn	4, 0x6168772f
  18:	656c                	ld	a1,200(a0)
  1a:	6166                	ld	sp,88(sp)
  1c:	6c6c                	ld	a1,216(s0)
  1e:	6f72502f          	.insn	4, 0x6f72502f
  22:	656a                	ld	a0,152(sp)
  24:	2f737463          	bgeu	t1,s7,30c <_start-0x7ffffcf4>
  28:	6c616857          	.insn	4, 0x6c616857
  2c:	4f65                	li	t5,25
  2e:	4e470053          	.insn	4, 0x4e470053
  32:	2055                	.insn	2, 0x2055
  34:	5341                	li	t1,-16
  36:	3220                	fld	fs0,96(a2)
  38:	342e                	fld	fs0,232(sp)
  3a:	00312e33          	slt	t3,sp,gp
  3e:	6f6c                	ld	a1,216(a4)
  40:	676e                	ld	a4,216(sp)
  42:	7520                	ld	s0,104(a0)
  44:	736e                	ld	t1,248(sp)
  46:	6769                	lui	a4,0x1a
  48:	656e                	ld	a0,216(sp)
  4a:	2064                	fld	fs1,192(s0)
  4c:	6e69                	lui	t3,0x1a
  4e:	0074                	addi	a3,sp,12
  50:	6e75                	lui	t3,0x1d
  52:	6e676973          	csrrsi	s2,0x6e6,14
  56:	6465                	lui	s0,0x19
  58:	6320                	ld	s0,64(a4)
  5a:	6168                	ld	a0,192(a0)
  5c:	0072                	c.slli	zero,0x1c
  5e:	20554e47          	fmsub.s	ft8,fa0,ft5,ft4,rmm
  62:	20373143          	fmadd.s	ft2,fa4,ft3,ft4,rup
  66:	3431                	addiw	s0,s0,-20 # 18fec <_start-0x7ffe7014>
  68:	322e                	fld	ft4,232(sp)
  6a:	302e                	fld	ft0,232(sp)
  6c:	2d20                	fld	fs0,88(a0)
  6e:	636d                	lui	t1,0x1b
  70:	6f6d                	lui	t5,0x1b
  72:	6564                	ld	s1,200(a0)
  74:	3d6c                	fld	fa1,248(a0)
  76:	656d                	lui	a0,0x1b
  78:	6164                	ld	s1,192(a0)
  7a:	796e                	ld	s2,248(sp)
  7c:	2d20                	fld	fs0,88(a0)
  7e:	746d                	lui	s0,0xffffb
  80:	6e75                	lui	t3,0x1d
  82:	3d65                	addiw	s10,s10,-7
  84:	6f72                	ld	t5,280(sp)
  86:	74656b63          	bltu	a0,t1,7dc <_start-0x7ffff824>
  8a:	2d20                	fld	fs0,88(a0)
  8c:	616d                	addi	sp,sp,240
  8e:	6962                	ld	s2,24(sp)
  90:	6c3d                	lui	s8,0xf
  92:	3670                	fld	fa2,232(a2)
  94:	6434                	ld	a3,72(s0)
  96:	2d20                	fld	fs0,88(a0)
  98:	696d                	lui	s2,0x1b
  9a:	732d6173          	csrrsi	sp,mhpmevent18h,26
  9e:	6570                	ld	a2,200(a0)
  a0:	30323d63          	.insn	4, 0x30323d63
  a4:	3931                	addiw	s2,s2,-20 # 1afec <_start-0x7ffe5014>
  a6:	3231                	addiw	tp,tp,-20 # ffffffffffffffec <init_stack+0xffffffff7fffdfec>
  a8:	3331                	addiw	t1,t1,-20 # 1afec <_start-0x7ffe5014>
  aa:	2d20                	fld	fs0,88(a0)
  ac:	746d                	lui	s0,0xffffb
  ae:	736c                	ld	a1,224(a4)
  b0:	642d                	lui	s0,0xb
  b2:	6169                	addi	sp,sp,208
  b4:	656c                	ld	a1,200(a0)
  b6:	743d7463          	bgeu	s10,gp,7fe <_start-0x7ffff802>
  ba:	6172                	ld	sp,280(sp)
  bc:	2064                	fld	fs1,192(s0)
  be:	6d2d                	lui	s10,0xb
  c0:	7261                	lui	tp,0xffff8
  c2:	723d6863          	bltu	s10,gp,7f2 <_start-0x7ffff80e>
  c6:	3676                	fld	fa2,376(sp)
  c8:	6934                	ld	a3,80(a0)
  ca:	616d                	addi	sp,sp,240
  cc:	6466                	ld	s0,88(sp)
  ce:	697a5f63          	bge	s4,s7,76c <_start-0x7ffff894>
  d2:	5f727363          	bgeu	tp,s7,6b8 <_start-0x7ffff948>
  d6:	697a                	ld	s2,408(sp)
  d8:	6566                	ld	a0,88(sp)
  da:	636e                	ld	t1,216(sp)
  dc:	6965                	lui	s2,0x19
  de:	2d20                	fld	fs0,88(a0)
  e0:	62646767          	.insn	4, 0x62646767
  e4:	2d20                	fld	fs0,88(a0)
  e6:	2d20304f          	.insn	4, 0x2d20304f
  ea:	6e66                	ld	t3,88(sp)
  ec:	6d6f2d6f          	jal	s10,f27c2 <_start-0x7ff0d83e>
  f0:	7469                	lui	s0,0xffffa
  f2:	662d                	lui	a2,0xb
  f4:	6172                	ld	sp,280(sp)
  f6:	656d                	lui	a0,0x1b
  f8:	702d                	c.lui	zero,0xfffeb
  fa:	746e696f          	jal	s2,e6840 <_start-0x7ff197c0>
  fe:	7265                	lui	tp,0xffff9
 100:	2d20                	fld	fs0,88(a0)
 102:	6e66                	ld	t3,88(sp)
 104:	756a2d6f          	jal	s10,a285a <_start-0x7ff5d7a6>
 108:	706d                	c.lui	zero,0xffffb
 10a:	742d                	lui	s0,0xfffeb
 10c:	6261                	lui	tp,0x18
 10e:	656c                	ld	a1,200(a0)
 110:	68730073          	.insn	4, 0x68730073
 114:	2074726f          	jal	tp,47b1a <_start-0x7ffb84e6>
 118:	6e75                	lui	t3,0x1d
 11a:	6e676973          	csrrsi	s2,0x6e6,14
 11e:	6465                	lui	s0,0x19
 120:	6920                	ld	s0,80(a0)
 122:	746e                	ld	s0,248(sp)
 124:	7500                	ld	s0,40(a0)
 126:	7261                	lui	tp,0xffff8
 128:	5f74                	lw	a3,124(a4)
 12a:	6e69                	lui	t3,0x1a
 12c:	7469                	lui	s0,0xffffa
 12e:	7500                	ld	s0,40(a0)
 130:	7261                	lui	tp,0xffff8
 132:	5f74                	lw	a3,124(a4)
 134:	7570                	ld	a2,232(a0)
 136:	6374                	ld	a3,192(a4)
 138:	7500                	ld	s0,40(a0)
 13a:	6e69                	lui	t3,0x1a
 13c:	3874                	fld	fa3,240(s0)
 13e:	7400                	ld	s0,40(s0)
 140:	7365                	lui	t1,0xffff9
 142:	5f74                	lw	a3,124(a4)
 144:	7270                	ld	a2,224(a2)
 146:	6e69                	lui	t3,0x1a
 148:	6674                	ld	a3,200(a2)
 14a:	6c00                	ld	s0,24(s0)
 14c:	20676e6f          	jal	t3,76352 <_start-0x7ff89cae>
 150:	6f64                	ld	s1,216(a4)
 152:	6275                	lui	tp,0x1d
 154:	656c                	ld	a1,200(a0)
 156:	6c00                	ld	s0,24(s0)
 158:	20676e6f          	jal	t3,7635e <_start-0x7ff89ca2>
 15c:	6f6c                	ld	a1,216(a4)
 15e:	676e                	ld	a4,216(sp)
 160:	6920                	ld	s0,80(a0)
 162:	746e                	ld	s0,248(sp)
 164:	7000                	ld	s0,32(s0)
 166:	7475                	lui	s0,0xffffd
 168:	616d0073          	.insn	4, 0x616d0073
 16c:	6e69                	lui	t3,0x1a
 16e:	6900                	ld	s0,16(a0)
 170:	696e                	ld	s2,216(sp)
 172:	5f74                	lw	a3,124(a4)
 174:	63617473          	csrrci	s0,0x636,2
 178:	6f745f6b          	.insn	4, 0x6f745f6b
 17c:	0070                	addi	a2,sp,12
 17e:	6e69                	lui	t3,0x1a
 180:	7469                	lui	s0,0xffffa
 182:	735f 6174 6b63      	.insn	6, 0x6b636174735f
 188:	6400                	ld	s0,8(s0)
 18a:	6769                	lui	a4,0x1a
 18c:	7469                	lui	s0,0xffffa
 18e:	69730073          	.insn	4, 0x69730073
 192:	657a                	ld	a0,408(sp)
 194:	745f 5f00 625f      	.insn	6, 0x625f5f00745f
 19a:	6975                	lui	s2,0x1d
 19c:	746c                	ld	a1,232(s0)
 19e:	6e69                	lui	t3,0x1a
 1a0:	765f 5f61 696c      	.insn	6, 0x696c5f61765f
 1a6:	76007473          	csrrci	s0,0x760,0
 1aa:	72706e73          	csrrsi	t3,mhpmevent7h,0
 1ae:	6e69                	lui	t3,0x1a
 1b0:	6674                	ld	a3,200(a2)
 1b2:	7300                	ld	s0,32(a4)
 1b4:	5f70696b          	.insn	4, 0x5f70696b
 1b8:	7461                	lui	s0,0xffff8
 1ba:	6400696f          	jal	s2,67fa <_start-0x7fff9806>
 1be:	6769                	lui	a4,0x1a
 1c0:	7469                	lui	s0,0xffffa
 1c2:	69685f73          	csrrwi	t5,0x696,16
 1c6:	5f006867          	.insn	4, 0x5f006867
 1ca:	675f 756e 5f63      	.insn	6, 0x5f63756e675f
 1d0:	6176                	ld	sp,344(sp)
 1d2:	6c5f 7369 0074      	.insn	6, 0x007473696c5f
 1d8:	7270                	ld	a2,224(a2)
 1da:	6365                	lui	t1,0x19
 1dc:	7369                	lui	t1,0xffffa
 1de:	6f69                	lui	t5,0x1a
 1e0:	006e                	c.slli	zero,0x1b
 1e2:	6f6c                	ld	a1,216(a4)
 1e4:	6e00706f          	j	78c4 <_start-0x7fff873c>
 1e8:	6d75                	lui	s10,0x1d
 1ea:	735f 7274 7700      	.insn	6, 0x77007274735f
 1f0:	6972                	ld	s2,280(sp)
 1f2:	6574                	ld	a3,200(a0)
 1f4:	6200                	ld	s0,0(a2)
 1f6:	7361                	lui	t1,0xffff8
 1f8:	0065                	c.nop	25
 1fa:	6c727473          	csrrci	s0,0x6c7,4
 1fe:	6e65                	lui	t3,0x19
 200:	6600                	ld	s0,8(a2)
 202:	616c                	ld	a1,192(a0)
 204:	6e007367          	.insn	4, 0x6e007367
 208:	6d75                	lui	s10,0x1d
 20a:	6562                	ld	a0,24(sp)
 20c:	0072                	c.slli	zero,0x1c
 20e:	7974                	ld	a3,240(a0)
 210:	6570                	ld	a2,200(a0)
 212:	6600                	ld	s0,8(a2)
 214:	6569                	lui	a0,0x1a
 216:	646c                	ld	a1,200(s0)
 218:	775f 6469 6874      	.insn	6, 0x68746469775f
 21e:	6100                	ld	s0,0(a0)
 220:	6772                	ld	a4,280(sp)
 222:	69640073          	.insn	4, 0x69640073
 226:	73746967          	.insn	4, 0x73746967
 22a:	6c5f 776f 7300      	.insn	6, 0x7300776f6c5f
 230:	6769                	lui	a4,0x1a
 232:	006e                	c.slli	zero,0x1b
 234:	6e75                	lui	t3,0x1d
 236:	6d75                	lui	s10,0x1d
 238:	7300                	ld	s0,32(a4)
 23a:	7a69                	lui	s4,0xffffa
 23c:	0065                	c.nop	25
 23e:	656d                	lui	a0,0x1b
 240:	6d6d                	lui	s10,0x1b
 242:	0065766f          	jal	a2,57248 <_start-0x7ffa8db8>
 246:	63727473          	csrrci	s0,0x637,4
 24a:	7970                	ld	a2,240(a0)
 24c:	6d00                	ld	s0,24(a0)
 24e:	6d65                	lui	s10,0x19
 250:	00706d63          	bltu	zero,t2,26a <_start-0x7ffffd96>
 254:	6e727473          	csrrci	s0,0x6e7,4
 258:	00797063          	bgeu	s2,t2,258 <_start-0x7ffffda8>
 25c:	656d                	lui	a0,0x1b
 25e:	636d                	lui	t1,0x1b
 260:	7970                	ld	a2,240(a0)
 262:	6f00                	ld	s0,24(a4)
 264:	6972                	ld	s2,280(sp)
 266:	5f6e6967          	.insn	4, 0x5f6e6967
 26a:	7364                	ld	s1,224(a4)
 26c:	0074                	addi	a3,sp,12
 26e:	6e727473          	csrrci	s0,0x6e7,4
 272:	00706d63          	bltu	zero,t2,28c <_start-0x7ffffd74>
 276:	656d                	lui	a0,0x1b
 278:	736d                	lui	t1,0xffffb
 27a:	7465                	lui	s0,0xffff9
 27c:	6300                	ld	s0,0(a4)
 27e:	7364                	ld	s1,224(a4)
 280:	0074                	addi	a3,sp,12
