
kernel/kernel：     文件格式 elf64-littleriscv


Disassembly of section .text:

0000000080000000 <_start>:
_start():
/home/whalefall/Projects/WhaleOS/kernel/start.S:7
# and causes each CPU to jump there

.section .text
.global _start
_start:
    la sp, init_stack_top
    80000000:	00003117          	auipc	sp,0x3
    80000004:	8f010113          	addi	sp,sp,-1808 # 800028f0 <init_stack_top>
/home/whalefall/Projects/WhaleOS/kernel/start.S:10

    # keep each CPU's hartid in its tp
    csrr tp, mhartid
    80000008:	f1402273          	csrr	tp,mhartid
/home/whalefall/Projects/WhaleOS/kernel/start.S:14
    
    # set mstatus.MPP to 0x01
    # after mret will enter S mode
    li a0, 0x1000
    8000000c:	6505                	lui	a0,0x1
/home/whalefall/Projects/WhaleOS/kernel/start.S:15
    csrrc x0, mstatus, a0
    8000000e:	30053073          	csrc	mstatus,a0
/home/whalefall/Projects/WhaleOS/kernel/start.S:16
    srli a0, a0, 1
    80000012:	8105                	srli	a0,a0,0x1
/home/whalefall/Projects/WhaleOS/kernel/start.S:17
    csrrs x0, mstatus, a0
    80000014:	30052073          	csrs	mstatus,a0
/home/whalefall/Projects/WhaleOS/kernel/start.S:20

    # set mepc to main
    la a0, main
    80000018:	00000517          	auipc	a0,0x0
    8000001c:	61050513          	addi	a0,a0,1552 # 80000628 <main>
/home/whalefall/Projects/WhaleOS/kernel/start.S:21
    csrw mepc, a0
    80000020:	34151073          	csrw	mepc,a0
/home/whalefall/Projects/WhaleOS/kernel/start.S:24

    # forbid pagetable
    csrw satp, x0
    80000024:	18001073          	csrw	satp,zero
/home/whalefall/Projects/WhaleOS/kernel/start.S:27

    # delegate all interrupts and exceptions to S mode
    li t0, 0xffff
    80000028:	62c1                	lui	t0,0x10
    8000002a:	32fd                	addiw	t0,t0,-1 # ffff <_start-0x7fff0001>
/home/whalefall/Projects/WhaleOS/kernel/start.S:28
    csrw medeleg, t0
    8000002c:	30229073          	csrw	medeleg,t0
/home/whalefall/Projects/WhaleOS/kernel/start.S:29
    csrw mideleg, t0
    80000030:	30329073          	csrw	mideleg,t0
/home/whalefall/Projects/WhaleOS/kernel/start.S:32

    # enable interrupts in S mode
    li a0, 0x222
    80000034:	22200513          	li	a0,546
/home/whalefall/Projects/WhaleOS/kernel/start.S:33
    csrrs x0, sie, a0
    80000038:	10452073          	csrs	sie,a0
/home/whalefall/Projects/WhaleOS/kernel/start.S:38

    # jal ra, timerinit

    # allow S mode to access all physical memory
    csrwi pmpcfg0, 0xf
    8000003c:	3a07d073          	csrwi	pmpcfg0,15
/home/whalefall/Projects/WhaleOS/kernel/start.S:39
    li t0, 0x3fffffffffffff
    80000040:	0010029b          	addiw	t0,zero,1
    80000044:	12da                	slli	t0,t0,0x36
    80000046:	12fd                	addi	t0,t0,-1
/home/whalefall/Projects/WhaleOS/kernel/start.S:40
    csrw pmpaddr0, t0
    80000048:	3b029073          	csrw	pmpaddr0,t0
/home/whalefall/Projects/WhaleOS/kernel/start.S:43

    # enter S mode and jump to main
    mret
    8000004c:	30200073          	mret

0000000080000050 <uart_init>:
uart_init():
/home/whalefall/Projects/WhaleOS/kernel/devices/uart.c:25
#define uart_read_reg(reg) (*UART_REG(reg))
#define uart_write_reg(reg, v) (*UART_REG(reg) = v)

void 
uart_init()
{
    80000050:	1141                	addi	sp,sp,-16
    80000052:	e406                	sd	ra,8(sp)
    80000054:	e022                	sd	s0,0(sp)
    80000056:	0800                	addi	s0,sp,16
/home/whalefall/Projects/WhaleOS/kernel/devices/uart.c:27
    // disable interrupts
    uart_write_reg(IER, 0x00);
    80000058:	100007b7          	lui	a5,0x10000
    8000005c:	0785                	addi	a5,a5,1 # 10000001 <_start-0x6fffffff>
    8000005e:	00078023          	sb	zero,0(a5)
/home/whalefall/Projects/WhaleOS/kernel/devices/uart.c:30

    // enable divcisor latch
    uart_write_reg(LCR, ((1 << 7) | uart_read_reg(LCR)));
    80000062:	100007b7          	lui	a5,0x10000
    80000066:	078d                	addi	a5,a5,3 # 10000003 <_start-0x6ffffffd>
    80000068:	0007c783          	lbu	a5,0(a5)
    8000006c:	0ff7f713          	zext.b	a4,a5
    80000070:	100007b7          	lui	a5,0x10000
    80000074:	078d                	addi	a5,a5,3 # 10000003 <_start-0x6ffffffd>
    80000076:	f8076713          	ori	a4,a4,-128
    8000007a:	0ff77713          	zext.b	a4,a4
    8000007e:	00e78023          	sb	a4,0(a5)
/home/whalefall/Projects/WhaleOS/kernel/devices/uart.c:32
    // baud rate 38.4k
    uart_write_reg(DLL, 0x03);
    80000082:	100007b7          	lui	a5,0x10000
    80000086:	470d                	li	a4,3
    80000088:	00e78023          	sb	a4,0(a5) # 10000000 <_start-0x70000000>
/home/whalefall/Projects/WhaleOS/kernel/devices/uart.c:33
    uart_write_reg(DLM, 0x00);
    8000008c:	100007b7          	lui	a5,0x10000
    80000090:	0785                	addi	a5,a5,1 # 10000001 <_start-0x6fffffff>
    80000092:	00078023          	sb	zero,0(a5)
/home/whalefall/Projects/WhaleOS/kernel/devices/uart.c:37

    // leave set-baud mode,
    // and set word length to 8 bits, no parity.
    uart_write_reg(LCR, 0x03);
    80000096:	100007b7          	lui	a5,0x10000
    8000009a:	078d                	addi	a5,a5,3 # 10000003 <_start-0x6ffffffd>
    8000009c:	470d                	li	a4,3
    8000009e:	00e78023          	sb	a4,0(a5)
/home/whalefall/Projects/WhaleOS/kernel/devices/uart.c:41

    // enable RHR, THR interrupts
    // uart_write_reg(IER, 0x03);
}
    800000a2:	0001                	nop
    800000a4:	60a2                	ld	ra,8(sp)
    800000a6:	6402                	ld	s0,0(sp)
    800000a8:	0141                	addi	sp,sp,16
    800000aa:	8082                	ret

00000000800000ac <uart_putc>:
uart_putc():
/home/whalefall/Projects/WhaleOS/kernel/devices/uart.c:46

// polling
char 
uart_putc(char c)
{
    800000ac:	1101                	addi	sp,sp,-32
    800000ae:	ec06                	sd	ra,24(sp)
    800000b0:	e822                	sd	s0,16(sp)
    800000b2:	1000                	addi	s0,sp,32
    800000b4:	87aa                	mv	a5,a0
    800000b6:	fef407a3          	sb	a5,-17(s0)
/home/whalefall/Projects/WhaleOS/kernel/devices/uart.c:47
    while ((uart_read_reg(LSR) & LSR_TX_IDLE) == 0)
    800000ba:	0001                	nop
/home/whalefall/Projects/WhaleOS/kernel/devices/uart.c:47 (discriminator 1)
    800000bc:	100007b7          	lui	a5,0x10000
    800000c0:	0795                	addi	a5,a5,5 # 10000005 <_start-0x6ffffffb>
    800000c2:	0007c783          	lbu	a5,0(a5)
    800000c6:	0ff7f793          	zext.b	a5,a5
    800000ca:	2781                	sext.w	a5,a5
    800000cc:	0207f793          	andi	a5,a5,32
    800000d0:	2781                	sext.w	a5,a5
    800000d2:	d7ed                	beqz	a5,800000bc <uart_putc+0x10>
/home/whalefall/Projects/WhaleOS/kernel/devices/uart.c:49
        ;
    return uart_write_reg(THR, c);
    800000d4:	10000737          	lui	a4,0x10000
    800000d8:	fef44783          	lbu	a5,-17(s0)
    800000dc:	00f70023          	sb	a5,0(a4) # 10000000 <_start-0x70000000>
/home/whalefall/Projects/WhaleOS/kernel/devices/uart.c:50
}
    800000e0:	853e                	mv	a0,a5
    800000e2:	60e2                	ld	ra,24(sp)
    800000e4:	6442                	ld	s0,16(sp)
    800000e6:	6105                	addi	sp,sp,32
    800000e8:	8082                	ret

00000000800000ea <test_printf>:
test_printf():
/home/whalefall/Projects/WhaleOS/kernel/test/testlib.c:6
#include <defs.h>
#include <debug.h>

void
test_printf()
{
    800000ea:	1141                	addi	sp,sp,-16
    800000ec:	e406                	sd	ra,8(sp)
    800000ee:	e022                	sd	s0,0(sp)
    800000f0:	0800                	addi	s0,sp,16
/home/whalefall/Projects/WhaleOS/kernel/test/testlib.c:7
    printf("Test print p, show test_printf addr: %p\n", test_printf);
    800000f2:	00000597          	auipc	a1,0x0
    800000f6:	ff858593          	addi	a1,a1,-8 # 800000ea <test_printf>
    800000fa:	00001517          	auipc	a0,0x1
    800000fe:	4be50513          	addi	a0,a0,1214 # 800015b8 <memcpy+0x36>
    80000102:	72d000ef          	jal	8000102e <printf>
/home/whalefall/Projects/WhaleOS/kernel/test/testlib.c:8
    printf("Test print s, show my name and char 'a': %s %c\n", "WhaleFall", 'a');
    80000106:	06100613          	li	a2,97
    8000010a:	00001597          	auipc	a1,0x1
    8000010e:	4de58593          	addi	a1,a1,1246 # 800015e8 <memcpy+0x66>
    80000112:	00001517          	auipc	a0,0x1
    80000116:	4e650513          	addi	a0,a0,1254 # 800015f8 <memcpy+0x76>
    8000011a:	715000ef          	jal	8000102e <printf>
/home/whalefall/Projects/WhaleOS/kernel/test/testlib.c:9
    printf("Test print u, show 114514: %u\n", 114514);
    8000011e:	67f1                	lui	a5,0x1c
    80000120:	f5278593          	addi	a1,a5,-174 # 1bf52 <_start-0x7ffe40ae>
    80000124:	00001517          	auipc	a0,0x1
    80000128:	50450513          	addi	a0,a0,1284 # 80001628 <memcpy+0xa6>
    8000012c:	703000ef          	jal	8000102e <printf>
/home/whalefall/Projects/WhaleOS/kernel/test/testlib.c:10
    printf("Test print d, show -114514: %d\n", -114514);
    80000130:	7791                	lui	a5,0xfffe4
    80000132:	0ae78593          	addi	a1,a5,174 # fffffffffffe40ae <__BSS_END__+0xffffffff7ffe00ae>
    80000136:	00001517          	auipc	a0,0x1
    8000013a:	51250513          	addi	a0,a0,1298 # 80001648 <memcpy+0xc6>
    8000013e:	6f1000ef          	jal	8000102e <printf>
/home/whalefall/Projects/WhaleOS/kernel/test/testlib.c:11
    printf("Test print x, show 0x11451a: %#x and upper without '0x': %X\n", 0x11451A, 0x114514A);
    80000142:	011457b7          	lui	a5,0x1145
    80000146:	14a78613          	addi	a2,a5,330 # 114514a <_start-0x7eebaeb6>
    8000014a:	001147b7          	lui	a5,0x114
    8000014e:	51a78593          	addi	a1,a5,1306 # 11451a <_start-0x7feebae6>
    80000152:	00001517          	auipc	a0,0x1
    80000156:	51650513          	addi	a0,a0,1302 # 80001668 <memcpy+0xe6>
    8000015a:	6d5000ef          	jal	8000102e <printf>
/home/whalefall/Projects/WhaleOS/kernel/test/testlib.c:12
}
    8000015e:	0001                	nop
    80000160:	60a2                	ld	ra,8(sp)
    80000162:	6402                	ld	s0,0(sp)
    80000164:	0141                	addi	sp,sp,16
    80000166:	8082                	ret

0000000080000168 <test_strcpy>:
test_strcpy():
/home/whalefall/Projects/WhaleOS/kernel/test/testlib.c:16

static inline void 
test_strcpy() 
{
    80000168:	7139                	addi	sp,sp,-64
    8000016a:	fc06                	sd	ra,56(sp)
    8000016c:	f822                	sd	s0,48(sp)
    8000016e:	0080                	addi	s0,sp,64
/home/whalefall/Projects/WhaleOS/kernel/test/testlib.c:17
    char src[] = "Hello World";
    80000170:	00001797          	auipc	a5,0x1
    80000174:	58078793          	addi	a5,a5,1408 # 800016f0 <memcpy+0x16e>
    80000178:	6398                	ld	a4,0(a5)
    8000017a:	fee43023          	sd	a4,-32(s0)
    8000017e:	479c                	lw	a5,8(a5)
    80000180:	fef42423          	sw	a5,-24(s0)
/home/whalefall/Projects/WhaleOS/kernel/test/testlib.c:20
    char dest[20];
    
    strcpy(dest, src);
    80000184:	fe040713          	addi	a4,s0,-32
    80000188:	fc840793          	addi	a5,s0,-56
    8000018c:	85ba                	mv	a1,a4
    8000018e:	853e                	mv	a0,a5
    80000190:	012010ef          	jal	800011a2 <strcpy>
/home/whalefall/Projects/WhaleOS/kernel/test/testlib.c:21
    assert(strcmp(dest, src) == 0);
    80000194:	fe040713          	addi	a4,s0,-32
    80000198:	fc840793          	addi	a5,s0,-56
    8000019c:	85ba                	mv	a1,a4
    8000019e:	853e                	mv	a0,a5
    800001a0:	172010ef          	jal	80001312 <strcmp>
    800001a4:	87aa                	mv	a5,a0
/home/whalefall/Projects/WhaleOS/kernel/test/testlib.c:21 (discriminator 1)
    800001a6:	c385                	beqz	a5,800001c6 <test_strcpy+0x5e>
    800001a8:	00001697          	auipc	a3,0x1
    800001ac:	5f068693          	addi	a3,a3,1520 # 80001798 <__func__.5>
    800001b0:	4655                	li	a2,21
    800001b2:	00001597          	auipc	a1,0x1
    800001b6:	4f658593          	addi	a1,a1,1270 # 800016a8 <memcpy+0x126>
    800001ba:	00001517          	auipc	a0,0x1
    800001be:	50650513          	addi	a0,a0,1286 # 800016c0 <memcpy+0x13e>
    800001c2:	66d000ef          	jal	8000102e <printf>
/home/whalefall/Projects/WhaleOS/kernel/test/testlib.c:24
    
    char short_dest[5];
    strcpy(short_dest, "test");
    800001c6:	747367b7          	lui	a5,0x74736
    800001ca:	57478793          	addi	a5,a5,1396 # 74736574 <_start-0xb8c9a8c>
    800001ce:	fcf42023          	sw	a5,-64(s0)
    800001d2:	fc040223          	sb	zero,-60(s0)
/home/whalefall/Projects/WhaleOS/kernel/test/testlib.c:25
    assert(strcmp(short_dest, "test") == 0);
    800001d6:	fc040793          	addi	a5,s0,-64
    800001da:	00001597          	auipc	a1,0x1
    800001de:	50e58593          	addi	a1,a1,1294 # 800016e8 <memcpy+0x166>
    800001e2:	853e                	mv	a0,a5
    800001e4:	12e010ef          	jal	80001312 <strcmp>
    800001e8:	87aa                	mv	a5,a0
/home/whalefall/Projects/WhaleOS/kernel/test/testlib.c:25 (discriminator 1)
    800001ea:	c385                	beqz	a5,8000020a <test_strcpy+0xa2>
    800001ec:	00001697          	auipc	a3,0x1
    800001f0:	5ac68693          	addi	a3,a3,1452 # 80001798 <__func__.5>
    800001f4:	4665                	li	a2,25
    800001f6:	00001597          	auipc	a1,0x1
    800001fa:	4b258593          	addi	a1,a1,1202 # 800016a8 <memcpy+0x126>
    800001fe:	00001517          	auipc	a0,0x1
    80000202:	4c250513          	addi	a0,a0,1218 # 800016c0 <memcpy+0x13e>
    80000206:	629000ef          	jal	8000102e <printf>
/home/whalefall/Projects/WhaleOS/kernel/test/testlib.c:26
}
    8000020a:	0001                	nop
    8000020c:	70e2                	ld	ra,56(sp)
    8000020e:	7442                	ld	s0,48(sp)
    80000210:	6121                	addi	sp,sp,64
    80000212:	8082                	ret

0000000080000214 <test_strncpy>:
test_strncpy():
/home/whalefall/Projects/WhaleOS/kernel/test/testlib.c:30

static inline void 
test_strncpy() 
{
    80000214:	7179                	addi	sp,sp,-48
    80000216:	f406                	sd	ra,40(sp)
    80000218:	f022                	sd	s0,32(sp)
    8000021a:	1800                	addi	s0,sp,48
/home/whalefall/Projects/WhaleOS/kernel/test/testlib.c:31
    char src[] = "Hello";
    8000021c:	6c6c67b7          	lui	a5,0x6c6c6
    80000220:	54878793          	addi	a5,a5,1352 # 6c6c6548 <_start-0x13939ab8>
    80000224:	fef42423          	sw	a5,-24(s0)
    80000228:	06f00793          	li	a5,111
    8000022c:	fef41623          	sh	a5,-20(s0)
/home/whalefall/Projects/WhaleOS/kernel/test/testlib.c:34
    char dest[6];
    
    strncpy(dest, src, 5);
    80000230:	fe840713          	addi	a4,s0,-24
    80000234:	fe040793          	addi	a5,s0,-32
    80000238:	4615                	li	a2,5
    8000023a:	85ba                	mv	a1,a4
    8000023c:	853e                	mv	a0,a5
    8000023e:	6f5000ef          	jal	80001132 <strncpy>
/home/whalefall/Projects/WhaleOS/kernel/test/testlib.c:35
    dest[5] = '\0';
    80000242:	fe0402a3          	sb	zero,-27(s0)
/home/whalefall/Projects/WhaleOS/kernel/test/testlib.c:36
    assert(strcmp(dest, "Hello") == 0);
    80000246:	fe040793          	addi	a5,s0,-32
    8000024a:	00001597          	auipc	a1,0x1
    8000024e:	4b658593          	addi	a1,a1,1206 # 80001700 <memcpy+0x17e>
    80000252:	853e                	mv	a0,a5
    80000254:	0be010ef          	jal	80001312 <strcmp>
    80000258:	87aa                	mv	a5,a0
/home/whalefall/Projects/WhaleOS/kernel/test/testlib.c:36 (discriminator 1)
    8000025a:	c38d                	beqz	a5,8000027c <test_strncpy+0x68>
    8000025c:	00001697          	auipc	a3,0x1
    80000260:	54c68693          	addi	a3,a3,1356 # 800017a8 <__func__.4>
    80000264:	02400613          	li	a2,36
    80000268:	00001597          	auipc	a1,0x1
    8000026c:	44058593          	addi	a1,a1,1088 # 800016a8 <memcpy+0x126>
    80000270:	00001517          	auipc	a0,0x1
    80000274:	45050513          	addi	a0,a0,1104 # 800016c0 <memcpy+0x13e>
    80000278:	5b7000ef          	jal	8000102e <printf>
/home/whalefall/Projects/WhaleOS/kernel/test/testlib.c:39
    
    char dest2[7];
    strncpy(dest2, src, 7);
    8000027c:	fe840713          	addi	a4,s0,-24
    80000280:	fd840793          	addi	a5,s0,-40
    80000284:	461d                	li	a2,7
    80000286:	85ba                	mv	a1,a4
    80000288:	853e                	mv	a0,a5
    8000028a:	6a9000ef          	jal	80001132 <strncpy>
/home/whalefall/Projects/WhaleOS/kernel/test/testlib.c:40
    assert(memcmp(dest2, "Hello\0\0", 7) == 0);
    8000028e:	fd840793          	addi	a5,s0,-40
    80000292:	461d                	li	a2,7
    80000294:	00001597          	auipc	a1,0x1
    80000298:	47458593          	addi	a1,a1,1140 # 80001708 <memcpy+0x186>
    8000029c:	853e                	mv	a0,a5
    8000029e:	182010ef          	jal	80001420 <memcmp>
    800002a2:	87aa                	mv	a5,a0
/home/whalefall/Projects/WhaleOS/kernel/test/testlib.c:40 (discriminator 1)
    800002a4:	c38d                	beqz	a5,800002c6 <test_strncpy+0xb2>
    800002a6:	00001697          	auipc	a3,0x1
    800002aa:	50268693          	addi	a3,a3,1282 # 800017a8 <__func__.4>
    800002ae:	02800613          	li	a2,40
    800002b2:	00001597          	auipc	a1,0x1
    800002b6:	3f658593          	addi	a1,a1,1014 # 800016a8 <memcpy+0x126>
    800002ba:	00001517          	auipc	a0,0x1
    800002be:	40650513          	addi	a0,a0,1030 # 800016c0 <memcpy+0x13e>
    800002c2:	56d000ef          	jal	8000102e <printf>
/home/whalefall/Projects/WhaleOS/kernel/test/testlib.c:41
}
    800002c6:	0001                	nop
    800002c8:	70a2                	ld	ra,40(sp)
    800002ca:	7402                	ld	s0,32(sp)
    800002cc:	6145                	addi	sp,sp,48
    800002ce:	8082                	ret

00000000800002d0 <test_strncmp>:
test_strncmp():
/home/whalefall/Projects/WhaleOS/kernel/test/testlib.c:44


static inline void test_strncmp() {
    800002d0:	1141                	addi	sp,sp,-16
    800002d2:	e406                	sd	ra,8(sp)
    800002d4:	e022                	sd	s0,0(sp)
    800002d6:	0800                	addi	s0,sp,16
/home/whalefall/Projects/WhaleOS/kernel/test/testlib.c:48
    assert(strncmp("apple", "apples", 5) == 0);
    assert(strncmp("apple", "apples", 6) < 0);
    assert(strncmp("zoo", "apple", 1) > 0);
}
    800002d8:	0001                	nop
    800002da:	60a2                	ld	ra,8(sp)
    800002dc:	6402                	ld	s0,0(sp)
    800002de:	0141                	addi	sp,sp,16
    800002e0:	8082                	ret

00000000800002e2 <test_memset>:
test_memset():
/home/whalefall/Projects/WhaleOS/kernel/test/testlib.c:52

static inline void 
test_memset() 
{
    800002e2:	1101                	addi	sp,sp,-32
    800002e4:	ec06                	sd	ra,24(sp)
    800002e6:	e822                	sd	s0,16(sp)
    800002e8:	1000                	addi	s0,sp,32
/home/whalefall/Projects/WhaleOS/kernel/test/testlib.c:54
    char buf[10];
    memset(buf, 'A', 9);
    800002ea:	fe040793          	addi	a5,s0,-32
    800002ee:	4625                	li	a2,9
    800002f0:	04100593          	li	a1,65
    800002f4:	853e                	mv	a0,a5
    800002f6:	0cc010ef          	jal	800013c2 <memset>
/home/whalefall/Projects/WhaleOS/kernel/test/testlib.c:55
    buf[9] = '\0';
    800002fa:	fe0404a3          	sb	zero,-23(s0)
/home/whalefall/Projects/WhaleOS/kernel/test/testlib.c:56
    assert(strcmp(buf, "AAAAAAAAA") == 0);
    800002fe:	fe040793          	addi	a5,s0,-32
    80000302:	00001597          	auipc	a1,0x1
    80000306:	40e58593          	addi	a1,a1,1038 # 80001710 <memcpy+0x18e>
    8000030a:	853e                	mv	a0,a5
    8000030c:	006010ef          	jal	80001312 <strcmp>
    80000310:	87aa                	mv	a5,a0
/home/whalefall/Projects/WhaleOS/kernel/test/testlib.c:56 (discriminator 1)
    80000312:	c38d                	beqz	a5,80000334 <test_memset+0x52>
    80000314:	00001697          	auipc	a3,0x1
    80000318:	4a468693          	addi	a3,a3,1188 # 800017b8 <__func__.3>
    8000031c:	03800613          	li	a2,56
    80000320:	00001597          	auipc	a1,0x1
    80000324:	38858593          	addi	a1,a1,904 # 800016a8 <memcpy+0x126>
    80000328:	00001517          	auipc	a0,0x1
    8000032c:	39850513          	addi	a0,a0,920 # 800016c0 <memcpy+0x13e>
    80000330:	4ff000ef          	jal	8000102e <printf>
/home/whalefall/Projects/WhaleOS/kernel/test/testlib.c:58
    
    memset(buf+2, 'B', 3);
    80000334:	fe040793          	addi	a5,s0,-32
    80000338:	0789                	addi	a5,a5,2
    8000033a:	460d                	li	a2,3
    8000033c:	04200593          	li	a1,66
    80000340:	853e                	mv	a0,a5
    80000342:	080010ef          	jal	800013c2 <memset>
/home/whalefall/Projects/WhaleOS/kernel/test/testlib.c:59
    assert(memcmp(buf, "AABBBAAAA", 9) == 0);
    80000346:	fe040793          	addi	a5,s0,-32
    8000034a:	4625                	li	a2,9
    8000034c:	00001597          	auipc	a1,0x1
    80000350:	3d458593          	addi	a1,a1,980 # 80001720 <memcpy+0x19e>
    80000354:	853e                	mv	a0,a5
    80000356:	0ca010ef          	jal	80001420 <memcmp>
    8000035a:	87aa                	mv	a5,a0
/home/whalefall/Projects/WhaleOS/kernel/test/testlib.c:59 (discriminator 1)
    8000035c:	c38d                	beqz	a5,8000037e <test_memset+0x9c>
    8000035e:	00001697          	auipc	a3,0x1
    80000362:	45a68693          	addi	a3,a3,1114 # 800017b8 <__func__.3>
    80000366:	03b00613          	li	a2,59
    8000036a:	00001597          	auipc	a1,0x1
    8000036e:	33e58593          	addi	a1,a1,830 # 800016a8 <memcpy+0x126>
    80000372:	00001517          	auipc	a0,0x1
    80000376:	34e50513          	addi	a0,a0,846 # 800016c0 <memcpy+0x13e>
    8000037a:	4b5000ef          	jal	8000102e <printf>
/home/whalefall/Projects/WhaleOS/kernel/test/testlib.c:60
}
    8000037e:	0001                	nop
    80000380:	60e2                	ld	ra,24(sp)
    80000382:	6442                	ld	s0,16(sp)
    80000384:	6105                	addi	sp,sp,32
    80000386:	8082                	ret

0000000080000388 <test_memcpy>:
test_memcpy():
/home/whalefall/Projects/WhaleOS/kernel/test/testlib.c:64

static inline void 
test_memcpy() 
{
    80000388:	715d                	addi	sp,sp,-80
    8000038a:	e486                	sd	ra,72(sp)
    8000038c:	e0a2                	sd	s0,64(sp)
    8000038e:	0880                	addi	s0,sp,80
/home/whalefall/Projects/WhaleOS/kernel/test/testlib.c:65
    char src[] = "123456789";
    80000390:	00001797          	auipc	a5,0x1
    80000394:	3a878793          	addi	a5,a5,936 # 80001738 <memcpy+0x1b6>
    80000398:	6398                	ld	a4,0(a5)
    8000039a:	fee43023          	sd	a4,-32(s0)
    8000039e:	0087d783          	lhu	a5,8(a5)
    800003a2:	fef41423          	sh	a5,-24(s0)
/home/whalefall/Projects/WhaleOS/kernel/test/testlib.c:68
    char dest[10];
    
    memcpy(dest, src, 5);
    800003a6:	fe040713          	addi	a4,s0,-32
    800003aa:	fd040793          	addi	a5,s0,-48
    800003ae:	4615                	li	a2,5
    800003b0:	85ba                	mv	a1,a4
    800003b2:	853e                	mv	a0,a5
    800003b4:	1ce010ef          	jal	80001582 <memcpy>
/home/whalefall/Projects/WhaleOS/kernel/test/testlib.c:69
    assert(memcmp(dest, "12345", 5) == 0);
    800003b8:	fd040793          	addi	a5,s0,-48
    800003bc:	4615                	li	a2,5
    800003be:	00001597          	auipc	a1,0x1
    800003c2:	37258593          	addi	a1,a1,882 # 80001730 <memcpy+0x1ae>
    800003c6:	853e                	mv	a0,a5
    800003c8:	058010ef          	jal	80001420 <memcmp>
    800003cc:	87aa                	mv	a5,a0
/home/whalefall/Projects/WhaleOS/kernel/test/testlib.c:69 (discriminator 1)
    800003ce:	c38d                	beqz	a5,800003f0 <test_memcpy+0x68>
    800003d0:	00001697          	auipc	a3,0x1
    800003d4:	3f868693          	addi	a3,a3,1016 # 800017c8 <__func__.2>
    800003d8:	04500613          	li	a2,69
    800003dc:	00001597          	auipc	a1,0x1
    800003e0:	2cc58593          	addi	a1,a1,716 # 800016a8 <memcpy+0x126>
    800003e4:	00001517          	auipc	a0,0x1
    800003e8:	2dc50513          	addi	a0,a0,732 # 800016c0 <memcpy+0x13e>
    800003ec:	443000ef          	jal	8000102e <printf>
/home/whalefall/Projects/WhaleOS/kernel/test/testlib.c:71
    
    char nums[10] = {0,1,2,3,4,5,6,7,8,9};
    800003f0:	00001797          	auipc	a5,0x1
    800003f4:	35878793          	addi	a5,a5,856 # 80001748 <memcpy+0x1c6>
    800003f8:	6398                	ld	a4,0(a5)
    800003fa:	fce43023          	sd	a4,-64(s0)
    800003fe:	0087d783          	lhu	a5,8(a5)
    80000402:	fcf41423          	sh	a5,-56(s0)
/home/whalefall/Projects/WhaleOS/kernel/test/testlib.c:72
    memcpy(nums+2, nums, 3);
    80000406:	fc040793          	addi	a5,s0,-64
    8000040a:	0789                	addi	a5,a5,2
    8000040c:	fc040713          	addi	a4,s0,-64
    80000410:	460d                	li	a2,3
    80000412:	85ba                	mv	a1,a4
    80000414:	853e                	mv	a0,a5
    80000416:	16c010ef          	jal	80001582 <memcpy>
/home/whalefall/Projects/WhaleOS/kernel/test/testlib.c:73
    char nums_after[10] = {0,1,0,1,2,5,6,7,8,9};
    8000041a:	00001797          	auipc	a5,0x1
    8000041e:	33e78793          	addi	a5,a5,830 # 80001758 <memcpy+0x1d6>
    80000422:	6398                	ld	a4,0(a5)
    80000424:	fae43823          	sd	a4,-80(s0)
    80000428:	0087d783          	lhu	a5,8(a5)
    8000042c:	faf41c23          	sh	a5,-72(s0)
/home/whalefall/Projects/WhaleOS/kernel/test/testlib.c:74
    assert(memcmp(nums, nums_after, 10) == 0);
    80000430:	fb040713          	addi	a4,s0,-80
    80000434:	fc040793          	addi	a5,s0,-64
    80000438:	4629                	li	a2,10
    8000043a:	85ba                	mv	a1,a4
    8000043c:	853e                	mv	a0,a5
    8000043e:	7e3000ef          	jal	80001420 <memcmp>
    80000442:	87aa                	mv	a5,a0
/home/whalefall/Projects/WhaleOS/kernel/test/testlib.c:74 (discriminator 1)
    80000444:	c38d                	beqz	a5,80000466 <test_memcpy+0xde>
    80000446:	00001697          	auipc	a3,0x1
    8000044a:	38268693          	addi	a3,a3,898 # 800017c8 <__func__.2>
    8000044e:	04a00613          	li	a2,74
    80000452:	00001597          	auipc	a1,0x1
    80000456:	25658593          	addi	a1,a1,598 # 800016a8 <memcpy+0x126>
    8000045a:	00001517          	auipc	a0,0x1
    8000045e:	26650513          	addi	a0,a0,614 # 800016c0 <memcpy+0x13e>
    80000462:	3cd000ef          	jal	8000102e <printf>
/home/whalefall/Projects/WhaleOS/kernel/test/testlib.c:75
}
    80000466:	0001                	nop
    80000468:	60a6                	ld	ra,72(sp)
    8000046a:	6406                	ld	s0,64(sp)
    8000046c:	6161                	addi	sp,sp,80
    8000046e:	8082                	ret

0000000080000470 <test_memmove>:
test_memmove():
/home/whalefall/Projects/WhaleOS/kernel/test/testlib.c:79

static inline void 
test_memmove() 
{
    80000470:	7179                	addi	sp,sp,-48
    80000472:	f406                	sd	ra,40(sp)
    80000474:	f022                	sd	s0,32(sp)
    80000476:	1800                	addi	s0,sp,48
/home/whalefall/Projects/WhaleOS/kernel/test/testlib.c:80
    char buf[10] = "abcdefghi";
    80000478:	00001797          	auipc	a5,0x1
    8000047c:	31078793          	addi	a5,a5,784 # 80001788 <memcpy+0x206>
    80000480:	6398                	ld	a4,0(a5)
    80000482:	fee43023          	sd	a4,-32(s0)
    80000486:	0087d783          	lhu	a5,8(a5)
    8000048a:	fef41423          	sh	a5,-24(s0)
/home/whalefall/Projects/WhaleOS/kernel/test/testlib.c:82
    
    memmove(buf+3, buf, 4);
    8000048e:	fe040793          	addi	a5,s0,-32
    80000492:	078d                	addi	a5,a5,3
    80000494:	fe040713          	addi	a4,s0,-32
    80000498:	4611                	li	a2,4
    8000049a:	85ba                	mv	a1,a4
    8000049c:	853e                	mv	a0,a5
    8000049e:	008010ef          	jal	800014a6 <memmove>
/home/whalefall/Projects/WhaleOS/kernel/test/testlib.c:83
    assert(strcmp(buf, "abcabcdhi") == 0);
    800004a2:	fe040793          	addi	a5,s0,-32
    800004a6:	00001597          	auipc	a1,0x1
    800004aa:	2c258593          	addi	a1,a1,706 # 80001768 <memcpy+0x1e6>
    800004ae:	853e                	mv	a0,a5
    800004b0:	663000ef          	jal	80001312 <strcmp>
    800004b4:	87aa                	mv	a5,a0
/home/whalefall/Projects/WhaleOS/kernel/test/testlib.c:83 (discriminator 1)
    800004b6:	c38d                	beqz	a5,800004d8 <test_memmove+0x68>
    800004b8:	00001697          	auipc	a3,0x1
    800004bc:	32068693          	addi	a3,a3,800 # 800017d8 <__func__.1>
    800004c0:	05300613          	li	a2,83
    800004c4:	00001597          	auipc	a1,0x1
    800004c8:	1e458593          	addi	a1,a1,484 # 800016a8 <memcpy+0x126>
    800004cc:	00001517          	auipc	a0,0x1
    800004d0:	1f450513          	addi	a0,a0,500 # 800016c0 <memcpy+0x13e>
    800004d4:	35b000ef          	jal	8000102e <printf>
/home/whalefall/Projects/WhaleOS/kernel/test/testlib.c:85
    
    char buf2[10] = "abcdefghi";
    800004d8:	00001797          	auipc	a5,0x1
    800004dc:	2b078793          	addi	a5,a5,688 # 80001788 <memcpy+0x206>
    800004e0:	6398                	ld	a4,0(a5)
    800004e2:	fce43823          	sd	a4,-48(s0)
    800004e6:	0087d783          	lhu	a5,8(a5)
    800004ea:	fcf41c23          	sh	a5,-40(s0)
/home/whalefall/Projects/WhaleOS/kernel/test/testlib.c:86
    memmove(buf2, buf2+2, 4);
    800004ee:	fd040793          	addi	a5,s0,-48
    800004f2:	0789                	addi	a5,a5,2
    800004f4:	fd040713          	addi	a4,s0,-48
    800004f8:	4611                	li	a2,4
    800004fa:	85be                	mv	a1,a5
    800004fc:	853a                	mv	a0,a4
    800004fe:	7a9000ef          	jal	800014a6 <memmove>
/home/whalefall/Projects/WhaleOS/kernel/test/testlib.c:87
    assert(memcmp(buf2, "cdefefghi", 9) == 0);
    80000502:	fd040793          	addi	a5,s0,-48
    80000506:	4625                	li	a2,9
    80000508:	00001597          	auipc	a1,0x1
    8000050c:	27058593          	addi	a1,a1,624 # 80001778 <memcpy+0x1f6>
    80000510:	853e                	mv	a0,a5
    80000512:	70f000ef          	jal	80001420 <memcmp>
    80000516:	87aa                	mv	a5,a0
/home/whalefall/Projects/WhaleOS/kernel/test/testlib.c:87 (discriminator 1)
    80000518:	c38d                	beqz	a5,8000053a <test_memmove+0xca>
    8000051a:	00001697          	auipc	a3,0x1
    8000051e:	2be68693          	addi	a3,a3,702 # 800017d8 <__func__.1>
    80000522:	05700613          	li	a2,87
    80000526:	00001597          	auipc	a1,0x1
    8000052a:	18258593          	addi	a1,a1,386 # 800016a8 <memcpy+0x126>
    8000052e:	00001517          	auipc	a0,0x1
    80000532:	19250513          	addi	a0,a0,402 # 800016c0 <memcpy+0x13e>
    80000536:	2f9000ef          	jal	8000102e <printf>
/home/whalefall/Projects/WhaleOS/kernel/test/testlib.c:88
}
    8000053a:	0001                	nop
    8000053c:	70a2                	ld	ra,40(sp)
    8000053e:	7402                	ld	s0,32(sp)
    80000540:	6145                	addi	sp,sp,48
    80000542:	8082                	ret

0000000080000544 <test_memcmp>:
test_memcmp():
/home/whalefall/Projects/WhaleOS/kernel/test/testlib.c:92

static inline void 
test_memcmp() 
{
    80000544:	7179                	addi	sp,sp,-48
    80000546:	f406                	sd	ra,40(sp)
    80000548:	f022                	sd	s0,32(sp)
    8000054a:	1800                	addi	s0,sp,48
/home/whalefall/Projects/WhaleOS/kernel/test/testlib.c:93
    char a[] = {1,2,3,4,5};
    8000054c:	040307b7          	lui	a5,0x4030
    80000550:	20178793          	addi	a5,a5,513 # 4030201 <_start-0x7bfcfdff>
    80000554:	fef42423          	sw	a5,-24(s0)
    80000558:	4795                	li	a5,5
    8000055a:	fef40623          	sb	a5,-20(s0)
/home/whalefall/Projects/WhaleOS/kernel/test/testlib.c:94
    char b[] = {1,2,3,4,5};
    8000055e:	040307b7          	lui	a5,0x4030
    80000562:	20178793          	addi	a5,a5,513 # 4030201 <_start-0x7bfcfdff>
    80000566:	fef42023          	sw	a5,-32(s0)
    8000056a:	4795                	li	a5,5
    8000056c:	fef40223          	sb	a5,-28(s0)
/home/whalefall/Projects/WhaleOS/kernel/test/testlib.c:95
    assert(memcmp(a, b, 5) == 0);
    80000570:	fe040713          	addi	a4,s0,-32
    80000574:	fe840793          	addi	a5,s0,-24
    80000578:	4615                	li	a2,5
    8000057a:	85ba                	mv	a1,a4
    8000057c:	853e                	mv	a0,a5
    8000057e:	6a3000ef          	jal	80001420 <memcmp>
    80000582:	87aa                	mv	a5,a0
/home/whalefall/Projects/WhaleOS/kernel/test/testlib.c:95 (discriminator 1)
    80000584:	c38d                	beqz	a5,800005a6 <test_memcmp+0x62>
    80000586:	00001697          	auipc	a3,0x1
    8000058a:	26268693          	addi	a3,a3,610 # 800017e8 <__func__.0>
    8000058e:	05f00613          	li	a2,95
    80000592:	00001597          	auipc	a1,0x1
    80000596:	11658593          	addi	a1,a1,278 # 800016a8 <memcpy+0x126>
    8000059a:	00001517          	auipc	a0,0x1
    8000059e:	12650513          	addi	a0,a0,294 # 800016c0 <memcpy+0x13e>
    800005a2:	28d000ef          	jal	8000102e <printf>
/home/whalefall/Projects/WhaleOS/kernel/test/testlib.c:97
    
    char c[] = {1,2,0,4,5};
    800005a6:	040007b7          	lui	a5,0x4000
    800005aa:	20178793          	addi	a5,a5,513 # 4000201 <_start-0x7bfffdff>
    800005ae:	fcf42c23          	sw	a5,-40(s0)
    800005b2:	4795                	li	a5,5
    800005b4:	fcf40e23          	sb	a5,-36(s0)
/home/whalefall/Projects/WhaleOS/kernel/test/testlib.c:98
    assert(memcmp(a, c, 5) > 0);
    800005b8:	fd840713          	addi	a4,s0,-40
    800005bc:	fe840793          	addi	a5,s0,-24
    800005c0:	4615                	li	a2,5
    800005c2:	85ba                	mv	a1,a4
    800005c4:	853e                	mv	a0,a5
    800005c6:	65b000ef          	jal	80001420 <memcmp>
    800005ca:	87aa                	mv	a5,a0
/home/whalefall/Projects/WhaleOS/kernel/test/testlib.c:98 (discriminator 1)
    800005cc:	02f04263          	bgtz	a5,800005f0 <test_memcmp+0xac>
    800005d0:	00001697          	auipc	a3,0x1
    800005d4:	21868693          	addi	a3,a3,536 # 800017e8 <__func__.0>
    800005d8:	06200613          	li	a2,98
    800005dc:	00001597          	auipc	a1,0x1
    800005e0:	0cc58593          	addi	a1,a1,204 # 800016a8 <memcpy+0x126>
    800005e4:	00001517          	auipc	a0,0x1
    800005e8:	0dc50513          	addi	a0,a0,220 # 800016c0 <memcpy+0x13e>
    800005ec:	243000ef          	jal	8000102e <printf>
/home/whalefall/Projects/WhaleOS/kernel/test/testlib.c:101

    assert(memcmp("abcd", "abce", 3) == 0);
}
    800005f0:	0001                	nop
    800005f2:	70a2                	ld	ra,40(sp)
    800005f4:	7402                	ld	s0,32(sp)
    800005f6:	6145                	addi	sp,sp,48
    800005f8:	8082                	ret

00000000800005fa <test_string>:
test_string():
/home/whalefall/Projects/WhaleOS/kernel/test/testlib.c:105

void 
test_string() 
{
    800005fa:	1141                	addi	sp,sp,-16
    800005fc:	e406                	sd	ra,8(sp)
    800005fe:	e022                	sd	s0,0(sp)
    80000600:	0800                	addi	s0,sp,16
/home/whalefall/Projects/WhaleOS/kernel/test/testlib.c:106
    test_strcpy();
    80000602:	b67ff0ef          	jal	80000168 <test_strcpy>
/home/whalefall/Projects/WhaleOS/kernel/test/testlib.c:108
    // puts("Pass strcpy\n");
    test_strncpy();
    80000606:	c0fff0ef          	jal	80000214 <test_strncpy>
/home/whalefall/Projects/WhaleOS/kernel/test/testlib.c:110
    // puts("Pass strncpy\n");
    test_strncmp();
    8000060a:	cc7ff0ef          	jal	800002d0 <test_strncmp>
/home/whalefall/Projects/WhaleOS/kernel/test/testlib.c:112
    // puts("Pass strncmp\n");
    test_memset();
    8000060e:	cd5ff0ef          	jal	800002e2 <test_memset>
/home/whalefall/Projects/WhaleOS/kernel/test/testlib.c:114
    // puts("Pass memset\n");
    test_memcpy();
    80000612:	d77ff0ef          	jal	80000388 <test_memcpy>
/home/whalefall/Projects/WhaleOS/kernel/test/testlib.c:116
    // puts("Pass memcpy\n");
    test_memmove();
    80000616:	e5bff0ef          	jal	80000470 <test_memmove>
/home/whalefall/Projects/WhaleOS/kernel/test/testlib.c:118
    // puts("Pass memmove\n");
    test_memcmp();
    8000061a:	f2bff0ef          	jal	80000544 <test_memcmp>
/home/whalefall/Projects/WhaleOS/kernel/test/testlib.c:120
    // puts("Pass memcmp\n");
    8000061e:	0001                	nop
    80000620:	60a2                	ld	ra,8(sp)
    80000622:	6402                	ld	s0,0(sp)
    80000624:	0141                	addi	sp,sp,16
    80000626:	8082                	ret

0000000080000628 <main>:
main():
/home/whalefall/Projects/WhaleOS/kernel/main.c:15
char init_stack[PGSIZE] __attribute__((aligned(PGSIZE)));
char *init_stack_top = &init_stack[PGSIZE];

int 
main()
{
    80000628:	1141                	addi	sp,sp,-16
    8000062a:	e406                	sd	ra,8(sp)
    8000062c:	e022                	sd	s0,0(sp)
    8000062e:	0800                	addi	s0,sp,16
/home/whalefall/Projects/WhaleOS/kernel/main.c:16
    uart_init();
    80000630:	a21ff0ef          	jal	80000050 <uart_init>
/home/whalefall/Projects/WhaleOS/kernel/main.c:17
    puts("Initialize uart0\n");
    80000634:	00001517          	auipc	a0,0x1
    80000638:	1c450513          	addi	a0,a0,452 # 800017f8 <__func__.0+0x10>
    8000063c:	26f000ef          	jal	800010aa <puts>
/home/whalefall/Projects/WhaleOS/kernel/main.c:18
    test_printf();
    80000640:	aabff0ef          	jal	800000ea <test_printf>
/home/whalefall/Projects/WhaleOS/kernel/main.c:19
    test_string();
    80000644:	fb7ff0ef          	jal	800005fa <test_string>
/home/whalefall/Projects/WhaleOS/kernel/main.c:20
    return 0;
    80000648:	4781                	li	a5,0
/home/whalefall/Projects/WhaleOS/kernel/main.c:21
    8000064a:	853e                	mv	a0,a5
    8000064c:	60a2                	ld	ra,8(sp)
    8000064e:	6402                	ld	s0,0(sp)
    80000650:	0141                	addi	sp,sp,16
    80000652:	8082                	ret

0000000080000654 <skip_atoi>:
skip_atoi():
/home/whalefall/Projects/WhaleOS/kernel/lib/printf.c:26
static const char* digits_high = "0123456789ABCDEFGHIJKLMNOPQRSTUVWXYZ";

// string convert to number
static inline int
skip_atoi(const char** s)
{
    80000654:	7179                	addi	sp,sp,-48
    80000656:	f406                	sd	ra,40(sp)
    80000658:	f022                	sd	s0,32(sp)
    8000065a:	1800                	addi	s0,sp,48
    8000065c:	fca43c23          	sd	a0,-40(s0)
/home/whalefall/Projects/WhaleOS/kernel/lib/printf.c:27
    int i = 0;
    80000660:	fe042623          	sw	zero,-20(s0)
/home/whalefall/Projects/WhaleOS/kernel/lib/printf.c:28
    while (is_digit(**s))
    80000664:	a82d                	j	8000069e <skip_atoi+0x4a>
/home/whalefall/Projects/WhaleOS/kernel/lib/printf.c:29
        i = i * 10 + *((*s)++) - '0';
    80000666:	fec42783          	lw	a5,-20(s0)
    8000066a:	873e                	mv	a4,a5
    8000066c:	87ba                	mv	a5,a4
    8000066e:	0027979b          	slliw	a5,a5,0x2
    80000672:	9fb9                	addw	a5,a5,a4
    80000674:	0017979b          	slliw	a5,a5,0x1
    80000678:	0007871b          	sext.w	a4,a5
    8000067c:	fd843783          	ld	a5,-40(s0)
    80000680:	639c                	ld	a5,0(a5)
    80000682:	00178613          	addi	a2,a5,1
    80000686:	fd843683          	ld	a3,-40(s0)
    8000068a:	e290                	sd	a2,0(a3)
    8000068c:	0007c783          	lbu	a5,0(a5)
    80000690:	2781                	sext.w	a5,a5
    80000692:	9fb9                	addw	a5,a5,a4
    80000694:	2781                	sext.w	a5,a5
    80000696:	fd07879b          	addiw	a5,a5,-48
    8000069a:	fef42623          	sw	a5,-20(s0)
/home/whalefall/Projects/WhaleOS/kernel/lib/printf.c:28
    while (is_digit(**s))
    8000069e:	fd843783          	ld	a5,-40(s0)
    800006a2:	639c                	ld	a5,0(a5)
    800006a4:	0007c783          	lbu	a5,0(a5)
    800006a8:	873e                	mv	a4,a5
    800006aa:	02f00793          	li	a5,47
    800006ae:	00e7fc63          	bgeu	a5,a4,800006c6 <skip_atoi+0x72>
/home/whalefall/Projects/WhaleOS/kernel/lib/printf.c:28 (discriminator 1)
    800006b2:	fd843783          	ld	a5,-40(s0)
    800006b6:	639c                	ld	a5,0(a5)
    800006b8:	0007c783          	lbu	a5,0(a5)
    800006bc:	873e                	mv	a4,a5
    800006be:	03900793          	li	a5,57
    800006c2:	fae7f2e3          	bgeu	a5,a4,80000666 <skip_atoi+0x12>
/home/whalefall/Projects/WhaleOS/kernel/lib/printf.c:30
    return i;
    800006c6:	fec42783          	lw	a5,-20(s0)
/home/whalefall/Projects/WhaleOS/kernel/lib/printf.c:31
}
    800006ca:	853e                	mv	a0,a5
    800006cc:	70a2                	ld	ra,40(sp)
    800006ce:	7402                	ld	s0,32(sp)
    800006d0:	6145                	addi	sp,sp,48
    800006d2:	8082                	ret

00000000800006d4 <write>:
write():
/home/whalefall/Projects/WhaleOS/kernel/lib/printf.c:35

static inline void
write(char *buf, size_t n)
{
    800006d4:	7179                	addi	sp,sp,-48
    800006d6:	f406                	sd	ra,40(sp)
    800006d8:	f022                	sd	s0,32(sp)
    800006da:	1800                	addi	s0,sp,48
    800006dc:	fca43c23          	sd	a0,-40(s0)
    800006e0:	fcb43823          	sd	a1,-48(s0)
/home/whalefall/Projects/WhaleOS/kernel/lib/printf.c:36
    for (int i = 0; i < n; i++)
    800006e4:	fe042623          	sw	zero,-20(s0)
    800006e8:	a005                	j	80000708 <write+0x34>
/home/whalefall/Projects/WhaleOS/kernel/lib/printf.c:37
        uart_putc(buf[i]);
    800006ea:	fec42783          	lw	a5,-20(s0)
    800006ee:	fd843703          	ld	a4,-40(s0)
    800006f2:	97ba                	add	a5,a5,a4
    800006f4:	0007c783          	lbu	a5,0(a5)
    800006f8:	853e                	mv	a0,a5
    800006fa:	9b3ff0ef          	jal	800000ac <uart_putc>
/home/whalefall/Projects/WhaleOS/kernel/lib/printf.c:36 (discriminator 3)
    for (int i = 0; i < n; i++)
    800006fe:	fec42783          	lw	a5,-20(s0)
    80000702:	2785                	addiw	a5,a5,1
    80000704:	fef42623          	sw	a5,-20(s0)
/home/whalefall/Projects/WhaleOS/kernel/lib/printf.c:36 (discriminator 1)
    80000708:	fec42783          	lw	a5,-20(s0)
    8000070c:	fd043703          	ld	a4,-48(s0)
    80000710:	fce7ede3          	bltu	a5,a4,800006ea <write+0x16>
/home/whalefall/Projects/WhaleOS/kernel/lib/printf.c:38
}
    80000714:	0001                	nop
    80000716:	0001                	nop
    80000718:	70a2                	ld	ra,40(sp)
    8000071a:	7402                	ld	s0,32(sp)
    8000071c:	6145                	addi	sp,sp,48
    8000071e:	8082                	ret

0000000080000720 <number>:
number():
/home/whalefall/Projects/WhaleOS/kernel/lib/printf.c:44


// number convert to formatted string
static char* 
number(char *str, int num, int size, int precision, int type)
{
    80000720:	7119                	addi	sp,sp,-128
    80000722:	fc86                	sd	ra,120(sp)
    80000724:	f8a2                	sd	s0,112(sp)
    80000726:	0100                	addi	s0,sp,128
    80000728:	f8a43c23          	sd	a0,-104(s0)
    8000072c:	87ae                	mv	a5,a1
    8000072e:	f8f42a23          	sw	a5,-108(s0)
    80000732:	87b2                	mv	a5,a2
    80000734:	f8f42823          	sw	a5,-112(s0)
    80000738:	87b6                	mv	a5,a3
    8000073a:	f8f42623          	sw	a5,-116(s0)
    8000073e:	87ba                	mv	a5,a4
    80000740:	f8f42423          	sw	a5,-120(s0)
/home/whalefall/Projects/WhaleOS/kernel/lib/printf.c:45
    char c = 0, sign = 0, num_str[36];
    80000744:	fe0401a3          	sb	zero,-29(s0)
    80000748:	fe0407a3          	sb	zero,-17(s0)
/home/whalefall/Projects/WhaleOS/kernel/lib/printf.c:46
    int i = 0;
    8000074c:	fe042423          	sw	zero,-24(s0)
/home/whalefall/Projects/WhaleOS/kernel/lib/printf.c:47
    unsigned base = ((type & BIN) ? BIN : ((type & OCT) ? OCT : ((type & HEX) ? HEX : 10)));
    80000750:	f8842783          	lw	a5,-120(s0)
    80000754:	8b89                	andi	a5,a5,2
    80000756:	2781                	sext.w	a5,a5
    80000758:	e38d                	bnez	a5,8000077a <number+0x5a>
/home/whalefall/Projects/WhaleOS/kernel/lib/printf.c:47 (discriminator 1)
    8000075a:	f8842783          	lw	a5,-120(s0)
    8000075e:	8ba1                	andi	a5,a5,8
    80000760:	2781                	sext.w	a5,a5
    80000762:	eb91                	bnez	a5,80000776 <number+0x56>
/home/whalefall/Projects/WhaleOS/kernel/lib/printf.c:47 (discriminator 3)
    80000764:	f8842783          	lw	a5,-120(s0)
    80000768:	8bc1                	andi	a5,a5,16
    8000076a:	2781                	sext.w	a5,a5
    8000076c:	c399                	beqz	a5,80000772 <number+0x52>
/home/whalefall/Projects/WhaleOS/kernel/lib/printf.c:47 (discriminator 5)
    8000076e:	47c1                	li	a5,16
    80000770:	a031                	j	8000077c <number+0x5c>
/home/whalefall/Projects/WhaleOS/kernel/lib/printf.c:47 (discriminator 6)
    80000772:	47a9                	li	a5,10
    80000774:	a021                	j	8000077c <number+0x5c>
/home/whalefall/Projects/WhaleOS/kernel/lib/printf.c:47 (discriminator 4)
    80000776:	47a1                	li	a5,8
    80000778:	a011                	j	8000077c <number+0x5c>
/home/whalefall/Projects/WhaleOS/kernel/lib/printf.c:47 (discriminator 2)
    8000077a:	4789                	li	a5,2
/home/whalefall/Projects/WhaleOS/kernel/lib/printf.c:47 (discriminator 12)
    8000077c:	fcf42e23          	sw	a5,-36(s0)
/home/whalefall/Projects/WhaleOS/kernel/lib/printf.c:48
    const char* digits = (type & SMALL) ? digits_low : digits_high;
    80000780:	f8842783          	lw	a5,-120(s0)
    80000784:	0407f793          	andi	a5,a5,64
    80000788:	2781                	sext.w	a5,a5
    8000078a:	c799                	beqz	a5,80000798 <number+0x78>
/home/whalefall/Projects/WhaleOS/kernel/lib/printf.c:48 (discriminator 1)
    8000078c:	00002797          	auipc	a5,0x2
    80000790:	16c78793          	addi	a5,a5,364 # 800028f8 <digits_low>
    80000794:	639c                	ld	a5,0(a5)
    80000796:	a031                	j	800007a2 <number+0x82>
/home/whalefall/Projects/WhaleOS/kernel/lib/printf.c:48 (discriminator 2)
    80000798:	00002797          	auipc	a5,0x2
    8000079c:	16878793          	addi	a5,a5,360 # 80002900 <digits_high>
    800007a0:	639c                	ld	a5,0(a5)
/home/whalefall/Projects/WhaleOS/kernel/lib/printf.c:48 (discriminator 4)
    800007a2:	fcf43823          	sd	a5,-48(s0)
/home/whalefall/Projects/WhaleOS/kernel/lib/printf.c:51

    // left align forbid zeropad
    if (type & LEFT) type &= ~ZEROPAD;
    800007a6:	f8842783          	lw	a5,-120(s0)
    800007aa:	0207f793          	andi	a5,a5,32
    800007ae:	2781                	sext.w	a5,a5
    800007b0:	c791                	beqz	a5,800007bc <number+0x9c>
/home/whalefall/Projects/WhaleOS/kernel/lib/printf.c:51 (discriminator 1)
    800007b2:	f8842783          	lw	a5,-120(s0)
    800007b6:	9bf9                	andi	a5,a5,-2
    800007b8:	f8f42423          	sw	a5,-120(s0)
/home/whalefall/Projects/WhaleOS/kernel/lib/printf.c:53
    // set padding character
    c = (type & ZEROPAD) ? '0' : ' ';
    800007bc:	f8842783          	lw	a5,-120(s0)
    800007c0:	8b85                	andi	a5,a5,1
    800007c2:	2781                	sext.w	a5,a5
    800007c4:	c781                	beqz	a5,800007cc <number+0xac>
/home/whalefall/Projects/WhaleOS/kernel/lib/printf.c:53 (discriminator 1)
    800007c6:	03000793          	li	a5,48
    800007ca:	a019                	j	800007d0 <number+0xb0>
/home/whalefall/Projects/WhaleOS/kernel/lib/printf.c:53 (discriminator 2)
    800007cc:	02000793          	li	a5,32
/home/whalefall/Projects/WhaleOS/kernel/lib/printf.c:53 (discriminator 4)
    800007d0:	fef401a3          	sb	a5,-29(s0)
/home/whalefall/Projects/WhaleOS/kernel/lib/printf.c:55

    if ((type & SIGN) && num < 0)
    800007d4:	f8842783          	lw	a5,-120(s0)
    800007d8:	8b91                	andi	a5,a5,4
    800007da:	2781                	sext.w	a5,a5
    800007dc:	c385                	beqz	a5,800007fc <number+0xdc>
/home/whalefall/Projects/WhaleOS/kernel/lib/printf.c:55 (discriminator 1)
    800007de:	f9442783          	lw	a5,-108(s0)
    800007e2:	2781                	sext.w	a5,a5
    800007e4:	0007dc63          	bgez	a5,800007fc <number+0xdc>
/home/whalefall/Projects/WhaleOS/kernel/lib/printf.c:56
        sign = '-', num = -num;
    800007e8:	02d00793          	li	a5,45
    800007ec:	fef407a3          	sb	a5,-17(s0)
    800007f0:	f9442783          	lw	a5,-108(s0)
    800007f4:	40f007bb          	negw	a5,a5
    800007f8:	f8f42a23          	sw	a5,-108(s0)
/home/whalefall/Projects/WhaleOS/kernel/lib/printf.c:58

    size -= (sign) ? 1 : 0;
    800007fc:	fef44783          	lbu	a5,-17(s0)
    80000800:	2781                	sext.w	a5,a5
    80000802:	00f037b3          	snez	a5,a5
    80000806:	0ff7f793          	zext.b	a5,a5
    8000080a:	2781                	sext.w	a5,a5
    8000080c:	f9042703          	lw	a4,-112(s0)
    80000810:	40f707bb          	subw	a5,a4,a5
    80000814:	f8f42823          	sw	a5,-112(s0)
/home/whalefall/Projects/WhaleOS/kernel/lib/printf.c:60

    if (type & PREFIX) {
    80000818:	f8842783          	lw	a5,-120(s0)
    8000081c:	0807f793          	andi	a5,a5,128
    80000820:	2781                	sext.w	a5,a5
    80000822:	c3a9                	beqz	a5,80000864 <number+0x144>
/home/whalefall/Projects/WhaleOS/kernel/lib/printf.c:61
        size -= (((type & BIN) || (type & HEX)) ? 2 : 0);
    80000824:	f8842783          	lw	a5,-120(s0)
    80000828:	8b89                	andi	a5,a5,2
    8000082a:	2781                	sext.w	a5,a5
    8000082c:	e791                	bnez	a5,80000838 <number+0x118>
/home/whalefall/Projects/WhaleOS/kernel/lib/printf.c:61 (discriminator 2)
    8000082e:	f8842783          	lw	a5,-120(s0)
    80000832:	8bc1                	andi	a5,a5,16
    80000834:	2781                	sext.w	a5,a5
    80000836:	c399                	beqz	a5,8000083c <number+0x11c>
/home/whalefall/Projects/WhaleOS/kernel/lib/printf.c:61 (discriminator 3)
    80000838:	4789                	li	a5,2
/home/whalefall/Projects/WhaleOS/kernel/lib/printf.c:61
    8000083a:	a011                	j	8000083e <number+0x11e>
/home/whalefall/Projects/WhaleOS/kernel/lib/printf.c:61 (discriminator 4)
    8000083c:	4781                	li	a5,0
/home/whalefall/Projects/WhaleOS/kernel/lib/printf.c:61 (discriminator 6)
    8000083e:	f9042703          	lw	a4,-112(s0)
    80000842:	40f707bb          	subw	a5,a4,a5
    80000846:	f8f42823          	sw	a5,-112(s0)
/home/whalefall/Projects/WhaleOS/kernel/lib/printf.c:62
        size -= ((type & OCT) ? 1 : 0);
    8000084a:	f8842783          	lw	a5,-120(s0)
    8000084e:	4037d79b          	sraiw	a5,a5,0x3
    80000852:	2781                	sext.w	a5,a5
    80000854:	8b85                	andi	a5,a5,1
    80000856:	2781                	sext.w	a5,a5
    80000858:	f9042703          	lw	a4,-112(s0)
    8000085c:	40f707bb          	subw	a5,a4,a5
    80000860:	f8f42823          	sw	a5,-112(s0)
/home/whalefall/Projects/WhaleOS/kernel/lib/printf.c:66
    }

    // convert
    if (num == 0)
    80000864:	f9442783          	lw	a5,-108(s0)
    80000868:	2781                	sext.w	a5,a5
    8000086a:	ef91                	bnez	a5,80000886 <number+0x166>
/home/whalefall/Projects/WhaleOS/kernel/lib/printf.c:67
        num_str[i++] = '0';
    8000086c:	fe842783          	lw	a5,-24(s0)
    80000870:	0017871b          	addiw	a4,a5,1
    80000874:	fee42423          	sw	a4,-24(s0)
    80000878:	17c1                	addi	a5,a5,-16
    8000087a:	97a2                	add	a5,a5,s0
    8000087c:	03000713          	li	a4,48
    80000880:	fae78c23          	sb	a4,-72(a5)
    80000884:	a899                	j	800008da <number+0x1ba>
/home/whalefall/Projects/WhaleOS/kernel/lib/printf.c:69
    else {
        unsigned unum = num;
    80000886:	f9442783          	lw	a5,-108(s0)
    8000088a:	fef42223          	sw	a5,-28(s0)
/home/whalefall/Projects/WhaleOS/kernel/lib/printf.c:71
        do {
            num_str[i++] = digits[unum % base];
    8000088e:	fe442783          	lw	a5,-28(s0)
    80000892:	873e                	mv	a4,a5
    80000894:	fdc42783          	lw	a5,-36(s0)
    80000898:	02f777bb          	remuw	a5,a4,a5
    8000089c:	2781                	sext.w	a5,a5
    8000089e:	1782                	slli	a5,a5,0x20
    800008a0:	9381                	srli	a5,a5,0x20
    800008a2:	fd043703          	ld	a4,-48(s0)
    800008a6:	973e                	add	a4,a4,a5
    800008a8:	fe842783          	lw	a5,-24(s0)
    800008ac:	0017869b          	addiw	a3,a5,1
    800008b0:	fed42423          	sw	a3,-24(s0)
    800008b4:	00074703          	lbu	a4,0(a4)
    800008b8:	17c1                	addi	a5,a5,-16
    800008ba:	97a2                	add	a5,a5,s0
    800008bc:	fae78c23          	sb	a4,-72(a5)
/home/whalefall/Projects/WhaleOS/kernel/lib/printf.c:72
            unum /= base;
    800008c0:	fe442783          	lw	a5,-28(s0)
    800008c4:	873e                	mv	a4,a5
    800008c6:	fdc42783          	lw	a5,-36(s0)
    800008ca:	02f757bb          	divuw	a5,a4,a5
    800008ce:	fef42223          	sw	a5,-28(s0)
/home/whalefall/Projects/WhaleOS/kernel/lib/printf.c:73 (discriminator 1)
        } while (unum != 0);
    800008d2:	fe442783          	lw	a5,-28(s0)
    800008d6:	2781                	sext.w	a5,a5
    800008d8:	fbdd                	bnez	a5,8000088e <number+0x16e>
/home/whalefall/Projects/WhaleOS/kernel/lib/printf.c:76
    }

    precision = (i > precision ? i : precision);
    800008da:	fe842783          	lw	a5,-24(s0)
    800008de:	863e                	mv	a2,a5
    800008e0:	f8c42783          	lw	a5,-116(s0)
    800008e4:	0007869b          	sext.w	a3,a5
    800008e8:	0006071b          	sext.w	a4,a2
    800008ec:	00e6d363          	bge	a3,a4,800008f2 <number+0x1d2>
    800008f0:	87b2                	mv	a5,a2
    800008f2:	f8f42623          	sw	a5,-116(s0)
/home/whalefall/Projects/WhaleOS/kernel/lib/printf.c:77
    size -= precision;
    800008f6:	f9042783          	lw	a5,-112(s0)
    800008fa:	873e                	mv	a4,a5
    800008fc:	f8c42783          	lw	a5,-116(s0)
    80000900:	40f707bb          	subw	a5,a4,a5
    80000904:	f8f42823          	sw	a5,-112(s0)
/home/whalefall/Projects/WhaleOS/kernel/lib/printf.c:79

    if (!(type & (ZEROPAD | LEFT))) {
    80000908:	f8842783          	lw	a5,-120(s0)
    8000090c:	0217f793          	andi	a5,a5,33
    80000910:	2781                	sext.w	a5,a5
    80000912:	e785                	bnez	a5,8000093a <number+0x21a>
/home/whalefall/Projects/WhaleOS/kernel/lib/printf.c:80
        while (size-- > 0)
    80000914:	a819                	j	8000092a <number+0x20a>
/home/whalefall/Projects/WhaleOS/kernel/lib/printf.c:81
            *str++ = ' ';
    80000916:	f9843783          	ld	a5,-104(s0)
    8000091a:	00178713          	addi	a4,a5,1
    8000091e:	f8e43c23          	sd	a4,-104(s0)
    80000922:	02000713          	li	a4,32
    80000926:	00e78023          	sb	a4,0(a5)
/home/whalefall/Projects/WhaleOS/kernel/lib/printf.c:80
        while (size-- > 0)
    8000092a:	f9042783          	lw	a5,-112(s0)
    8000092e:	fff7871b          	addiw	a4,a5,-1
    80000932:	f8e42823          	sw	a4,-112(s0)
    80000936:	fef040e3          	bgtz	a5,80000916 <number+0x1f6>
/home/whalefall/Projects/WhaleOS/kernel/lib/printf.c:84
    }

    if (sign)
    8000093a:	fef44783          	lbu	a5,-17(s0)
    8000093e:	0ff7f793          	zext.b	a5,a5
    80000942:	cb99                	beqz	a5,80000958 <number+0x238>
/home/whalefall/Projects/WhaleOS/kernel/lib/printf.c:85
        *str++ = sign;
    80000944:	f9843783          	ld	a5,-104(s0)
    80000948:	00178713          	addi	a4,a5,1
    8000094c:	f8e43c23          	sd	a4,-104(s0)
    80000950:	fef44703          	lbu	a4,-17(s0)
    80000954:	00e78023          	sb	a4,0(a5)
/home/whalefall/Projects/WhaleOS/kernel/lib/printf.c:87

    if (type & PREFIX) {
    80000958:	f8842783          	lw	a5,-120(s0)
    8000095c:	0807f793          	andi	a5,a5,128
    80000960:	2781                	sext.w	a5,a5
    80000962:	c3ad                	beqz	a5,800009c4 <number+0x2a4>
/home/whalefall/Projects/WhaleOS/kernel/lib/printf.c:88
        *str++ = '0';
    80000964:	f9843783          	ld	a5,-104(s0)
    80000968:	00178713          	addi	a4,a5,1
    8000096c:	f8e43c23          	sd	a4,-104(s0)
    80000970:	03000713          	li	a4,48
    80000974:	00e78023          	sb	a4,0(a5)
/home/whalefall/Projects/WhaleOS/kernel/lib/printf.c:89
        if (type & BIN)
    80000978:	f8842783          	lw	a5,-120(s0)
    8000097c:	8b89                	andi	a5,a5,2
    8000097e:	2781                	sext.w	a5,a5
    80000980:	cf99                	beqz	a5,8000099e <number+0x27e>
/home/whalefall/Projects/WhaleOS/kernel/lib/printf.c:90
            *str++ = digits[11];
    80000982:	fd043783          	ld	a5,-48(s0)
    80000986:	00b78713          	addi	a4,a5,11
    8000098a:	f9843783          	ld	a5,-104(s0)
    8000098e:	00178693          	addi	a3,a5,1
    80000992:	f8d43c23          	sd	a3,-104(s0)
    80000996:	00074703          	lbu	a4,0(a4)
    8000099a:	00e78023          	sb	a4,0(a5)
/home/whalefall/Projects/WhaleOS/kernel/lib/printf.c:91
        if (type & HEX)
    8000099e:	f8842783          	lw	a5,-120(s0)
    800009a2:	8bc1                	andi	a5,a5,16
    800009a4:	2781                	sext.w	a5,a5
    800009a6:	cf99                	beqz	a5,800009c4 <number+0x2a4>
/home/whalefall/Projects/WhaleOS/kernel/lib/printf.c:92
            *str++ = digits[33];
    800009a8:	fd043783          	ld	a5,-48(s0)
    800009ac:	02178713          	addi	a4,a5,33
    800009b0:	f9843783          	ld	a5,-104(s0)
    800009b4:	00178693          	addi	a3,a5,1
    800009b8:	f8d43c23          	sd	a3,-104(s0)
    800009bc:	00074703          	lbu	a4,0(a4)
    800009c0:	00e78023          	sb	a4,0(a5)
/home/whalefall/Projects/WhaleOS/kernel/lib/printf.c:95
    }

    if (!(type & LEFT)) {
    800009c4:	f8842783          	lw	a5,-120(s0)
    800009c8:	0207f793          	andi	a5,a5,32
    800009cc:	2781                	sext.w	a5,a5
    800009ce:	ef9d                	bnez	a5,80000a0c <number+0x2ec>
/home/whalefall/Projects/WhaleOS/kernel/lib/printf.c:96
        while (size-- > 0)
    800009d0:	a819                	j	800009e6 <number+0x2c6>
/home/whalefall/Projects/WhaleOS/kernel/lib/printf.c:97
            *str++ = c;
    800009d2:	f9843783          	ld	a5,-104(s0)
    800009d6:	00178713          	addi	a4,a5,1
    800009da:	f8e43c23          	sd	a4,-104(s0)
    800009de:	fe344703          	lbu	a4,-29(s0)
    800009e2:	00e78023          	sb	a4,0(a5)
/home/whalefall/Projects/WhaleOS/kernel/lib/printf.c:96
        while (size-- > 0)
    800009e6:	f9042783          	lw	a5,-112(s0)
    800009ea:	fff7871b          	addiw	a4,a5,-1
    800009ee:	f8e42823          	sw	a4,-112(s0)
    800009f2:	fef040e3          	bgtz	a5,800009d2 <number+0x2b2>
/home/whalefall/Projects/WhaleOS/kernel/lib/printf.c:100
    }

    while (i < precision--) *str++ = '0';
    800009f6:	a819                	j	80000a0c <number+0x2ec>
/home/whalefall/Projects/WhaleOS/kernel/lib/printf.c:100 (discriminator 2)
    800009f8:	f9843783          	ld	a5,-104(s0)
    800009fc:	00178713          	addi	a4,a5,1
    80000a00:	f8e43c23          	sd	a4,-104(s0)
    80000a04:	03000713          	li	a4,48
    80000a08:	00e78023          	sb	a4,0(a5)
/home/whalefall/Projects/WhaleOS/kernel/lib/printf.c:100 (discriminator 1)
    80000a0c:	f8c42783          	lw	a5,-116(s0)
    80000a10:	fff7871b          	addiw	a4,a5,-1
    80000a14:	f8e42623          	sw	a4,-116(s0)
    80000a18:	fe842703          	lw	a4,-24(s0)
    80000a1c:	2701                	sext.w	a4,a4
    80000a1e:	fcf74de3          	blt	a4,a5,800009f8 <number+0x2d8>
/home/whalefall/Projects/WhaleOS/kernel/lib/printf.c:101
    while (i-- > 0) *str++ = num_str[i];
    80000a22:	a839                	j	80000a40 <number+0x320>
/home/whalefall/Projects/WhaleOS/kernel/lib/printf.c:101 (discriminator 2)
    80000a24:	f9843783          	ld	a5,-104(s0)
    80000a28:	00178713          	addi	a4,a5,1
    80000a2c:	f8e43c23          	sd	a4,-104(s0)
    80000a30:	fe842703          	lw	a4,-24(s0)
    80000a34:	1741                	addi	a4,a4,-16
    80000a36:	9722                	add	a4,a4,s0
    80000a38:	fb874703          	lbu	a4,-72(a4)
    80000a3c:	00e78023          	sb	a4,0(a5)
/home/whalefall/Projects/WhaleOS/kernel/lib/printf.c:101 (discriminator 1)
    80000a40:	fe842783          	lw	a5,-24(s0)
    80000a44:	fff7871b          	addiw	a4,a5,-1
    80000a48:	fee42423          	sw	a4,-24(s0)
    80000a4c:	fcf04ce3          	bgtz	a5,80000a24 <number+0x304>
/home/whalefall/Projects/WhaleOS/kernel/lib/printf.c:102
    while (size-- > 0) *str++ = ' ';
    80000a50:	a819                	j	80000a66 <number+0x346>
/home/whalefall/Projects/WhaleOS/kernel/lib/printf.c:102 (discriminator 2)
    80000a52:	f9843783          	ld	a5,-104(s0)
    80000a56:	00178713          	addi	a4,a5,1
    80000a5a:	f8e43c23          	sd	a4,-104(s0)
    80000a5e:	02000713          	li	a4,32
    80000a62:	00e78023          	sb	a4,0(a5)
/home/whalefall/Projects/WhaleOS/kernel/lib/printf.c:102 (discriminator 1)
    80000a66:	f9042783          	lw	a5,-112(s0)
    80000a6a:	fff7871b          	addiw	a4,a5,-1
    80000a6e:	f8e42823          	sw	a4,-112(s0)
    80000a72:	fef040e3          	bgtz	a5,80000a52 <number+0x332>
/home/whalefall/Projects/WhaleOS/kernel/lib/printf.c:104

    return str;
    80000a76:	f9843783          	ld	a5,-104(s0)
/home/whalefall/Projects/WhaleOS/kernel/lib/printf.c:105
}
    80000a7a:	853e                	mv	a0,a5
    80000a7c:	70e6                	ld	ra,120(sp)
    80000a7e:	7446                	ld	s0,112(sp)
    80000a80:	6109                	addi	sp,sp,128
    80000a82:	8082                	ret

0000000080000a84 <vsnprintf>:
vsnprintf():
/home/whalefall/Projects/WhaleOS/kernel/lib/printf.c:110


int 
vsnprintf(char *out, size_t n, const char* fmt, va_list ap)
{
    80000a84:	7159                	addi	sp,sp,-112
    80000a86:	f486                	sd	ra,104(sp)
    80000a88:	f0a2                	sd	s0,96(sp)
    80000a8a:	1880                	addi	s0,sp,112
    80000a8c:	faa43423          	sd	a0,-88(s0)
    80000a90:	fab43023          	sd	a1,-96(s0)
    80000a94:	f8c43c23          	sd	a2,-104(s0)
    80000a98:	f8d43823          	sd	a3,-112(s0)
/home/whalefall/Projects/WhaleOS/kernel/lib/printf.c:111
    int cnt = 0;
    80000a9c:	fe042623          	sw	zero,-20(s0)
/home/whalefall/Projects/WhaleOS/kernel/lib/printf.c:114
    char *str;

    for (str = out; *fmt && cnt < n; cnt++, fmt++) 
    80000aa0:	fa843783          	ld	a5,-88(s0)
    80000aa4:	fef43023          	sd	a5,-32(s0)
    80000aa8:	ab81                	j	80000ff8 <vsnprintf+0x574>
/home/whalefall/Projects/WhaleOS/kernel/lib/printf.c:116
    {
        if (*fmt != '%') {
    80000aaa:	f9843783          	ld	a5,-104(s0)
    80000aae:	0007c783          	lbu	a5,0(a5)
    80000ab2:	873e                	mv	a4,a5
    80000ab4:	02500793          	li	a5,37
    80000ab8:	00f70f63          	beq	a4,a5,80000ad6 <vsnprintf+0x52>
/home/whalefall/Projects/WhaleOS/kernel/lib/printf.c:117
            *str++ = *fmt;
    80000abc:	f9843703          	ld	a4,-104(s0)
    80000ac0:	fe043783          	ld	a5,-32(s0)
    80000ac4:	00178693          	addi	a3,a5,1
    80000ac8:	fed43023          	sd	a3,-32(s0)
    80000acc:	00074703          	lbu	a4,0(a4)
    80000ad0:	00e78023          	sb	a4,0(a5)
/home/whalefall/Projects/WhaleOS/kernel/lib/printf.c:118
            continue;
    80000ad4:	ab01                	j	80000fe4 <vsnprintf+0x560>
/home/whalefall/Projects/WhaleOS/kernel/lib/printf.c:121
        }

        int flags = 0;
    80000ad6:	fc042e23          	sw	zero,-36(s0)
/home/whalefall/Projects/WhaleOS/kernel/lib/printf.c:123
        loop:
            cnt++, fmt++;
    80000ada:	fec42783          	lw	a5,-20(s0)
    80000ade:	2785                	addiw	a5,a5,1
    80000ae0:	fef42623          	sw	a5,-20(s0)
    80000ae4:	f9843783          	ld	a5,-104(s0)
    80000ae8:	0785                	addi	a5,a5,1
    80000aea:	f8f43c23          	sd	a5,-104(s0)
/home/whalefall/Projects/WhaleOS/kernel/lib/printf.c:124
            switch(*fmt) {
    80000aee:	f9843783          	ld	a5,-104(s0)
    80000af2:	0007c783          	lbu	a5,0(a5)
    80000af6:	2781                	sext.w	a5,a5
    80000af8:	03000713          	li	a4,48
    80000afc:	02e78c63          	beq	a5,a4,80000b34 <vsnprintf+0xb0>
    80000b00:	03000713          	li	a4,48
    80000b04:	02f74f63          	blt	a4,a5,80000b42 <vsnprintf+0xbe>
    80000b08:	02300713          	li	a4,35
    80000b0c:	00e78d63          	beq	a5,a4,80000b26 <vsnprintf+0xa2>
    80000b10:	02d00713          	li	a4,45
    80000b14:	02e79763          	bne	a5,a4,80000b42 <vsnprintf+0xbe>
/home/whalefall/Projects/WhaleOS/kernel/lib/printf.c:125
                case '-': flags |= LEFT; goto loop;
    80000b18:	fdc42783          	lw	a5,-36(s0)
    80000b1c:	0207e793          	ori	a5,a5,32
    80000b20:	fcf42e23          	sw	a5,-36(s0)
    80000b24:	bf5d                	j	80000ada <vsnprintf+0x56>
/home/whalefall/Projects/WhaleOS/kernel/lib/printf.c:126
                case '#': flags |= PREFIX; goto loop;
    80000b26:	fdc42783          	lw	a5,-36(s0)
    80000b2a:	0807e793          	ori	a5,a5,128
    80000b2e:	fcf42e23          	sw	a5,-36(s0)
    80000b32:	b765                	j	80000ada <vsnprintf+0x56>
/home/whalefall/Projects/WhaleOS/kernel/lib/printf.c:127
                case '0': flags |= ZEROPAD; goto loop;
    80000b34:	fdc42783          	lw	a5,-36(s0)
    80000b38:	0017e793          	ori	a5,a5,1
    80000b3c:	fcf42e23          	sw	a5,-36(s0)
    80000b40:	bf69                	j	80000ada <vsnprintf+0x56>
/home/whalefall/Projects/WhaleOS/kernel/lib/printf.c:130
            }

        int field_width = -1;
    80000b42:	57fd                	li	a5,-1
    80000b44:	fcf42c23          	sw	a5,-40(s0)
/home/whalefall/Projects/WhaleOS/kernel/lib/printf.c:131
        if (is_digit(*fmt)) {
    80000b48:	f9843783          	ld	a5,-104(s0)
    80000b4c:	0007c783          	lbu	a5,0(a5)
    80000b50:	873e                	mv	a4,a5
    80000b52:	02f00793          	li	a5,47
    80000b56:	02e7f463          	bgeu	a5,a4,80000b7e <vsnprintf+0xfa>
/home/whalefall/Projects/WhaleOS/kernel/lib/printf.c:131 (discriminator 1)
    80000b5a:	f9843783          	ld	a5,-104(s0)
    80000b5e:	0007c783          	lbu	a5,0(a5)
    80000b62:	873e                	mv	a4,a5
    80000b64:	03900793          	li	a5,57
    80000b68:	00e7eb63          	bltu	a5,a4,80000b7e <vsnprintf+0xfa>
/home/whalefall/Projects/WhaleOS/kernel/lib/printf.c:132
            field_width = skip_atoi(&fmt);
    80000b6c:	f9840793          	addi	a5,s0,-104
    80000b70:	853e                	mv	a0,a5
    80000b72:	ae3ff0ef          	jal	80000654 <skip_atoi>
    80000b76:	87aa                	mv	a5,a0
    80000b78:	fcf42c23          	sw	a5,-40(s0)
    80000b7c:	a8b1                	j	80000bd8 <vsnprintf+0x154>
/home/whalefall/Projects/WhaleOS/kernel/lib/printf.c:133
        } else if (*fmt == '*') {
    80000b7e:	f9843783          	ld	a5,-104(s0)
    80000b82:	0007c783          	lbu	a5,0(a5)
    80000b86:	873e                	mv	a4,a5
    80000b88:	02a00793          	li	a5,42
    80000b8c:	04f71663          	bne	a4,a5,80000bd8 <vsnprintf+0x154>
/home/whalefall/Projects/WhaleOS/kernel/lib/printf.c:134
            cnt++, fmt++;
    80000b90:	fec42783          	lw	a5,-20(s0)
    80000b94:	2785                	addiw	a5,a5,1
    80000b96:	fef42623          	sw	a5,-20(s0)
    80000b9a:	f9843783          	ld	a5,-104(s0)
    80000b9e:	0785                	addi	a5,a5,1
    80000ba0:	f8f43c23          	sd	a5,-104(s0)
/home/whalefall/Projects/WhaleOS/kernel/lib/printf.c:135
            field_width = va_arg(ap, int);
    80000ba4:	f9043783          	ld	a5,-112(s0)
    80000ba8:	00878713          	addi	a4,a5,8
    80000bac:	f8e43823          	sd	a4,-112(s0)
    80000bb0:	439c                	lw	a5,0(a5)
    80000bb2:	fcf42c23          	sw	a5,-40(s0)
/home/whalefall/Projects/WhaleOS/kernel/lib/printf.c:136
            if (field_width < 0) {
    80000bb6:	fd842783          	lw	a5,-40(s0)
    80000bba:	2781                	sext.w	a5,a5
    80000bbc:	0007de63          	bgez	a5,80000bd8 <vsnprintf+0x154>
/home/whalefall/Projects/WhaleOS/kernel/lib/printf.c:137
                field_width = -field_width;
    80000bc0:	fd842783          	lw	a5,-40(s0)
    80000bc4:	40f007bb          	negw	a5,a5
    80000bc8:	fcf42c23          	sw	a5,-40(s0)
/home/whalefall/Projects/WhaleOS/kernel/lib/printf.c:138
                flags |= LEFT;
    80000bcc:	fdc42783          	lw	a5,-36(s0)
    80000bd0:	0207e793          	ori	a5,a5,32
    80000bd4:	fcf42e23          	sw	a5,-36(s0)
/home/whalefall/Projects/WhaleOS/kernel/lib/printf.c:142
            }
        }

        int precision = -1;
    80000bd8:	57fd                	li	a5,-1
    80000bda:	fcf42a23          	sw	a5,-44(s0)
/home/whalefall/Projects/WhaleOS/kernel/lib/printf.c:143
        if (*fmt == '.') {
    80000bde:	f9843783          	ld	a5,-104(s0)
    80000be2:	0007c783          	lbu	a5,0(a5)
    80000be6:	873e                	mv	a4,a5
    80000be8:	02e00793          	li	a5,46
    80000bec:	08f71263          	bne	a4,a5,80000c70 <vsnprintf+0x1ec>
/home/whalefall/Projects/WhaleOS/kernel/lib/printf.c:144
            cnt++, fmt++;
    80000bf0:	fec42783          	lw	a5,-20(s0)
    80000bf4:	2785                	addiw	a5,a5,1
    80000bf6:	fef42623          	sw	a5,-20(s0)
    80000bfa:	f9843783          	ld	a5,-104(s0)
    80000bfe:	0785                	addi	a5,a5,1
    80000c00:	f8f43c23          	sd	a5,-104(s0)
/home/whalefall/Projects/WhaleOS/kernel/lib/printf.c:145
            if (is_digit(*fmt))
    80000c04:	f9843783          	ld	a5,-104(s0)
    80000c08:	0007c783          	lbu	a5,0(a5)
    80000c0c:	873e                	mv	a4,a5
    80000c0e:	02f00793          	li	a5,47
    80000c12:	02e7f463          	bgeu	a5,a4,80000c3a <vsnprintf+0x1b6>
/home/whalefall/Projects/WhaleOS/kernel/lib/printf.c:145 (discriminator 1)
    80000c16:	f9843783          	ld	a5,-104(s0)
    80000c1a:	0007c783          	lbu	a5,0(a5)
    80000c1e:	873e                	mv	a4,a5
    80000c20:	03900793          	li	a5,57
    80000c24:	00e7eb63          	bltu	a5,a4,80000c3a <vsnprintf+0x1b6>
/home/whalefall/Projects/WhaleOS/kernel/lib/printf.c:146
                precision = skip_atoi(&fmt);
    80000c28:	f9840793          	addi	a5,s0,-104
    80000c2c:	853e                	mv	a0,a5
    80000c2e:	a27ff0ef          	jal	80000654 <skip_atoi>
    80000c32:	87aa                	mv	a5,a0
    80000c34:	fcf42a23          	sw	a5,-44(s0)
    80000c38:	a01d                	j	80000c5e <vsnprintf+0x1da>
/home/whalefall/Projects/WhaleOS/kernel/lib/printf.c:147
            else if (*fmt == '*')
    80000c3a:	f9843783          	ld	a5,-104(s0)
    80000c3e:	0007c783          	lbu	a5,0(a5)
    80000c42:	873e                	mv	a4,a5
    80000c44:	02a00793          	li	a5,42
    80000c48:	00f71b63          	bne	a4,a5,80000c5e <vsnprintf+0x1da>
/home/whalefall/Projects/WhaleOS/kernel/lib/printf.c:148
                precision = va_arg(ap, int);
    80000c4c:	f9043783          	ld	a5,-112(s0)
    80000c50:	00878713          	addi	a4,a5,8
    80000c54:	f8e43823          	sd	a4,-112(s0)
    80000c58:	439c                	lw	a5,0(a5)
    80000c5a:	fcf42a23          	sw	a5,-44(s0)
/home/whalefall/Projects/WhaleOS/kernel/lib/printf.c:149
            precision = (precision < 0) ? 0 : precision;
    80000c5e:	fd442783          	lw	a5,-44(s0)
    80000c62:	0007871b          	sext.w	a4,a5
    80000c66:	00075363          	bgez	a4,80000c6c <vsnprintf+0x1e8>
    80000c6a:	4781                	li	a5,0
    80000c6c:	fcf42a23          	sw	a5,-44(s0)
/home/whalefall/Projects/WhaleOS/kernel/lib/printf.c:152
        }

        if (*fmt == 'h' || *fmt == '1' || *fmt == 'L')
    80000c70:	f9843783          	ld	a5,-104(s0)
    80000c74:	0007c783          	lbu	a5,0(a5)
    80000c78:	873e                	mv	a4,a5
    80000c7a:	06800793          	li	a5,104
    80000c7e:	02f70463          	beq	a4,a5,80000ca6 <vsnprintf+0x222>
/home/whalefall/Projects/WhaleOS/kernel/lib/printf.c:152 (discriminator 1)
    80000c82:	f9843783          	ld	a5,-104(s0)
    80000c86:	0007c783          	lbu	a5,0(a5)
    80000c8a:	873e                	mv	a4,a5
    80000c8c:	03100793          	li	a5,49
    80000c90:	00f70b63          	beq	a4,a5,80000ca6 <vsnprintf+0x222>
/home/whalefall/Projects/WhaleOS/kernel/lib/printf.c:152 (discriminator 2)
    80000c94:	f9843783          	ld	a5,-104(s0)
    80000c98:	0007c783          	lbu	a5,0(a5)
    80000c9c:	873e                	mv	a4,a5
    80000c9e:	04c00793          	li	a5,76
    80000ca2:	00f71c63          	bne	a4,a5,80000cba <vsnprintf+0x236>
/home/whalefall/Projects/WhaleOS/kernel/lib/printf.c:153
            cnt++, fmt++;
    80000ca6:	fec42783          	lw	a5,-20(s0)
    80000caa:	2785                	addiw	a5,a5,1
    80000cac:	fef42623          	sw	a5,-20(s0)
    80000cb0:	f9843783          	ld	a5,-104(s0)
    80000cb4:	0785                	addi	a5,a5,1
    80000cb6:	f8f43c23          	sd	a5,-104(s0)
/home/whalefall/Projects/WhaleOS/kernel/lib/printf.c:155
        
        switch (*fmt) {
    80000cba:	f9843783          	ld	a5,-104(s0)
    80000cbe:	0007c783          	lbu	a5,0(a5)
    80000cc2:	2781                	sext.w	a5,a5
    80000cc4:	fa87879b          	addiw	a5,a5,-88
    80000cc8:	86be                	mv	a3,a5
    80000cca:	0006871b          	sext.w	a4,a3
    80000cce:	02000793          	li	a5,32
    80000cd2:	2ae7e963          	bltu	a5,a4,80000f84 <vsnprintf+0x500>
    80000cd6:	02069793          	slli	a5,a3,0x20
    80000cda:	9381                	srli	a5,a5,0x20
    80000cdc:	00279713          	slli	a4,a5,0x2
    80000ce0:	00001797          	auipc	a5,0x1
    80000ce4:	b8878793          	addi	a5,a5,-1144 # 80001868 <__func__.0+0x80>
    80000ce8:	97ba                	add	a5,a5,a4
    80000cea:	439c                	lw	a5,0(a5)
    80000cec:	0007871b          	sext.w	a4,a5
    80000cf0:	00001797          	auipc	a5,0x1
    80000cf4:	b7878793          	addi	a5,a5,-1160 # 80001868 <__func__.0+0x80>
    80000cf8:	97ba                	add	a5,a5,a4
    80000cfa:	8782                	jr	a5
/home/whalefall/Projects/WhaleOS/kernel/lib/printf.c:157
            case 'c':
                fill_left();
    80000cfc:	fdc42783          	lw	a5,-36(s0)
    80000d00:	0207f793          	andi	a5,a5,32
    80000d04:	2781                	sext.w	a5,a5
    80000d06:	e785                	bnez	a5,80000d2e <vsnprintf+0x2aa>
    80000d08:	a819                	j	80000d1e <vsnprintf+0x29a>
/home/whalefall/Projects/WhaleOS/kernel/lib/printf.c:157 (discriminator 2)
    80000d0a:	fe043783          	ld	a5,-32(s0)
    80000d0e:	00178713          	addi	a4,a5,1
    80000d12:	fee43023          	sd	a4,-32(s0)
    80000d16:	02000713          	li	a4,32
    80000d1a:	00e78023          	sb	a4,0(a5)
/home/whalefall/Projects/WhaleOS/kernel/lib/printf.c:157 (discriminator 1)
    80000d1e:	fd842783          	lw	a5,-40(s0)
    80000d22:	fff7871b          	addiw	a4,a5,-1
    80000d26:	fce42c23          	sw	a4,-40(s0)
    80000d2a:	fef040e3          	bgtz	a5,80000d0a <vsnprintf+0x286>
/home/whalefall/Projects/WhaleOS/kernel/lib/printf.c:158
                *str++ = (unsigned char) va_arg(ap, int);
    80000d2e:	f9043783          	ld	a5,-112(s0)
    80000d32:	00878713          	addi	a4,a5,8
    80000d36:	f8e43823          	sd	a4,-112(s0)
    80000d3a:	4394                	lw	a3,0(a5)
/home/whalefall/Projects/WhaleOS/kernel/lib/printf.c:158 (discriminator 1)
    80000d3c:	fe043783          	ld	a5,-32(s0)
    80000d40:	00178713          	addi	a4,a5,1
    80000d44:	fee43023          	sd	a4,-32(s0)
    80000d48:	0ff6f713          	zext.b	a4,a3
    80000d4c:	00e78023          	sb	a4,0(a5)
/home/whalefall/Projects/WhaleOS/kernel/lib/printf.c:159
                fill_right();
    80000d50:	a819                	j	80000d66 <vsnprintf+0x2e2>
/home/whalefall/Projects/WhaleOS/kernel/lib/printf.c:159 (discriminator 2)
    80000d52:	fe043783          	ld	a5,-32(s0)
    80000d56:	00178713          	addi	a4,a5,1
    80000d5a:	fee43023          	sd	a4,-32(s0)
    80000d5e:	02000713          	li	a4,32
    80000d62:	00e78023          	sb	a4,0(a5)
/home/whalefall/Projects/WhaleOS/kernel/lib/printf.c:159 (discriminator 1)
    80000d66:	fd842783          	lw	a5,-40(s0)
    80000d6a:	fff7871b          	addiw	a4,a5,-1
    80000d6e:	fce42c23          	sw	a4,-40(s0)
    80000d72:	fef040e3          	bgtz	a5,80000d52 <vsnprintf+0x2ce>
/home/whalefall/Projects/WhaleOS/kernel/lib/printf.c:160
                break;
    80000d76:	a4bd                	j	80000fe4 <vsnprintf+0x560>
/home/whalefall/Projects/WhaleOS/kernel/lib/printf.c:163

            case 's':
                char* s = va_arg(ap, char*);
    80000d78:	f9043783          	ld	a5,-112(s0)
    80000d7c:	00878713          	addi	a4,a5,8
    80000d80:	f8e43823          	sd	a4,-112(s0)
    80000d84:	639c                	ld	a5,0(a5)
    80000d86:	fcf43423          	sd	a5,-56(s0)
/home/whalefall/Projects/WhaleOS/kernel/lib/printf.c:164
                s = (s) ? s : "(null)";
    80000d8a:	fc843783          	ld	a5,-56(s0)
    80000d8e:	c781                	beqz	a5,80000d96 <vsnprintf+0x312>
/home/whalefall/Projects/WhaleOS/kernel/lib/printf.c:164 (discriminator 1)
    80000d90:	fc843783          	ld	a5,-56(s0)
    80000d94:	a029                	j	80000d9e <vsnprintf+0x31a>
/home/whalefall/Projects/WhaleOS/kernel/lib/printf.c:164 (discriminator 2)
    80000d96:	00001797          	auipc	a5,0x1
    80000d9a:	aca78793          	addi	a5,a5,-1334 # 80001860 <__func__.0+0x78>
/home/whalefall/Projects/WhaleOS/kernel/lib/printf.c:164 (discriminator 4)
    80000d9e:	fcf43423          	sd	a5,-56(s0)
/home/whalefall/Projects/WhaleOS/kernel/lib/printf.c:165
                int len = strlen(s);
    80000da2:	fc843503          	ld	a0,-56(s0)
    80000da6:	352000ef          	jal	800010f8 <strlen>
    80000daa:	87aa                	mv	a5,a0
/home/whalefall/Projects/WhaleOS/kernel/lib/printf.c:165 (discriminator 1)
    80000dac:	fcf42023          	sw	a5,-64(s0)
/home/whalefall/Projects/WhaleOS/kernel/lib/printf.c:166
                fill_left();
    80000db0:	fdc42783          	lw	a5,-36(s0)
    80000db4:	0207f793          	andi	a5,a5,32
    80000db8:	2781                	sext.w	a5,a5
    80000dba:	e785                	bnez	a5,80000de2 <vsnprintf+0x35e>
    80000dbc:	a819                	j	80000dd2 <vsnprintf+0x34e>
/home/whalefall/Projects/WhaleOS/kernel/lib/printf.c:166 (discriminator 2)
    80000dbe:	fe043783          	ld	a5,-32(s0)
    80000dc2:	00178713          	addi	a4,a5,1
    80000dc6:	fee43023          	sd	a4,-32(s0)
    80000dca:	02000713          	li	a4,32
    80000dce:	00e78023          	sb	a4,0(a5)
/home/whalefall/Projects/WhaleOS/kernel/lib/printf.c:166 (discriminator 1)
    80000dd2:	fd842783          	lw	a5,-40(s0)
    80000dd6:	fff7871b          	addiw	a4,a5,-1
    80000dda:	fce42c23          	sw	a4,-40(s0)
    80000dde:	fef040e3          	bgtz	a5,80000dbe <vsnprintf+0x33a>
/home/whalefall/Projects/WhaleOS/kernel/lib/printf.c:167
                for (int i = 0; i < len; i++)
    80000de2:	fc042223          	sw	zero,-60(s0)
    80000de6:	a035                	j	80000e12 <vsnprintf+0x38e>
/home/whalefall/Projects/WhaleOS/kernel/lib/printf.c:168
                    *str++ = *s++;
    80000de8:	fc843703          	ld	a4,-56(s0)
    80000dec:	00170793          	addi	a5,a4,1
    80000df0:	fcf43423          	sd	a5,-56(s0)
    80000df4:	fe043783          	ld	a5,-32(s0)
    80000df8:	00178693          	addi	a3,a5,1
    80000dfc:	fed43023          	sd	a3,-32(s0)
    80000e00:	00074703          	lbu	a4,0(a4)
    80000e04:	00e78023          	sb	a4,0(a5)
/home/whalefall/Projects/WhaleOS/kernel/lib/printf.c:167 (discriminator 3)
                for (int i = 0; i < len; i++)
    80000e08:	fc442783          	lw	a5,-60(s0)
    80000e0c:	2785                	addiw	a5,a5,1
    80000e0e:	fcf42223          	sw	a5,-60(s0)
/home/whalefall/Projects/WhaleOS/kernel/lib/printf.c:167 (discriminator 1)
    80000e12:	fc442783          	lw	a5,-60(s0)
    80000e16:	873e                	mv	a4,a5
    80000e18:	fc042783          	lw	a5,-64(s0)
    80000e1c:	2701                	sext.w	a4,a4
    80000e1e:	2781                	sext.w	a5,a5
    80000e20:	fcf744e3          	blt	a4,a5,80000de8 <vsnprintf+0x364>
/home/whalefall/Projects/WhaleOS/kernel/lib/printf.c:169
                fill_right();
    80000e24:	a819                	j	80000e3a <vsnprintf+0x3b6>
/home/whalefall/Projects/WhaleOS/kernel/lib/printf.c:169 (discriminator 2)
    80000e26:	fe043783          	ld	a5,-32(s0)
    80000e2a:	00178713          	addi	a4,a5,1
    80000e2e:	fee43023          	sd	a4,-32(s0)
    80000e32:	02000713          	li	a4,32
    80000e36:	00e78023          	sb	a4,0(a5)
/home/whalefall/Projects/WhaleOS/kernel/lib/printf.c:169 (discriminator 1)
    80000e3a:	fd842783          	lw	a5,-40(s0)
    80000e3e:	fff7871b          	addiw	a4,a5,-1
    80000e42:	fce42c23          	sw	a4,-40(s0)
    80000e46:	fef040e3          	bgtz	a5,80000e26 <vsnprintf+0x3a2>
/home/whalefall/Projects/WhaleOS/kernel/lib/printf.c:170
                break;
    80000e4a:	aa69                	j	80000fe4 <vsnprintf+0x560>
/home/whalefall/Projects/WhaleOS/kernel/lib/printf.c:173

            case 'o': 
                flags |= OCT;
    80000e4c:	fdc42783          	lw	a5,-36(s0)
    80000e50:	0087e793          	ori	a5,a5,8
    80000e54:	fcf42e23          	sw	a5,-36(s0)
/home/whalefall/Projects/WhaleOS/kernel/lib/printf.c:174
                str = number(str, va_arg(ap, unsigned long), field_width, precision, flags);
    80000e58:	f9043783          	ld	a5,-112(s0)
    80000e5c:	00878713          	addi	a4,a5,8
    80000e60:	f8e43823          	sd	a4,-112(s0)
    80000e64:	639c                	ld	a5,0(a5)
/home/whalefall/Projects/WhaleOS/kernel/lib/printf.c:174 (discriminator 1)
    80000e66:	2781                	sext.w	a5,a5
    80000e68:	fdc42703          	lw	a4,-36(s0)
    80000e6c:	fd442683          	lw	a3,-44(s0)
    80000e70:	fd842603          	lw	a2,-40(s0)
    80000e74:	85be                	mv	a1,a5
    80000e76:	fe043503          	ld	a0,-32(s0)
    80000e7a:	8a7ff0ef          	jal	80000720 <number>
    80000e7e:	fea43023          	sd	a0,-32(s0)
/home/whalefall/Projects/WhaleOS/kernel/lib/printf.c:175
                break;
    80000e82:	a28d                	j	80000fe4 <vsnprintf+0x560>
/home/whalefall/Projects/WhaleOS/kernel/lib/printf.c:178

            case 'p': 
                if (field_width == -1) {
    80000e84:	fd842783          	lw	a5,-40(s0)
    80000e88:	0007871b          	sext.w	a4,a5
    80000e8c:	57fd                	li	a5,-1
    80000e8e:	00f71b63          	bne	a4,a5,80000ea4 <vsnprintf+0x420>
/home/whalefall/Projects/WhaleOS/kernel/lib/printf.c:179
                    field_width = 8;
    80000e92:	47a1                	li	a5,8
    80000e94:	fcf42c23          	sw	a5,-40(s0)
/home/whalefall/Projects/WhaleOS/kernel/lib/printf.c:180
                    flags |= ZEROPAD;
    80000e98:	fdc42783          	lw	a5,-36(s0)
    80000e9c:	0017e793          	ori	a5,a5,1
    80000ea0:	fcf42e23          	sw	a5,-36(s0)
/home/whalefall/Projects/WhaleOS/kernel/lib/printf.c:182
                }
                flags |= HEX;
    80000ea4:	fdc42783          	lw	a5,-36(s0)
    80000ea8:	0107e793          	ori	a5,a5,16
    80000eac:	fcf42e23          	sw	a5,-36(s0)
/home/whalefall/Projects/WhaleOS/kernel/lib/printf.c:183
                str = number(str, va_arg(ap, unsigned long), field_width, precision, flags);
    80000eb0:	f9043783          	ld	a5,-112(s0)
    80000eb4:	00878713          	addi	a4,a5,8
    80000eb8:	f8e43823          	sd	a4,-112(s0)
    80000ebc:	639c                	ld	a5,0(a5)
/home/whalefall/Projects/WhaleOS/kernel/lib/printf.c:183 (discriminator 1)
    80000ebe:	2781                	sext.w	a5,a5
    80000ec0:	fdc42703          	lw	a4,-36(s0)
    80000ec4:	fd442683          	lw	a3,-44(s0)
    80000ec8:	fd842603          	lw	a2,-40(s0)
    80000ecc:	85be                	mv	a1,a5
    80000ece:	fe043503          	ld	a0,-32(s0)
    80000ed2:	84fff0ef          	jal	80000720 <number>
    80000ed6:	fea43023          	sd	a0,-32(s0)
/home/whalefall/Projects/WhaleOS/kernel/lib/printf.c:184
                break;
    80000eda:	a229                	j	80000fe4 <vsnprintf+0x560>
/home/whalefall/Projects/WhaleOS/kernel/lib/printf.c:187

            case 'x': 
                flags |= SMALL;
    80000edc:	fdc42783          	lw	a5,-36(s0)
    80000ee0:	0407e793          	ori	a5,a5,64
    80000ee4:	fcf42e23          	sw	a5,-36(s0)
/home/whalefall/Projects/WhaleOS/kernel/lib/printf.c:189
            case 'X': 
                flags |= HEX;
    80000ee8:	fdc42783          	lw	a5,-36(s0)
    80000eec:	0107e793          	ori	a5,a5,16
    80000ef0:	fcf42e23          	sw	a5,-36(s0)
/home/whalefall/Projects/WhaleOS/kernel/lib/printf.c:190
                str = number(str, va_arg(ap, unsigned long), field_width, precision, flags);
    80000ef4:	f9043783          	ld	a5,-112(s0)
    80000ef8:	00878713          	addi	a4,a5,8
    80000efc:	f8e43823          	sd	a4,-112(s0)
    80000f00:	639c                	ld	a5,0(a5)
/home/whalefall/Projects/WhaleOS/kernel/lib/printf.c:190 (discriminator 1)
    80000f02:	2781                	sext.w	a5,a5
    80000f04:	fdc42703          	lw	a4,-36(s0)
    80000f08:	fd442683          	lw	a3,-44(s0)
    80000f0c:	fd842603          	lw	a2,-40(s0)
    80000f10:	85be                	mv	a1,a5
    80000f12:	fe043503          	ld	a0,-32(s0)
    80000f16:	80bff0ef          	jal	80000720 <number>
    80000f1a:	fea43023          	sd	a0,-32(s0)
/home/whalefall/Projects/WhaleOS/kernel/lib/printf.c:191
                break;
    80000f1e:	a0d9                	j	80000fe4 <vsnprintf+0x560>
/home/whalefall/Projects/WhaleOS/kernel/lib/printf.c:194

            case 'd':
                flags |= SIGN;
    80000f20:	fdc42783          	lw	a5,-36(s0)
    80000f24:	0047e793          	ori	a5,a5,4
    80000f28:	fcf42e23          	sw	a5,-36(s0)
/home/whalefall/Projects/WhaleOS/kernel/lib/printf.c:196
            case 'u':
                str = number(str, va_arg(ap, unsigned long), field_width, precision, flags);
    80000f2c:	f9043783          	ld	a5,-112(s0)
    80000f30:	00878713          	addi	a4,a5,8
    80000f34:	f8e43823          	sd	a4,-112(s0)
    80000f38:	639c                	ld	a5,0(a5)
/home/whalefall/Projects/WhaleOS/kernel/lib/printf.c:196 (discriminator 1)
    80000f3a:	2781                	sext.w	a5,a5
    80000f3c:	fdc42703          	lw	a4,-36(s0)
    80000f40:	fd442683          	lw	a3,-44(s0)
    80000f44:	fd842603          	lw	a2,-40(s0)
    80000f48:	85be                	mv	a1,a5
    80000f4a:	fe043503          	ld	a0,-32(s0)
    80000f4e:	fd2ff0ef          	jal	80000720 <number>
    80000f52:	fea43023          	sd	a0,-32(s0)
/home/whalefall/Projects/WhaleOS/kernel/lib/printf.c:197
                break;
    80000f56:	a079                	j	80000fe4 <vsnprintf+0x560>
/home/whalefall/Projects/WhaleOS/kernel/lib/printf.c:200

            case 'n': 
                char* ip = (char *) va_arg(ap, int *);
    80000f58:	f9043783          	ld	a5,-112(s0)
    80000f5c:	00878713          	addi	a4,a5,8
    80000f60:	f8e43823          	sd	a4,-112(s0)
    80000f64:	639c                	ld	a5,0(a5)
    80000f66:	faf43c23          	sd	a5,-72(s0)
/home/whalefall/Projects/WhaleOS/kernel/lib/printf.c:201
                *ip = (str - out);
    80000f6a:	fe043703          	ld	a4,-32(s0)
    80000f6e:	fa843783          	ld	a5,-88(s0)
    80000f72:	40f707b3          	sub	a5,a4,a5
    80000f76:	0ff7f713          	zext.b	a4,a5
    80000f7a:	fb843783          	ld	a5,-72(s0)
    80000f7e:	00e78023          	sb	a4,0(a5)
/home/whalefall/Projects/WhaleOS/kernel/lib/printf.c:202
                break;
    80000f82:	a08d                	j	80000fe4 <vsnprintf+0x560>
/home/whalefall/Projects/WhaleOS/kernel/lib/printf.c:205

            default: 
                if (*fmt != '%')
    80000f84:	f9843783          	ld	a5,-104(s0)
    80000f88:	0007c783          	lbu	a5,0(a5)
    80000f8c:	873e                	mv	a4,a5
    80000f8e:	02500793          	li	a5,37
    80000f92:	00f70c63          	beq	a4,a5,80000faa <vsnprintf+0x526>
/home/whalefall/Projects/WhaleOS/kernel/lib/printf.c:206
                    *str++ = '%';
    80000f96:	fe043783          	ld	a5,-32(s0)
    80000f9a:	00178713          	addi	a4,a5,1
    80000f9e:	fee43023          	sd	a4,-32(s0)
    80000fa2:	02500713          	li	a4,37
    80000fa6:	00e78023          	sb	a4,0(a5)
/home/whalefall/Projects/WhaleOS/kernel/lib/printf.c:207
                if (*fmt)
    80000faa:	f9843783          	ld	a5,-104(s0)
    80000fae:	0007c783          	lbu	a5,0(a5)
    80000fb2:	cf91                	beqz	a5,80000fce <vsnprintf+0x54a>
/home/whalefall/Projects/WhaleOS/kernel/lib/printf.c:208
                    *str++ = *fmt;
    80000fb4:	f9843703          	ld	a4,-104(s0)
    80000fb8:	fe043783          	ld	a5,-32(s0)
    80000fbc:	00178693          	addi	a3,a5,1
    80000fc0:	fed43023          	sd	a3,-32(s0)
    80000fc4:	00074703          	lbu	a4,0(a4)
    80000fc8:	00e78023          	sb	a4,0(a5)
/home/whalefall/Projects/WhaleOS/kernel/lib/printf.c:211
                else 
                    cnt--, fmt--;
                break;
    80000fcc:	a819                	j	80000fe2 <vsnprintf+0x55e>
/home/whalefall/Projects/WhaleOS/kernel/lib/printf.c:210
                    cnt--, fmt--;
    80000fce:	fec42783          	lw	a5,-20(s0)
    80000fd2:	37fd                	addiw	a5,a5,-1
    80000fd4:	fef42623          	sw	a5,-20(s0)
    80000fd8:	f9843783          	ld	a5,-104(s0)
    80000fdc:	17fd                	addi	a5,a5,-1
    80000fde:	f8f43c23          	sd	a5,-104(s0)
/home/whalefall/Projects/WhaleOS/kernel/lib/printf.c:211
                break;
    80000fe2:	0001                	nop
/home/whalefall/Projects/WhaleOS/kernel/lib/printf.c:114 (discriminator 2)
    for (str = out; *fmt && cnt < n; cnt++, fmt++) 
    80000fe4:	fec42783          	lw	a5,-20(s0)
    80000fe8:	2785                	addiw	a5,a5,1
    80000fea:	fef42623          	sw	a5,-20(s0)
    80000fee:	f9843783          	ld	a5,-104(s0)
    80000ff2:	0785                	addi	a5,a5,1
    80000ff4:	f8f43c23          	sd	a5,-104(s0)
/home/whalefall/Projects/WhaleOS/kernel/lib/printf.c:114 (discriminator 1)
    80000ff8:	f9843783          	ld	a5,-104(s0)
    80000ffc:	0007c783          	lbu	a5,0(a5)
    80001000:	c799                	beqz	a5,8000100e <vsnprintf+0x58a>
/home/whalefall/Projects/WhaleOS/kernel/lib/printf.c:114 (discriminator 3)
    80001002:	fec42783          	lw	a5,-20(s0)
    80001006:	fa043703          	ld	a4,-96(s0)
    8000100a:	aae7e0e3          	bltu	a5,a4,80000aaa <vsnprintf+0x26>
/home/whalefall/Projects/WhaleOS/kernel/lib/printf.c:214
        }
    }
    *str = '\0';
    8000100e:	fe043783          	ld	a5,-32(s0)
    80001012:	00078023          	sb	zero,0(a5)
/home/whalefall/Projects/WhaleOS/kernel/lib/printf.c:215
    return str - out;
    80001016:	fe043703          	ld	a4,-32(s0)
    8000101a:	fa843783          	ld	a5,-88(s0)
    8000101e:	40f707b3          	sub	a5,a4,a5
    80001022:	2781                	sext.w	a5,a5
/home/whalefall/Projects/WhaleOS/kernel/lib/printf.c:216
}
    80001024:	853e                	mv	a0,a5
    80001026:	70a6                	ld	ra,104(sp)
    80001028:	7406                	ld	s0,96(sp)
    8000102a:	6165                	addi	sp,sp,112
    8000102c:	8082                	ret

000000008000102e <printf>:
printf():
/home/whalefall/Projects/WhaleOS/kernel/lib/printf.c:246
//     return i;
// }

int
printf(const char* fmt, ...)
{
    8000102e:	b9010113          	addi	sp,sp,-1136
    80001032:	42113423          	sd	ra,1064(sp)
    80001036:	42813023          	sd	s0,1056(sp)
    8000103a:	43010413          	addi	s0,sp,1072
    8000103e:	bca43c23          	sd	a0,-1064(s0)
    80001042:	e40c                	sd	a1,8(s0)
    80001044:	e810                	sd	a2,16(s0)
    80001046:	ec14                	sd	a3,24(s0)
    80001048:	f018                	sd	a4,32(s0)
    8000104a:	f41c                	sd	a5,40(s0)
    8000104c:	03043823          	sd	a6,48(s0)
    80001050:	03143c23          	sd	a7,56(s0)
/home/whalefall/Projects/WhaleOS/kernel/lib/printf.c:250
    int i;
    char buf[BUFMAX];
    va_list args;
    va_start(args, fmt);
    80001054:	04040793          	addi	a5,s0,64
    80001058:	bcf43823          	sd	a5,-1072(s0)
    8000105c:	bd043783          	ld	a5,-1072(s0)
    80001060:	fc878793          	addi	a5,a5,-56
    80001064:	bef43023          	sd	a5,-1056(s0)
/home/whalefall/Projects/WhaleOS/kernel/lib/printf.c:251
    write(buf, i = vsnprintf(buf, BUFMAX, fmt, args));
    80001068:	be043703          	ld	a4,-1056(s0)
    8000106c:	be840793          	addi	a5,s0,-1048
    80001070:	86ba                	mv	a3,a4
    80001072:	bd843603          	ld	a2,-1064(s0)
    80001076:	40000593          	li	a1,1024
    8000107a:	853e                	mv	a0,a5
    8000107c:	a09ff0ef          	jal	80000a84 <vsnprintf>
    80001080:	87aa                	mv	a5,a0
    80001082:	fef42623          	sw	a5,-20(s0)
/home/whalefall/Projects/WhaleOS/kernel/lib/printf.c:251 (discriminator 1)
    80001086:	fec42703          	lw	a4,-20(s0)
    8000108a:	be840793          	addi	a5,s0,-1048
    8000108e:	85ba                	mv	a1,a4
    80001090:	853e                	mv	a0,a5
    80001092:	e42ff0ef          	jal	800006d4 <write>
/home/whalefall/Projects/WhaleOS/kernel/lib/printf.c:253
    va_end(args);
    return i;
    80001096:	fec42783          	lw	a5,-20(s0)
/home/whalefall/Projects/WhaleOS/kernel/lib/printf.c:254
}
    8000109a:	853e                	mv	a0,a5
    8000109c:	42813083          	ld	ra,1064(sp)
    800010a0:	42013403          	ld	s0,1056(sp)
    800010a4:	47010113          	addi	sp,sp,1136
    800010a8:	8082                	ret

00000000800010aa <puts>:
puts():
/home/whalefall/Projects/WhaleOS/kernel/lib/printf.c:258

int 
puts(char* buf)
{
    800010aa:	7179                	addi	sp,sp,-48
    800010ac:	f406                	sd	ra,40(sp)
    800010ae:	f022                	sd	s0,32(sp)
    800010b0:	1800                	addi	s0,sp,48
    800010b2:	fca43c23          	sd	a0,-40(s0)
/home/whalefall/Projects/WhaleOS/kernel/lib/printf.c:260
    int i;
    for (i = 0; buf[i] != '\0'; i++)
    800010b6:	fe042623          	sw	zero,-20(s0)
    800010ba:	a005                	j	800010da <puts+0x30>
/home/whalefall/Projects/WhaleOS/kernel/lib/printf.c:261
        uart_putc(buf[i]);
    800010bc:	fec42783          	lw	a5,-20(s0)
    800010c0:	fd843703          	ld	a4,-40(s0)
    800010c4:	97ba                	add	a5,a5,a4
    800010c6:	0007c783          	lbu	a5,0(a5)
    800010ca:	853e                	mv	a0,a5
    800010cc:	fe1fe0ef          	jal	800000ac <uart_putc>
/home/whalefall/Projects/WhaleOS/kernel/lib/printf.c:260 (discriminator 3)
    for (i = 0; buf[i] != '\0'; i++)
    800010d0:	fec42783          	lw	a5,-20(s0)
    800010d4:	2785                	addiw	a5,a5,1
    800010d6:	fef42623          	sw	a5,-20(s0)
/home/whalefall/Projects/WhaleOS/kernel/lib/printf.c:260 (discriminator 1)
    800010da:	fec42783          	lw	a5,-20(s0)
    800010de:	fd843703          	ld	a4,-40(s0)
    800010e2:	97ba                	add	a5,a5,a4
    800010e4:	0007c783          	lbu	a5,0(a5)
    800010e8:	fbf1                	bnez	a5,800010bc <puts+0x12>
/home/whalefall/Projects/WhaleOS/kernel/lib/printf.c:262
    return i;
    800010ea:	fec42783          	lw	a5,-20(s0)
/home/whalefall/Projects/WhaleOS/kernel/lib/printf.c:263
}
    800010ee:	853e                	mv	a0,a5
    800010f0:	70a2                	ld	ra,40(sp)
    800010f2:	7402                	ld	s0,32(sp)
    800010f4:	6145                	addi	sp,sp,48
    800010f6:	8082                	ret

00000000800010f8 <strlen>:
strlen():
/home/whalefall/Projects/WhaleOS/kernel/lib/string.c:5
#include <stddef.h>

size_t 
strlen(const char *s)
{
    800010f8:	7179                	addi	sp,sp,-48
    800010fa:	f406                	sd	ra,40(sp)
    800010fc:	f022                	sd	s0,32(sp)
    800010fe:	1800                	addi	s0,sp,48
    80001100:	fca43c23          	sd	a0,-40(s0)
/home/whalefall/Projects/WhaleOS/kernel/lib/string.c:7
    int i;
    for (i = 0; s[i] != '\0'; i++)
    80001104:	fe042623          	sw	zero,-20(s0)
    80001108:	a031                	j	80001114 <strlen+0x1c>
/home/whalefall/Projects/WhaleOS/kernel/lib/string.c:7 (discriminator 3)
    8000110a:	fec42783          	lw	a5,-20(s0)
    8000110e:	2785                	addiw	a5,a5,1
    80001110:	fef42623          	sw	a5,-20(s0)
/home/whalefall/Projects/WhaleOS/kernel/lib/string.c:7 (discriminator 1)
    80001114:	fec42783          	lw	a5,-20(s0)
    80001118:	fd843703          	ld	a4,-40(s0)
    8000111c:	97ba                	add	a5,a5,a4
    8000111e:	0007c783          	lbu	a5,0(a5)
    80001122:	f7e5                	bnez	a5,8000110a <strlen+0x12>
/home/whalefall/Projects/WhaleOS/kernel/lib/string.c:9
        ;
    return i;
    80001124:	fec42783          	lw	a5,-20(s0)
/home/whalefall/Projects/WhaleOS/kernel/lib/string.c:10
}
    80001128:	853e                	mv	a0,a5
    8000112a:	70a2                	ld	ra,40(sp)
    8000112c:	7402                	ld	s0,32(sp)
    8000112e:	6145                	addi	sp,sp,48
    80001130:	8082                	ret

0000000080001132 <strncpy>:
strncpy():
/home/whalefall/Projects/WhaleOS/kernel/lib/string.c:15


char* 
strncpy(char* dst, const char* src, size_t n)
{
    80001132:	7139                	addi	sp,sp,-64
    80001134:	fc06                	sd	ra,56(sp)
    80001136:	f822                	sd	s0,48(sp)
    80001138:	0080                	addi	s0,sp,64
    8000113a:	fca43c23          	sd	a0,-40(s0)
    8000113e:	fcb43823          	sd	a1,-48(s0)
    80001142:	fcc43423          	sd	a2,-56(s0)
/home/whalefall/Projects/WhaleOS/kernel/lib/string.c:16
    char* origin_dst = dst;
    80001146:	fd843783          	ld	a5,-40(s0)
    8000114a:	fef43423          	sd	a5,-24(s0)
/home/whalefall/Projects/WhaleOS/kernel/lib/string.c:17
    while (n-- > 0 && (*dst++ = *src++) != '\0')
    8000114e:	0001                	nop
/home/whalefall/Projects/WhaleOS/kernel/lib/string.c:17 (discriminator 2)
    80001150:	fc843783          	ld	a5,-56(s0)
    80001154:	fff78713          	addi	a4,a5,-1
    80001158:	fce43423          	sd	a4,-56(s0)
    8000115c:	c785                	beqz	a5,80001184 <strncpy+0x52>
/home/whalefall/Projects/WhaleOS/kernel/lib/string.c:17 (discriminator 1)
    8000115e:	fd043703          	ld	a4,-48(s0)
    80001162:	00170793          	addi	a5,a4,1
    80001166:	fcf43823          	sd	a5,-48(s0)
    8000116a:	fd843783          	ld	a5,-40(s0)
    8000116e:	00178693          	addi	a3,a5,1
    80001172:	fcd43c23          	sd	a3,-40(s0)
    80001176:	00074703          	lbu	a4,0(a4)
    8000117a:	00e78023          	sb	a4,0(a5)
    8000117e:	0007c783          	lbu	a5,0(a5)
    80001182:	f7f9                	bnez	a5,80001150 <strncpy+0x1e>
/home/whalefall/Projects/WhaleOS/kernel/lib/string.c:19
        ;
    *dst++ = '\0';
    80001184:	fd843783          	ld	a5,-40(s0)
    80001188:	00178713          	addi	a4,a5,1
    8000118c:	fce43c23          	sd	a4,-40(s0)
    80001190:	00078023          	sb	zero,0(a5)
/home/whalefall/Projects/WhaleOS/kernel/lib/string.c:20
    return origin_dst;
    80001194:	fe843783          	ld	a5,-24(s0)
/home/whalefall/Projects/WhaleOS/kernel/lib/string.c:21
}
    80001198:	853e                	mv	a0,a5
    8000119a:	70e2                	ld	ra,56(sp)
    8000119c:	7442                	ld	s0,48(sp)
    8000119e:	6121                	addi	sp,sp,64
    800011a0:	8082                	ret

00000000800011a2 <strcpy>:
strcpy():
/home/whalefall/Projects/WhaleOS/kernel/lib/string.c:27


// require len(dst) <= len(src)
char*
strcpy(char* dst, const char* src)
{
    800011a2:	7179                	addi	sp,sp,-48
    800011a4:	f406                	sd	ra,40(sp)
    800011a6:	f022                	sd	s0,32(sp)
    800011a8:	1800                	addi	s0,sp,48
    800011aa:	fca43c23          	sd	a0,-40(s0)
    800011ae:	fcb43823          	sd	a1,-48(s0)
/home/whalefall/Projects/WhaleOS/kernel/lib/string.c:28
    char* origin_dst = dst;
    800011b2:	fd843783          	ld	a5,-40(s0)
    800011b6:	fef43423          	sd	a5,-24(s0)
/home/whalefall/Projects/WhaleOS/kernel/lib/string.c:29
    while (*src)
    800011ba:	a00d                	j	800011dc <strcpy+0x3a>
/home/whalefall/Projects/WhaleOS/kernel/lib/string.c:30
        *dst++ = *src++;
    800011bc:	fd043703          	ld	a4,-48(s0)
    800011c0:	00170793          	addi	a5,a4,1
    800011c4:	fcf43823          	sd	a5,-48(s0)
    800011c8:	fd843783          	ld	a5,-40(s0)
    800011cc:	00178693          	addi	a3,a5,1
    800011d0:	fcd43c23          	sd	a3,-40(s0)
    800011d4:	00074703          	lbu	a4,0(a4)
    800011d8:	00e78023          	sb	a4,0(a5)
/home/whalefall/Projects/WhaleOS/kernel/lib/string.c:29
    while (*src)
    800011dc:	fd043783          	ld	a5,-48(s0)
    800011e0:	0007c783          	lbu	a5,0(a5)
    800011e4:	ffe1                	bnez	a5,800011bc <strcpy+0x1a>
/home/whalefall/Projects/WhaleOS/kernel/lib/string.c:31
    *dst = '\0';
    800011e6:	fd843783          	ld	a5,-40(s0)
    800011ea:	00078023          	sb	zero,0(a5)
/home/whalefall/Projects/WhaleOS/kernel/lib/string.c:32
    return origin_dst;
    800011ee:	fe843783          	ld	a5,-24(s0)
/home/whalefall/Projects/WhaleOS/kernel/lib/string.c:33
}
    800011f2:	853e                	mv	a0,a5
    800011f4:	70a2                	ld	ra,40(sp)
    800011f6:	7402                	ld	s0,32(sp)
    800011f8:	6145                	addi	sp,sp,48
    800011fa:	8082                	ret

00000000800011fc <strncmp>:
strncmp():
/home/whalefall/Projects/WhaleOS/kernel/lib/string.c:38


int
strncmp(const char* s1, const char *s2, size_t n)
{
    800011fc:	7179                	addi	sp,sp,-48
    800011fe:	f406                	sd	ra,40(sp)
    80001200:	f022                	sd	s0,32(sp)
    80001202:	1800                	addi	s0,sp,48
    80001204:	fea43423          	sd	a0,-24(s0)
    80001208:	feb43023          	sd	a1,-32(s0)
    8000120c:	fcc43c23          	sd	a2,-40(s0)
/home/whalefall/Projects/WhaleOS/kernel/lib/string.c:39
    while (n > 0 && *s1 && *s1 == *s2)
    80001210:	a005                	j	80001230 <strncmp+0x34>
/home/whalefall/Projects/WhaleOS/kernel/lib/string.c:40
        n--, s1++, s2++;
    80001212:	fd843783          	ld	a5,-40(s0)
    80001216:	17fd                	addi	a5,a5,-1
    80001218:	fcf43c23          	sd	a5,-40(s0)
    8000121c:	fe843783          	ld	a5,-24(s0)
    80001220:	0785                	addi	a5,a5,1
    80001222:	fef43423          	sd	a5,-24(s0)
    80001226:	fe043783          	ld	a5,-32(s0)
    8000122a:	0785                	addi	a5,a5,1
    8000122c:	fef43023          	sd	a5,-32(s0)
/home/whalefall/Projects/WhaleOS/kernel/lib/string.c:39
    while (n > 0 && *s1 && *s1 == *s2)
    80001230:	fd843783          	ld	a5,-40(s0)
    80001234:	c385                	beqz	a5,80001254 <strncmp+0x58>
/home/whalefall/Projects/WhaleOS/kernel/lib/string.c:39 (discriminator 1)
    80001236:	fe843783          	ld	a5,-24(s0)
    8000123a:	0007c783          	lbu	a5,0(a5)
    8000123e:	cb99                	beqz	a5,80001254 <strncmp+0x58>
/home/whalefall/Projects/WhaleOS/kernel/lib/string.c:39 (discriminator 2)
    80001240:	fe843783          	ld	a5,-24(s0)
    80001244:	0007c703          	lbu	a4,0(a5)
    80001248:	fe043783          	ld	a5,-32(s0)
    8000124c:	0007c783          	lbu	a5,0(a5)
    80001250:	fcf701e3          	beq	a4,a5,80001212 <strncmp+0x16>
/home/whalefall/Projects/WhaleOS/kernel/lib/string.c:41
    if (n == 0)
    80001254:	fd843783          	ld	a5,-40(s0)
    80001258:	e399                	bnez	a5,8000125e <strncmp+0x62>
/home/whalefall/Projects/WhaleOS/kernel/lib/string.c:42
        return 0;
    8000125a:	4781                	li	a5,0
    8000125c:	a839                	j	8000127a <strncmp+0x7e>
/home/whalefall/Projects/WhaleOS/kernel/lib/string.c:43
    return *s1 - *s2;
    8000125e:	fe843783          	ld	a5,-24(s0)
    80001262:	0007c783          	lbu	a5,0(a5)
    80001266:	0007871b          	sext.w	a4,a5
    8000126a:	fe043783          	ld	a5,-32(s0)
    8000126e:	0007c783          	lbu	a5,0(a5)
    80001272:	2781                	sext.w	a5,a5
    80001274:	40f707bb          	subw	a5,a4,a5
    80001278:	2781                	sext.w	a5,a5
/home/whalefall/Projects/WhaleOS/kernel/lib/string.c:44
}
    8000127a:	853e                	mv	a0,a5
    8000127c:	70a2                	ld	ra,40(sp)
    8000127e:	7402                	ld	s0,32(sp)
    80001280:	6145                	addi	sp,sp,48
    80001282:	8082                	ret

0000000080001284 <strcat>:
strcat():
/home/whalefall/Projects/WhaleOS/kernel/lib/string.c:48

char*
strcat(char *dst, const char *src) 
{
    80001284:	7179                	addi	sp,sp,-48
    80001286:	f406                	sd	ra,40(sp)
    80001288:	f022                	sd	s0,32(sp)
    8000128a:	1800                	addi	s0,sp,48
    8000128c:	fca43c23          	sd	a0,-40(s0)
    80001290:	fcb43823          	sd	a1,-48(s0)
/home/whalefall/Projects/WhaleOS/kernel/lib/string.c:49
    int len = strlen(dst), i;
    80001294:	fd843503          	ld	a0,-40(s0)
    80001298:	e61ff0ef          	jal	800010f8 <strlen>
    8000129c:	87aa                	mv	a5,a0
/home/whalefall/Projects/WhaleOS/kernel/lib/string.c:49 (discriminator 1)
    8000129e:	fef42423          	sw	a5,-24(s0)
/home/whalefall/Projects/WhaleOS/kernel/lib/string.c:50
    for (i = 0; src[i]!= '\0'; i++)
    800012a2:	fe042623          	sw	zero,-20(s0)
    800012a6:	a815                	j	800012da <strcat+0x56>
/home/whalefall/Projects/WhaleOS/kernel/lib/string.c:51
        dst[i + len] = src[i];
    800012a8:	fec42783          	lw	a5,-20(s0)
    800012ac:	fd043703          	ld	a4,-48(s0)
    800012b0:	973e                	add	a4,a4,a5
    800012b2:	fec42783          	lw	a5,-20(s0)
    800012b6:	86be                	mv	a3,a5
    800012b8:	fe842783          	lw	a5,-24(s0)
    800012bc:	9fb5                	addw	a5,a5,a3
    800012be:	2781                	sext.w	a5,a5
    800012c0:	86be                	mv	a3,a5
    800012c2:	fd843783          	ld	a5,-40(s0)
    800012c6:	97b6                	add	a5,a5,a3
    800012c8:	00074703          	lbu	a4,0(a4)
    800012cc:	00e78023          	sb	a4,0(a5)
/home/whalefall/Projects/WhaleOS/kernel/lib/string.c:50 (discriminator 3)
    for (i = 0; src[i]!= '\0'; i++)
    800012d0:	fec42783          	lw	a5,-20(s0)
    800012d4:	2785                	addiw	a5,a5,1
    800012d6:	fef42623          	sw	a5,-20(s0)
/home/whalefall/Projects/WhaleOS/kernel/lib/string.c:50 (discriminator 1)
    800012da:	fec42783          	lw	a5,-20(s0)
    800012de:	fd043703          	ld	a4,-48(s0)
    800012e2:	97ba                	add	a5,a5,a4
    800012e4:	0007c783          	lbu	a5,0(a5)
    800012e8:	f3e1                	bnez	a5,800012a8 <strcat+0x24>
/home/whalefall/Projects/WhaleOS/kernel/lib/string.c:53
  
    dst[i + len] = '\0';
    800012ea:	fec42783          	lw	a5,-20(s0)
    800012ee:	873e                	mv	a4,a5
    800012f0:	fe842783          	lw	a5,-24(s0)
    800012f4:	9fb9                	addw	a5,a5,a4
    800012f6:	2781                	sext.w	a5,a5
    800012f8:	873e                	mv	a4,a5
    800012fa:	fd843783          	ld	a5,-40(s0)
    800012fe:	97ba                	add	a5,a5,a4
    80001300:	00078023          	sb	zero,0(a5)
/home/whalefall/Projects/WhaleOS/kernel/lib/string.c:54
    return dst;
    80001304:	fd843783          	ld	a5,-40(s0)
/home/whalefall/Projects/WhaleOS/kernel/lib/string.c:55
}
    80001308:	853e                	mv	a0,a5
    8000130a:	70a2                	ld	ra,40(sp)
    8000130c:	7402                	ld	s0,32(sp)
    8000130e:	6145                	addi	sp,sp,48
    80001310:	8082                	ret

0000000080001312 <strcmp>:
strcmp():
/home/whalefall/Projects/WhaleOS/kernel/lib/string.c:60
  

int 
strcmp(const char *s1, const char *s2) 
{
    80001312:	7179                	addi	sp,sp,-48
    80001314:	f406                	sd	ra,40(sp)
    80001316:	f022                	sd	s0,32(sp)
    80001318:	1800                	addi	s0,sp,48
    8000131a:	fca43c23          	sd	a0,-40(s0)
    8000131e:	fcb43823          	sd	a1,-48(s0)
/home/whalefall/Projects/WhaleOS/kernel/lib/string.c:62
    int i;
    for (i = 0; s1[i] != '\0'; i++)
    80001322:	fe042623          	sw	zero,-20(s0)
    80001326:	a8a1                	j	8000137e <strcmp+0x6c>
/home/whalefall/Projects/WhaleOS/kernel/lib/string.c:63
        if (s1[i] != s2[i])
    80001328:	fec42783          	lw	a5,-20(s0)
    8000132c:	fd843703          	ld	a4,-40(s0)
    80001330:	97ba                	add	a5,a5,a4
    80001332:	0007c683          	lbu	a3,0(a5)
    80001336:	fec42783          	lw	a5,-20(s0)
    8000133a:	fd043703          	ld	a4,-48(s0)
    8000133e:	97ba                	add	a5,a5,a4
    80001340:	0007c783          	lbu	a5,0(a5)
    80001344:	8736                	mv	a4,a3
    80001346:	02f70763          	beq	a4,a5,80001374 <strcmp+0x62>
/home/whalefall/Projects/WhaleOS/kernel/lib/string.c:64
            return s1[i] - s2[i];
    8000134a:	fec42783          	lw	a5,-20(s0)
    8000134e:	fd843703          	ld	a4,-40(s0)
    80001352:	97ba                	add	a5,a5,a4
    80001354:	0007c783          	lbu	a5,0(a5)
    80001358:	0007871b          	sext.w	a4,a5
    8000135c:	fec42783          	lw	a5,-20(s0)
    80001360:	fd043683          	ld	a3,-48(s0)
    80001364:	97b6                	add	a5,a5,a3
    80001366:	0007c783          	lbu	a5,0(a5)
    8000136a:	2781                	sext.w	a5,a5
    8000136c:	40f707bb          	subw	a5,a4,a5
    80001370:	2781                	sext.w	a5,a5
    80001372:	a099                	j	800013b8 <strcmp+0xa6>
/home/whalefall/Projects/WhaleOS/kernel/lib/string.c:62 (discriminator 2)
    for (i = 0; s1[i] != '\0'; i++)
    80001374:	fec42783          	lw	a5,-20(s0)
    80001378:	2785                	addiw	a5,a5,1
    8000137a:	fef42623          	sw	a5,-20(s0)
/home/whalefall/Projects/WhaleOS/kernel/lib/string.c:62 (discriminator 1)
    8000137e:	fec42783          	lw	a5,-20(s0)
    80001382:	fd843703          	ld	a4,-40(s0)
    80001386:	97ba                	add	a5,a5,a4
    80001388:	0007c783          	lbu	a5,0(a5)
    8000138c:	ffd1                	bnez	a5,80001328 <strcmp+0x16>
/home/whalefall/Projects/WhaleOS/kernel/lib/string.c:66
    
    return (s2[i] == '\0') ? 0 : -s2[i];
    8000138e:	fec42783          	lw	a5,-20(s0)
    80001392:	fd043703          	ld	a4,-48(s0)
    80001396:	97ba                	add	a5,a5,a4
    80001398:	0007c783          	lbu	a5,0(a5)
    8000139c:	cf89                	beqz	a5,800013b6 <strcmp+0xa4>
/home/whalefall/Projects/WhaleOS/kernel/lib/string.c:66 (discriminator 1)
    8000139e:	fec42783          	lw	a5,-20(s0)
    800013a2:	fd043703          	ld	a4,-48(s0)
    800013a6:	97ba                	add	a5,a5,a4
    800013a8:	0007c783          	lbu	a5,0(a5)
    800013ac:	2781                	sext.w	a5,a5
    800013ae:	40f007bb          	negw	a5,a5
    800013b2:	2781                	sext.w	a5,a5
/home/whalefall/Projects/WhaleOS/kernel/lib/string.c:66
    800013b4:	a011                	j	800013b8 <strcmp+0xa6>
/home/whalefall/Projects/WhaleOS/kernel/lib/string.c:66 (discriminator 2)
    800013b6:	4781                	li	a5,0
/home/whalefall/Projects/WhaleOS/kernel/lib/string.c:67
}
    800013b8:	853e                	mv	a0,a5
    800013ba:	70a2                	ld	ra,40(sp)
    800013bc:	7402                	ld	s0,32(sp)
    800013be:	6145                	addi	sp,sp,48
    800013c0:	8082                	ret

00000000800013c2 <memset>:
memset():
/home/whalefall/Projects/WhaleOS/kernel/lib/string.c:72


void*
memset(void *dst, int c, size_t n)
{
    800013c2:	7139                	addi	sp,sp,-64
    800013c4:	fc06                	sd	ra,56(sp)
    800013c6:	f822                	sd	s0,48(sp)
    800013c8:	0080                	addi	s0,sp,64
    800013ca:	fca43c23          	sd	a0,-40(s0)
    800013ce:	87ae                	mv	a5,a1
    800013d0:	fcc43423          	sd	a2,-56(s0)
    800013d4:	fcf42a23          	sw	a5,-44(s0)
/home/whalefall/Projects/WhaleOS/kernel/lib/string.c:73
    char *cdst = (char *) dst;
    800013d8:	fd843783          	ld	a5,-40(s0)
    800013dc:	fef43023          	sd	a5,-32(s0)
/home/whalefall/Projects/WhaleOS/kernel/lib/string.c:75
        int i;
    for (i = 0; i < n; i++) {
    800013e0:	fe042623          	sw	zero,-20(s0)
    800013e4:	a00d                	j	80001406 <memset+0x44>
/home/whalefall/Projects/WhaleOS/kernel/lib/string.c:76
        cdst[i] = c;
    800013e6:	fec42783          	lw	a5,-20(s0)
    800013ea:	fe043703          	ld	a4,-32(s0)
    800013ee:	97ba                	add	a5,a5,a4
    800013f0:	fd442703          	lw	a4,-44(s0)
    800013f4:	0ff77713          	zext.b	a4,a4
    800013f8:	00e78023          	sb	a4,0(a5)
/home/whalefall/Projects/WhaleOS/kernel/lib/string.c:75 (discriminator 3)
    for (i = 0; i < n; i++) {
    800013fc:	fec42783          	lw	a5,-20(s0)
    80001400:	2785                	addiw	a5,a5,1
    80001402:	fef42623          	sw	a5,-20(s0)
/home/whalefall/Projects/WhaleOS/kernel/lib/string.c:75 (discriminator 1)
    80001406:	fec42783          	lw	a5,-20(s0)
    8000140a:	fc843703          	ld	a4,-56(s0)
    8000140e:	fce7ece3          	bltu	a5,a4,800013e6 <memset+0x24>
/home/whalefall/Projects/WhaleOS/kernel/lib/string.c:78
    }
    return dst;
    80001412:	fd843783          	ld	a5,-40(s0)
/home/whalefall/Projects/WhaleOS/kernel/lib/string.c:79
}
    80001416:	853e                	mv	a0,a5
    80001418:	70e2                	ld	ra,56(sp)
    8000141a:	7442                	ld	s0,48(sp)
    8000141c:	6121                	addi	sp,sp,64
    8000141e:	8082                	ret

0000000080001420 <memcmp>:
memcmp():
/home/whalefall/Projects/WhaleOS/kernel/lib/string.c:84


int
memcmp(const void *v1, const void *v2, size_t n)
{
    80001420:	7139                	addi	sp,sp,-64
    80001422:	fc06                	sd	ra,56(sp)
    80001424:	f822                	sd	s0,48(sp)
    80001426:	0080                	addi	s0,sp,64
    80001428:	fca43c23          	sd	a0,-40(s0)
    8000142c:	fcb43823          	sd	a1,-48(s0)
    80001430:	fcc43423          	sd	a2,-56(s0)
/home/whalefall/Projects/WhaleOS/kernel/lib/string.c:87
    const char *s1, *s2;

    s1 = v1;
    80001434:	fd843783          	ld	a5,-40(s0)
    80001438:	fef43423          	sd	a5,-24(s0)
/home/whalefall/Projects/WhaleOS/kernel/lib/string.c:88
    s2 = v2;
    8000143c:	fd043783          	ld	a5,-48(s0)
    80001440:	fef43023          	sd	a5,-32(s0)
/home/whalefall/Projects/WhaleOS/kernel/lib/string.c:89
    while(n-- > 0){
    80001444:	a0a1                	j	8000148c <memcmp+0x6c>
/home/whalefall/Projects/WhaleOS/kernel/lib/string.c:90
        if(*s1 != *s2)
    80001446:	fe843783          	ld	a5,-24(s0)
    8000144a:	0007c703          	lbu	a4,0(a5)
    8000144e:	fe043783          	ld	a5,-32(s0)
    80001452:	0007c783          	lbu	a5,0(a5)
    80001456:	02f70163          	beq	a4,a5,80001478 <memcmp+0x58>
/home/whalefall/Projects/WhaleOS/kernel/lib/string.c:91
            return *s1 - *s2;
    8000145a:	fe843783          	ld	a5,-24(s0)
    8000145e:	0007c783          	lbu	a5,0(a5)
    80001462:	0007871b          	sext.w	a4,a5
    80001466:	fe043783          	ld	a5,-32(s0)
    8000146a:	0007c783          	lbu	a5,0(a5)
    8000146e:	2781                	sext.w	a5,a5
    80001470:	40f707bb          	subw	a5,a4,a5
    80001474:	2781                	sext.w	a5,a5
    80001476:	a01d                	j	8000149c <memcmp+0x7c>
/home/whalefall/Projects/WhaleOS/kernel/lib/string.c:92
        s1++, s2++;
    80001478:	fe843783          	ld	a5,-24(s0)
    8000147c:	0785                	addi	a5,a5,1
    8000147e:	fef43423          	sd	a5,-24(s0)
    80001482:	fe043783          	ld	a5,-32(s0)
    80001486:	0785                	addi	a5,a5,1
    80001488:	fef43023          	sd	a5,-32(s0)
/home/whalefall/Projects/WhaleOS/kernel/lib/string.c:89
    while(n-- > 0){
    8000148c:	fc843783          	ld	a5,-56(s0)
    80001490:	fff78713          	addi	a4,a5,-1
    80001494:	fce43423          	sd	a4,-56(s0)
    80001498:	f7dd                	bnez	a5,80001446 <memcmp+0x26>
/home/whalefall/Projects/WhaleOS/kernel/lib/string.c:95
    }

    return 0;
    8000149a:	4781                	li	a5,0
/home/whalefall/Projects/WhaleOS/kernel/lib/string.c:96
}
    8000149c:	853e                	mv	a0,a5
    8000149e:	70e2                	ld	ra,56(sp)
    800014a0:	7442                	ld	s0,48(sp)
    800014a2:	6121                	addi	sp,sp,64
    800014a4:	8082                	ret

00000000800014a6 <memmove>:
memmove():
/home/whalefall/Projects/WhaleOS/kernel/lib/string.c:101


void*
memmove(void *dst, const void *src, size_t n)
{
    800014a6:	7139                	addi	sp,sp,-64
    800014a8:	fc06                	sd	ra,56(sp)
    800014aa:	f822                	sd	s0,48(sp)
    800014ac:	0080                	addi	s0,sp,64
    800014ae:	fca43c23          	sd	a0,-40(s0)
    800014b2:	fcb43823          	sd	a1,-48(s0)
    800014b6:	fcc43423          	sd	a2,-56(s0)
/home/whalefall/Projects/WhaleOS/kernel/lib/string.c:105
    const char *s;
    char *d;

    if(n == 0)
    800014ba:	fc843783          	ld	a5,-56(s0)
    800014be:	e781                	bnez	a5,800014c6 <memmove+0x20>
/home/whalefall/Projects/WhaleOS/kernel/lib/string.c:106
        return dst;
    800014c0:	fd843783          	ld	a5,-40(s0)
    800014c4:	a855                	j	80001578 <memmove+0xd2>
/home/whalefall/Projects/WhaleOS/kernel/lib/string.c:108
  
    s = src;
    800014c6:	fd043783          	ld	a5,-48(s0)
    800014ca:	fef43423          	sd	a5,-24(s0)
/home/whalefall/Projects/WhaleOS/kernel/lib/string.c:109
    d = dst;
    800014ce:	fd843783          	ld	a5,-40(s0)
    800014d2:	fef43023          	sd	a5,-32(s0)
/home/whalefall/Projects/WhaleOS/kernel/lib/string.c:110
    if(s < d && s + n > d){
    800014d6:	fe843703          	ld	a4,-24(s0)
    800014da:	fe043783          	ld	a5,-32(s0)
    800014de:	08f77463          	bgeu	a4,a5,80001566 <memmove+0xc0>
/home/whalefall/Projects/WhaleOS/kernel/lib/string.c:110 (discriminator 1)
    800014e2:	fe843703          	ld	a4,-24(s0)
    800014e6:	fc843783          	ld	a5,-56(s0)
    800014ea:	97ba                	add	a5,a5,a4
    800014ec:	fe043703          	ld	a4,-32(s0)
    800014f0:	06f77b63          	bgeu	a4,a5,80001566 <memmove+0xc0>
/home/whalefall/Projects/WhaleOS/kernel/lib/string.c:111
        s += n;
    800014f4:	fe843703          	ld	a4,-24(s0)
    800014f8:	fc843783          	ld	a5,-56(s0)
    800014fc:	97ba                	add	a5,a5,a4
    800014fe:	fef43423          	sd	a5,-24(s0)
/home/whalefall/Projects/WhaleOS/kernel/lib/string.c:112
        d += n;
    80001502:	fe043703          	ld	a4,-32(s0)
    80001506:	fc843783          	ld	a5,-56(s0)
    8000150a:	97ba                	add	a5,a5,a4
    8000150c:	fef43023          	sd	a5,-32(s0)
/home/whalefall/Projects/WhaleOS/kernel/lib/string.c:113
        while(n-- > 0)
    80001510:	a01d                	j	80001536 <memmove+0x90>
/home/whalefall/Projects/WhaleOS/kernel/lib/string.c:114
            *--d = *--s;
    80001512:	fe843783          	ld	a5,-24(s0)
    80001516:	17fd                	addi	a5,a5,-1
    80001518:	fef43423          	sd	a5,-24(s0)
    8000151c:	fe043783          	ld	a5,-32(s0)
    80001520:	17fd                	addi	a5,a5,-1
    80001522:	fef43023          	sd	a5,-32(s0)
    80001526:	fe843783          	ld	a5,-24(s0)
    8000152a:	0007c703          	lbu	a4,0(a5)
    8000152e:	fe043783          	ld	a5,-32(s0)
    80001532:	00e78023          	sb	a4,0(a5)
/home/whalefall/Projects/WhaleOS/kernel/lib/string.c:113
        while(n-- > 0)
    80001536:	fc843783          	ld	a5,-56(s0)
    8000153a:	fff78713          	addi	a4,a5,-1
    8000153e:	fce43423          	sd	a4,-56(s0)
    80001542:	fbe1                	bnez	a5,80001512 <memmove+0x6c>
/home/whalefall/Projects/WhaleOS/kernel/lib/string.c:110
    if(s < d && s + n > d){
    80001544:	a805                	j	80001574 <memmove+0xce>
/home/whalefall/Projects/WhaleOS/kernel/lib/string.c:117
    } else
        while(n-- > 0)
            *d++ = *s++;
    80001546:	fe843703          	ld	a4,-24(s0)
    8000154a:	00170793          	addi	a5,a4,1
    8000154e:	fef43423          	sd	a5,-24(s0)
    80001552:	fe043783          	ld	a5,-32(s0)
    80001556:	00178693          	addi	a3,a5,1
    8000155a:	fed43023          	sd	a3,-32(s0)
    8000155e:	00074703          	lbu	a4,0(a4)
    80001562:	00e78023          	sb	a4,0(a5)
/home/whalefall/Projects/WhaleOS/kernel/lib/string.c:116
        while(n-- > 0)
    80001566:	fc843783          	ld	a5,-56(s0)
    8000156a:	fff78713          	addi	a4,a5,-1
    8000156e:	fce43423          	sd	a4,-56(s0)
    80001572:	fbf1                	bnez	a5,80001546 <memmove+0xa0>
/home/whalefall/Projects/WhaleOS/kernel/lib/string.c:119

    return dst;
    80001574:	fd843783          	ld	a5,-40(s0)
/home/whalefall/Projects/WhaleOS/kernel/lib/string.c:120
}
    80001578:	853e                	mv	a0,a5
    8000157a:	70e2                	ld	ra,56(sp)
    8000157c:	7442                	ld	s0,48(sp)
    8000157e:	6121                	addi	sp,sp,64
    80001580:	8082                	ret

0000000080001582 <memcpy>:
memcpy():
/home/whalefall/Projects/WhaleOS/kernel/lib/string.c:125


void*
memcpy(void *dst, const void *src, size_t n)
{
    80001582:	7179                	addi	sp,sp,-48
    80001584:	f406                	sd	ra,40(sp)
    80001586:	f022                	sd	s0,32(sp)
    80001588:	1800                	addi	s0,sp,48
    8000158a:	fea43423          	sd	a0,-24(s0)
    8000158e:	feb43023          	sd	a1,-32(s0)
    80001592:	fcc43c23          	sd	a2,-40(s0)
/home/whalefall/Projects/WhaleOS/kernel/lib/string.c:126
    return memmove(dst, src, n);
    80001596:	fd843603          	ld	a2,-40(s0)
    8000159a:	fe043583          	ld	a1,-32(s0)
    8000159e:	fe843503          	ld	a0,-24(s0)
    800015a2:	f05ff0ef          	jal	800014a6 <memmove>
    800015a6:	87aa                	mv	a5,a0
/home/whalefall/Projects/WhaleOS/kernel/lib/string.c:127
}
    800015a8:	853e                	mv	a0,a5
    800015aa:	70a2                	ld	ra,40(sp)
    800015ac:	7402                	ld	s0,32(sp)
    800015ae:	6145                	addi	sp,sp,48
    800015b0:	8082                	ret
