
kernel/kernel：     文件格式 elf64-littleriscv


Disassembly of section .text:

0000000080000000 <_start>:
_start():
/home/whalefall/Projects/WhaleOS/kernel/start.S:7
# and causes each CPU to jump there

.section .text
.global _start
_start:
    la sp, init_stack_top
    80000000:	00003117          	auipc	sp,0x3
    80000004:	8f010113          	addi	sp,sp,-1808 # 800028f0 <init_stack_top>
/home/whalefall/Projects/WhaleOS/kernel/start.S:10

    # keep each CPU's hartid in its tp
    csrr tp, mhartid
    80000008:	f1402273          	csrr	tp,mhartid
/home/whalefall/Projects/WhaleOS/kernel/start.S:14
    
    # set mstatus.MPP to 0x01
    # after mret will enter S mode
    li a0, 0x1000
    8000000c:	6505                	lui	a0,0x1
/home/whalefall/Projects/WhaleOS/kernel/start.S:15
    csrrc x0, mstatus, a0
    8000000e:	30053073          	csrc	mstatus,a0
/home/whalefall/Projects/WhaleOS/kernel/start.S:16
    srli a0, a0, 1
    80000012:	8105                	srli	a0,a0,0x1
/home/whalefall/Projects/WhaleOS/kernel/start.S:17
    csrrs x0, mstatus, a0
    80000014:	30052073          	csrs	mstatus,a0
/home/whalefall/Projects/WhaleOS/kernel/start.S:20

    # set mepc to main
    la a0, main
    80000018:	00000517          	auipc	a0,0x0
    8000001c:	61050513          	addi	a0,a0,1552 # 80000628 <main>
/home/whalefall/Projects/WhaleOS/kernel/start.S:21
    csrw mepc, a0
    80000020:	34151073          	csrw	mepc,a0
/home/whalefall/Projects/WhaleOS/kernel/start.S:24

    # forbid pagetable
    csrw satp, x0
    80000024:	18001073          	csrw	satp,zero
/home/whalefall/Projects/WhaleOS/kernel/start.S:27

    # delegate all interrupts and exceptions to S mode
    li t0, 0xffff
    80000028:	62c1                	lui	t0,0x10
    8000002a:	32fd                	addiw	t0,t0,-1 # ffff <_start-0x7fff0001>
/home/whalefall/Projects/WhaleOS/kernel/start.S:28
    csrw medeleg, t0
    8000002c:	30229073          	csrw	medeleg,t0
/home/whalefall/Projects/WhaleOS/kernel/start.S:29
    csrw mideleg, t0
    80000030:	30329073          	csrw	mideleg,t0
/home/whalefall/Projects/WhaleOS/kernel/start.S:32

    # enable interrupts in S mode
    li a0, 0x222
    80000034:	22200513          	li	a0,546
/home/whalefall/Projects/WhaleOS/kernel/start.S:33
    csrrs x0, sie, a0
    80000038:	10452073          	csrs	sie,a0
/home/whalefall/Projects/WhaleOS/kernel/start.S:38

    # jal ra, timerinit

    # allow S mode to access all physical memory
    csrwi pmpcfg0, 0xf
    8000003c:	3a07d073          	csrwi	pmpcfg0,15
/home/whalefall/Projects/WhaleOS/kernel/start.S:39
    li t0, 0x3fffffffffffff
    80000040:	0010029b          	addiw	t0,zero,1
    80000044:	12da                	slli	t0,t0,0x36
    80000046:	12fd                	addi	t0,t0,-1
/home/whalefall/Projects/WhaleOS/kernel/start.S:40
    csrw pmpaddr0, t0
    80000048:	3b029073          	csrw	pmpaddr0,t0
/home/whalefall/Projects/WhaleOS/kernel/start.S:43

    # enter S mode and jump to main
    mret
    8000004c:	30200073          	mret

0000000080000050 <uart_init>:
uart_init():
/home/whalefall/Projects/WhaleOS/kernel/devices/uart.c:25
#define uart_read_reg(reg) (*UART_REG(reg))
#define uart_write_reg(reg, v) (*UART_REG(reg) = v)

void 
uart_init()
{
    80000050:	1141                	addi	sp,sp,-16
    80000052:	e406                	sd	ra,8(sp)
    80000054:	e022                	sd	s0,0(sp)
    80000056:	0800                	addi	s0,sp,16
/home/whalefall/Projects/WhaleOS/kernel/devices/uart.c:27
    // disable interrupts
    uart_write_reg(IER, 0x00);
    80000058:	100007b7          	lui	a5,0x10000
    8000005c:	0785                	addi	a5,a5,1 # 10000001 <_start-0x6fffffff>
    8000005e:	00078023          	sb	zero,0(a5)
/home/whalefall/Projects/WhaleOS/kernel/devices/uart.c:30

    // enable divcisor latch
    uart_write_reg(LCR, ((1 << 7) | uart_read_reg(LCR)));
    80000062:	100007b7          	lui	a5,0x10000
    80000066:	078d                	addi	a5,a5,3 # 10000003 <_start-0x6ffffffd>
    80000068:	0007c783          	lbu	a5,0(a5)
    8000006c:	0ff7f713          	zext.b	a4,a5
    80000070:	100007b7          	lui	a5,0x10000
    80000074:	078d                	addi	a5,a5,3 # 10000003 <_start-0x6ffffffd>
    80000076:	f8076713          	ori	a4,a4,-128
    8000007a:	0ff77713          	zext.b	a4,a4
    8000007e:	00e78023          	sb	a4,0(a5)
/home/whalefall/Projects/WhaleOS/kernel/devices/uart.c:32
    // baud rate 38.4k
    uart_write_reg(DLL, 0x03);
    80000082:	100007b7          	lui	a5,0x10000
    80000086:	470d                	li	a4,3
    80000088:	00e78023          	sb	a4,0(a5) # 10000000 <_start-0x70000000>
/home/whalefall/Projects/WhaleOS/kernel/devices/uart.c:33
    uart_write_reg(DLM, 0x00);
    8000008c:	100007b7          	lui	a5,0x10000
    80000090:	0785                	addi	a5,a5,1 # 10000001 <_start-0x6fffffff>
    80000092:	00078023          	sb	zero,0(a5)
/home/whalefall/Projects/WhaleOS/kernel/devices/uart.c:37

    // leave set-baud mode,
    // and set word length to 8 bits, no parity.
    uart_write_reg(LCR, 0x03);
    80000096:	100007b7          	lui	a5,0x10000
    8000009a:	078d                	addi	a5,a5,3 # 10000003 <_start-0x6ffffffd>
    8000009c:	470d                	li	a4,3
    8000009e:	00e78023          	sb	a4,0(a5)
/home/whalefall/Projects/WhaleOS/kernel/devices/uart.c:41

    // enable RHR, THR interrupts
    // uart_write_reg(IER, 0x03);
}
    800000a2:	0001                	nop
    800000a4:	60a2                	ld	ra,8(sp)
    800000a6:	6402                	ld	s0,0(sp)
    800000a8:	0141                	addi	sp,sp,16
    800000aa:	8082                	ret

00000000800000ac <uart_putc>:
uart_putc():
/home/whalefall/Projects/WhaleOS/kernel/devices/uart.c:46

// polling
char 
uart_putc(char c)
{
    800000ac:	1101                	addi	sp,sp,-32
    800000ae:	ec06                	sd	ra,24(sp)
    800000b0:	e822                	sd	s0,16(sp)
    800000b2:	1000                	addi	s0,sp,32
    800000b4:	87aa                	mv	a5,a0
    800000b6:	fef407a3          	sb	a5,-17(s0)
/home/whalefall/Projects/WhaleOS/kernel/devices/uart.c:47
    while ((uart_read_reg(LSR) & LSR_TX_IDLE) == 0)
    800000ba:	0001                	nop
/home/whalefall/Projects/WhaleOS/kernel/devices/uart.c:47 (discriminator 1)
    800000bc:	100007b7          	lui	a5,0x10000
    800000c0:	0795                	addi	a5,a5,5 # 10000005 <_start-0x6ffffffb>
    800000c2:	0007c783          	lbu	a5,0(a5)
    800000c6:	0ff7f793          	zext.b	a5,a5
    800000ca:	2781                	sext.w	a5,a5
    800000cc:	0207f793          	andi	a5,a5,32
    800000d0:	2781                	sext.w	a5,a5
    800000d2:	d7ed                	beqz	a5,800000bc <uart_putc+0x10>
/home/whalefall/Projects/WhaleOS/kernel/devices/uart.c:49
        ;
    return uart_write_reg(THR, c);
    800000d4:	10000737          	lui	a4,0x10000
    800000d8:	fef44783          	lbu	a5,-17(s0)
    800000dc:	00f70023          	sb	a5,0(a4) # 10000000 <_start-0x70000000>
/home/whalefall/Projects/WhaleOS/kernel/devices/uart.c:50
}
    800000e0:	853e                	mv	a0,a5
    800000e2:	60e2                	ld	ra,24(sp)
    800000e4:	6442                	ld	s0,16(sp)
    800000e6:	6105                	addi	sp,sp,32
    800000e8:	8082                	ret

00000000800000ea <test_printf>:
test_printf():
/home/whalefall/Projects/WhaleOS/kernel/test/testlib.c:6
#include <defs.h>
#include <debug.h>

void
test_printf()
{
    800000ea:	1141                	addi	sp,sp,-16
    800000ec:	e406                	sd	ra,8(sp)
    800000ee:	e022                	sd	s0,0(sp)
    800000f0:	0800                	addi	s0,sp,16
/home/whalefall/Projects/WhaleOS/kernel/test/testlib.c:7
    printf("Test print p, show test_printf addr: %p\n", test_printf);
    800000f2:	00000597          	auipc	a1,0x0
    800000f6:	ff858593          	addi	a1,a1,-8 # 800000ea <test_printf>
    800000fa:	00001517          	auipc	a0,0x1
    800000fe:	4be50513          	addi	a0,a0,1214 # 800015b8 <memcpy+0x36>
    80000102:	72d000ef          	jal	8000102e <printf>
/home/whalefall/Projects/WhaleOS/kernel/test/testlib.c:8
    printf("Test print s, show my name and char 'a': %s %c\n", "WhaleFall", 'a');
    80000106:	06100613          	li	a2,97
    8000010a:	00001597          	auipc	a1,0x1
    8000010e:	4de58593          	addi	a1,a1,1246 # 800015e8 <memcpy+0x66>
    80000112:	00001517          	auipc	a0,0x1
    80000116:	4e650513          	addi	a0,a0,1254 # 800015f8 <memcpy+0x76>
    8000011a:	715000ef          	jal	8000102e <printf>
/home/whalefall/Projects/WhaleOS/kernel/test/testlib.c:9
    printf("Test print u, show 114514: %u\n", 114514);
    8000011e:	67f1                	lui	a5,0x1c
    80000120:	f5278593          	addi	a1,a5,-174 # 1bf52 <_start-0x7ffe40ae>
    80000124:	00001517          	auipc	a0,0x1
    80000128:	50450513          	addi	a0,a0,1284 # 80001628 <memcpy+0xa6>
    8000012c:	703000ef          	jal	8000102e <printf>
/home/whalefall/Projects/WhaleOS/kernel/test/testlib.c:10
    printf("Test print d, show -114514: %d\n", -114514);
    80000130:	7791                	lui	a5,0xfffe4
    80000132:	0ae78593          	addi	a1,a5,174 # fffffffffffe40ae <__BSS_END__+0xffffffff7ffe00ae>
    80000136:	00001517          	auipc	a0,0x1
    8000013a:	51250513          	addi	a0,a0,1298 # 80001648 <memcpy+0xc6>
    8000013e:	6f1000ef          	jal	8000102e <printf>
/home/whalefall/Projects/WhaleOS/kernel/test/testlib.c:11
    printf("Test print x, show 0x11451a: %#x and upper without '0x': %X\n", 0x11451A, 0x114514A);
    80000142:	011457b7          	lui	a5,0x1145
    80000146:	14a78613          	addi	a2,a5,330 # 114514a <_start-0x7eebaeb6>
    8000014a:	001147b7          	lui	a5,0x114
    8000014e:	51a78593          	addi	a1,a5,1306 # 11451a <_start-0x7feebae6>
    80000152:	00001517          	auipc	a0,0x1
    80000156:	51650513          	addi	a0,a0,1302 # 80001668 <memcpy+0xe6>
    8000015a:	6d5000ef          	jal	8000102e <printf>
/home/whalefall/Projects/WhaleOS/kernel/test/testlib.c:12
}
    8000015e:	0001                	nop
    80000160:	60a2                	ld	ra,8(sp)
    80000162:	6402                	ld	s0,0(sp)
    80000164:	0141                	addi	sp,sp,16
    80000166:	8082                	ret

0000000080000168 <test_strcpy>:
test_strcpy():
/home/whalefall/Projects/WhaleOS/kernel/test/testlib.c:16

static inline void 
test_strcpy() 
{
    80000168:	7139                	addi	sp,sp,-64
    8000016a:	fc06                	sd	ra,56(sp)
    8000016c:	f822                	sd	s0,48(sp)
    8000016e:	0080                	addi	s0,sp,64
/home/whalefall/Projects/WhaleOS/kernel/test/testlib.c:17
    char src[] = "Hello World";
    80000170:	00001797          	auipc	a5,0x1
    80000174:	58078793          	addi	a5,a5,1408 # 800016f0 <memcpy+0x16e>
    80000178:	6398                	ld	a4,0(a5)
    8000017a:	fee43023          	sd	a4,-32(s0)
    8000017e:	479c                	lw	a5,8(a5)
    80000180:	fef42423          	sw	a5,-24(s0)
/home/whalefall/Projects/WhaleOS/kernel/test/testlib.c:20
    char dest[20];
    
    strcpy(dest, src);
    80000184:	fe040713          	addi	a4,s0,-32
    80000188:	fc840793          	addi	a5,s0,-56
    8000018c:	85ba                	mv	a1,a4
    8000018e:	853e                	mv	a0,a5
    80000190:	012010ef          	jal	800011a2 <strcpy>
/home/whalefall/Projects/WhaleOS/kernel/test/testlib.c:21
    assert(strcmp(dest, src) == 0);
    80000194:	fe040713          	addi	a4,s0,-32
    80000198:	fc840793          	addi	a5,s0,-56
    8000019c:	85ba                	mv	a1,a4
    8000019e:	853e                	mv	a0,a5
    800001a0:	172010ef          	jal	80001312 <strcmp>
    800001a4:	87aa                	mv	a5,a0
/home/whalefall/Projects/WhaleOS/kernel/test/testlib.c:21 (discriminator 1)
    800001a6:	c385                	beqz	a5,800001c6 <test_strcpy+0x5e>
    800001a8:	00001697          	auipc	a3,0x1
    800001ac:	5f068693          	addi	a3,a3,1520 # 80001798 <__func__.5>
    800001b0:	4655                	li	a2,21
    800001b2:	00001597          	auipc	a1,0x1
    800001b6:	4f658593          	addi	a1,a1,1270 # 800016a8 <memcpy+0x126>
    800001ba:	00001517          	auipc	a0,0x1
    800001be:	50650513          	addi	a0,a0,1286 # 800016c0 <memcpy+0x13e>
    800001c2:	66d000ef          	jal	8000102e <printf>
/home/whalefall/Projects/WhaleOS/kernel/test/testlib.c:24
    
    char short_dest[5];
    strcpy(short_dest, "test");
    800001c6:	747367b7          	lui	a5,0x74736
    800001ca:	57478793          	addi	a5,a5,1396 # 74736574 <_start-0xb8c9a8c>
    800001ce:	fcf42023          	sw	a5,-64(s0)
    800001d2:	fc040223          	sb	zero,-60(s0)
/home/whalefall/Projects/WhaleOS/kernel/test/testlib.c:25
    assert(strcmp(short_dest, "test") == 0);
    800001d6:	fc040793          	addi	a5,s0,-64
    800001da:	00001597          	auipc	a1,0x1
    800001de:	50e58593          	addi	a1,a1,1294 # 800016e8 <memcpy+0x166>
    800001e2:	853e                	mv	a0,a5
    800001e4:	12e010ef          	jal	80001312 <strcmp>
    800001e8:	87aa                	mv	a5,a0
/home/whalefall/Projects/WhaleOS/kernel/test/testlib.c:25 (discriminator 1)
    800001ea:	c385                	beqz	a5,8000020a <test_strcpy+0xa2>
    800001ec:	00001697          	auipc	a3,0x1
    800001f0:	5ac68693          	addi	a3,a3,1452 # 80001798 <__func__.5>
    800001f4:	4665                	li	a2,25
    800001f6:	00001597          	auipc	a1,0x1
    800001fa:	4b258593          	addi	a1,a1,1202 # 800016a8 <memcpy+0x126>
    800001fe:	00001517          	auipc	a0,0x1
    80000202:	4c250513          	addi	a0,a0,1218 # 800016c0 <memcpy+0x13e>
    80000206:	629000ef          	jal	8000102e <printf>
/home/whalefall/Projects/WhaleOS/kernel/test/testlib.c:26
}
    8000020a:	0001                	nop
    8000020c:	70e2                	ld	ra,56(sp)
    8000020e:	7442                	ld	s0,48(sp)
    80000210:	6121                	addi	sp,sp,64
    80000212:	8082                	ret

0000000080000214 <test_strncpy>:
test_strncpy():
/home/whalefall/Projects/WhaleOS/kernel/test/testlib.c:30

static inline void 
test_strncpy() 
{
    80000214:	7179                	addi	sp,sp,-48
    80000216:	f406                	sd	ra,40(sp)
    80000218:	f022                	sd	s0,32(sp)
    8000021a:	1800                	addi	s0,sp,48
/home/whalefall/Projects/WhaleOS/kernel/test/testlib.c:31
    char src[] = "Hello";
    8000021c:	6c6c67b7          	lui	a5,0x6c6c6
    80000220:	54878793          	addi	a5,a5,1352 # 6c6c6548 <_start-0x13939ab8>
    80000224:	fef42423          	sw	a5,-24(s0)
    80000228:	06f00793          	li	a5,111
    8000022c:	fef41623          	sh	a5,-20(s0)
/home/whalefall/Projects/WhaleOS/kernel/test/testlib.c:34
    char dest[6];
    
    strncpy(dest, src, 5);
    80000230:	fe840713          	addi	a4,s0,-24
    80000234:	fe040793          	addi	a5,s0,-32
    80000238:	4615                	li	a2,5
    8000023a:	85ba                	mv	a1,a4
    8000023c:	853e                	mv	a0,a5
    8000023e:	6f5000ef          	jal	80001132 <strncpy>
/home/whalefall/Projects/WhaleOS/kernel/test/testlib.c:35
    dest[5] = '\0';
    80000242:	fe0402a3          	sb	zero,-27(s0)
/home/whalefall/Projects/WhaleOS/kernel/test/testlib.c:36
    assert(strcmp(dest, "Hello") == 0);
    80000246:	fe040793          	addi	a5,s0,-32
    8000024a:	00001597          	auipc	a1,0x1
    8000024e:	4b658593          	addi	a1,a1,1206 # 80001700 <memcpy+0x17e>
    80000252:	853e                	mv	a0,a5
    80000254:	0be010ef          	jal	80001312 <strcmp>
    80000258:	87aa                	mv	a5,a0
/home/whalefall/Projects/WhaleOS/kernel/test/testlib.c:36 (discriminator 1)
    8000025a:	c38d                	beqz	a5,8000027c <test_strncpy+0x68>
    8000025c:	00001697          	auipc	a3,0x1
    80000260:	54c68693          	addi	a3,a3,1356 # 800017a8 <__func__.4>
    80000264:	02400613          	li	a2,36
    80000268:	00001597          	auipc	a1,0x1
    8000026c:	44058593          	addi	a1,a1,1088 # 800016a8 <memcpy+0x126>
    80000270:	00001517          	auipc	a0,0x1
    80000274:	45050513          	addi	a0,a0,1104 # 800016c0 <memcpy+0x13e>
    80000278:	5b7000ef          	jal	8000102e <printf>
/home/whalefall/Projects/WhaleOS/kernel/test/testlib.c:39
    
    char dest2[7];
    strncpy(dest2, src, 7);
    8000027c:	fe840713          	addi	a4,s0,-24
    80000280:	fd840793          	addi	a5,s0,-40
    80000284:	461d                	li	a2,7
    80000286:	85ba                	mv	a1,a4
    80000288:	853e                	mv	a0,a5
    8000028a:	6a9000ef          	jal	80001132 <strncpy>
/home/whalefall/Projects/WhaleOS/kernel/test/testlib.c:40
    assert(memcmp(dest2, "Hello\0\0", 7) == 0);
    8000028e:	fd840793          	addi	a5,s0,-40
    80000292:	461d                	li	a2,7
    80000294:	00001597          	auipc	a1,0x1
    80000298:	47458593          	addi	a1,a1,1140 # 80001708 <memcpy+0x186>
    8000029c:	853e                	mv	a0,a5
    8000029e:	182010ef          	jal	80001420 <memcmp>
    800002a2:	87aa                	mv	a5,a0
/home/whalefall/Projects/WhaleOS/kernel/test/testlib.c:40 (discriminator 1)
    800002a4:	c38d                	beqz	a5,800002c6 <test_strncpy+0xb2>
    800002a6:	00001697          	auipc	a3,0x1
    800002aa:	50268693          	addi	a3,a3,1282 # 800017a8 <__func__.4>
    800002ae:	02800613          	li	a2,40
    800002b2:	00001597          	auipc	a1,0x1
    800002b6:	3f658593          	addi	a1,a1,1014 # 800016a8 <memcpy+0x126>
    800002ba:	00001517          	auipc	a0,0x1
    800002be:	40650513          	addi	a0,a0,1030 # 800016c0 <memcpy+0x13e>
    800002c2:	56d000ef          	jal	8000102e <printf>
/home/whalefall/Projects/WhaleOS/kernel/test/testlib.c:41
}
    800002c6:	0001                	nop
    800002c8:	70a2                	ld	ra,40(sp)
    800002ca:	7402                	ld	s0,32(sp)
    800002cc:	6145                	addi	sp,sp,48
    800002ce:	8082                	ret

00000000800002d0 <test_strncmp>:
test_strncmp():
/home/whalefall/Projects/WhaleOS/kernel/test/testlib.c:44


static inline void test_strncmp() {
    800002d0:	1141                	addi	sp,sp,-16
    800002d2:	e406                	sd	ra,8(sp)
    800002d4:	e022                	sd	s0,0(sp)
    800002d6:	0800                	addi	s0,sp,16
/home/whalefall/Projects/WhaleOS/kernel/test/testlib.c:48
    assert(strncmp("apple", "apples", 5) == 0);
    assert(strncmp("apple", "apples", 6) < 0);
    assert(strncmp("zoo", "apple", 1) > 0);
}
    800002d8:	0001                	nop
    800002da:	60a2                	ld	ra,8(sp)
    800002dc:	6402                	ld	s0,0(sp)
    800002de:	0141                	addi	sp,sp,16
    800002e0:	8082                	ret

00000000800002e2 <test_memset>:
test_memset():
/home/whalefall/Projects/WhaleOS/kernel/test/testlib.c:52

static inline void 
test_memset() 
{
    800002e2:	1101                	addi	sp,sp,-32
    800002e4:	ec06                	sd	ra,24(sp)
    800002e6:	e822                	sd	s0,16(sp)
    800002e8:	1000                	addi	s0,sp,32
/home/whalefall/Projects/WhaleOS/kernel/test/testlib.c:54
    char buf[10];
    memset(buf, 'A', 9);
    800002ea:	fe040793          	addi	a5,s0,-32
    800002ee:	4625                	li	a2,9
    800002f0:	04100593          	li	a1,65
    800002f4:	853e                	mv	a0,a5
    800002f6:	0cc010ef          	jal	800013c2 <memset>
/home/whalefall/Projects/WhaleOS/kernel/test/testlib.c:55
    buf[9] = '\0';
    800002fa:	fe0404a3          	sb	zero,-23(s0)
/home/whalefall/Projects/WhaleOS/kernel/test/testlib.c:56
    assert(strcmp(buf, "AAAAAAAAA") == 0);
    800002fe:	fe040793          	addi	a5,s0,-32
    80000302:	00001597          	auipc	a1,0x1
    80000306:	40e58593          	addi	a1,a1,1038 # 80001710 <memcpy+0x18e>
    8000030a:	853e                	mv	a0,a5
    8000030c:	006010ef          	jal	80001312 <strcmp>
    80000310:	87aa                	mv	a5,a0
/home/whalefall/Projects/WhaleOS/kernel/test/testlib.c:56 (discriminator 1)
    80000312:	c38d                	beqz	a5,80000334 <test_memset+0x52>
    80000314:	00001697          	auipc	a3,0x1
    80000318:	4a468693          	addi	a3,a3,1188 # 800017b8 <__func__.3>
    8000031c:	03800613          	li	a2,56
    80000320:	00001597          	auipc	a1,0x1
    80000324:	38858593          	addi	a1,a1,904 # 800016a8 <memcpy+0x126>
    80000328:	00001517          	auipc	a0,0x1
    8000032c:	39850513          	addi	a0,a0,920 # 800016c0 <memcpy+0x13e>
    80000330:	4ff000ef          	jal	8000102e <printf>
/home/whalefall/Projects/WhaleOS/kernel/test/testlib.c:58
    
    memset(buf+2, 'B', 3);
    80000334:	fe040793          	addi	a5,s0,-32
    80000338:	0789                	addi	a5,a5,2
    8000033a:	460d                	li	a2,3
    8000033c:	04200593          	li	a1,66
    80000340:	853e                	mv	a0,a5
    80000342:	080010ef          	jal	800013c2 <memset>
/home/whalefall/Projects/WhaleOS/kernel/test/testlib.c:59
    assert(memcmp(buf, "AABBBAAAA", 9) == 0);
    80000346:	fe040793          	addi	a5,s0,-32
    8000034a:	4625                	li	a2,9
    8000034c:	00001597          	auipc	a1,0x1
    80000350:	3d458593          	addi	a1,a1,980 # 80001720 <memcpy+0x19e>
    80000354:	853e                	mv	a0,a5
    80000356:	0ca010ef          	jal	80001420 <memcmp>
    8000035a:	87aa                	mv	a5,a0
/home/whalefall/Projects/WhaleOS/kernel/test/testlib.c:59 (discriminator 1)
    8000035c:	c38d                	beqz	a5,8000037e <test_memset+0x9c>
    8000035e:	00001697          	auipc	a3,0x1
    80000362:	45a68693          	addi	a3,a3,1114 # 800017b8 <__func__.3>
    80000366:	03b00613          	li	a2,59
    8000036a:	00001597          	auipc	a1,0x1
    8000036e:	33e58593          	addi	a1,a1,830 # 800016a8 <memcpy+0x126>
    80000372:	00001517          	auipc	a0,0x1
    80000376:	34e50513          	addi	a0,a0,846 # 800016c0 <memcpy+0x13e>
    8000037a:	4b5000ef          	jal	8000102e <printf>
/home/whalefall/Projects/WhaleOS/kernel/test/testlib.c:60
}
    8000037e:	0001                	nop
    80000380:	60e2                	ld	ra,24(sp)
    80000382:	6442                	ld	s0,16(sp)
    80000384:	6105                	addi	sp,sp,32
    80000386:	8082                	ret

0000000080000388 <test_memcpy>:
test_memcpy():
/home/whalefall/Projects/WhaleOS/kernel/test/testlib.c:64

static inline void 
test_memcpy() 
{
    80000388:	715d                	addi	sp,sp,-80
    8000038a:	e486                	sd	ra,72(sp)
    8000038c:	e0a2                	sd	s0,64(sp)
    8000038e:	0880                	addi	s0,sp,80
/home/whalefall/Projects/WhaleOS/kernel/test/testlib.c:65
    char src[] = "123456789";
    80000390:	00001797          	auipc	a5,0x1
    80000394:	3a878793          	addi	a5,a5,936 # 80001738 <memcpy+0x1b6>
    80000398:	6398                	ld	a4,0(a5)
    8000039a:	fee43023          	sd	a4,-32(s0)
    8000039e:	0087d783          	lhu	a5,8(a5)
    800003a2:	fef41423          	sh	a5,-24(s0)
/home/whalefall/Projects/WhaleOS/kernel/test/testlib.c:68
    char dest[10];
    
    memcpy(dest, src, 5);
    800003a6:	fe040713          	addi	a4,s0,-32
    800003aa:	fd040793          	addi	a5,s0,-48
    800003ae:	4615                	li	a2,5
    800003b0:	85ba                	mv	a1,a4
    800003b2:	853e                	mv	a0,a5
    800003b4:	1ce010ef          	jal	80001582 <memcpy>
/home/whalefall/Projects/WhaleOS/kernel/test/testlib.c:69
    assert(memcmp(dest, "12345", 5) == 0);
    800003b8:	fd040793          	addi	a5,s0,-48
    800003bc:	4615                	li	a2,5
    800003be:	00001597          	auipc	a1,0x1
    800003c2:	37258593          	addi	a1,a1,882 # 80001730 <memcpy+0x1ae>
    800003c6:	853e                	mv	a0,a5
    800003c8:	058010ef          	jal	80001420 <memcmp>
    800003cc:	87aa                	mv	a5,a0
/home/whalefall/Projects/WhaleOS/kernel/test/testlib.c:69 (discriminator 1)
    800003ce:	c38d                	beqz	a5,800003f0 <test_memcpy+0x68>
    800003d0:	00001697          	auipc	a3,0x1
    800003d4:	3f868693          	addi	a3,a3,1016 # 800017c8 <__func__.2>
    800003d8:	04500613          	li	a2,69
    800003dc:	00001597          	auipc	a1,0x1
    800003e0:	2cc58593          	addi	a1,a1,716 # 800016a8 <memcpy+0x126>
    800003e4:	00001517          	auipc	a0,0x1
    800003e8:	2dc50513          	addi	a0,a0,732 # 800016c0 <memcpy+0x13e>
    800003ec:	443000ef          	jal	8000102e <printf>
/home/whalefall/Projects/WhaleOS/kernel/test/testlib.c:71
    
    char nums[10] = {0,1,2,3,4,5,6,7,8,9};
    800003f0:	00001797          	auipc	a5,0x1
    800003f4:	35878793          	addi	a5,a5,856 # 80001748 <memcpy+0x1c6>
    800003f8:	6398                	ld	a4,0(a5)
    800003fa:	fce43023          	sd	a4,-64(s0)
    800003fe:	0087d783          	lhu	a5,8(a5)
    80000402:	fcf41423          	sh	a5,-56(s0)
/home/whalefall/Projects/WhaleOS/kernel/test/testlib.c:72
    memcpy(nums+2, nums, 3);
    80000406:	fc040793          	addi	a5,s0,-64
    8000040a:	0789                	addi	a5,a5,2
    8000040c:	fc040713          	addi	a4,s0,-64
    80000410:	460d                	li	a2,3
    80000412:	85ba                	mv	a1,a4
    80000414:	853e                	mv	a0,a5
    80000416:	16c010ef          	jal	80001582 <memcpy>
/home/whalefall/Projects/WhaleOS/kernel/test/testlib.c:73
    char nums_after[10] = {0,1,0,1,2,5,6,7,8,9};
    8000041a:	00001797          	auipc	a5,0x1
    8000041e:	33e78793          	addi	a5,a5,830 # 80001758 <memcpy+0x1d6>
    80000422:	6398                	ld	a4,0(a5)
    80000424:	fae43823          	sd	a4,-80(s0)
    80000428:	0087d783          	lhu	a5,8(a5)
    8000042c:	faf41c23          	sh	a5,-72(s0)
/home/whalefall/Projects/WhaleOS/kernel/test/testlib.c:74
    assert(memcmp(nums, nums_after, 10) == 0);
    80000430:	fb040713          	addi	a4,s0,-80
    80000434:	fc040793          	addi	a5,s0,-64
    80000438:	4629                	li	a2,10
    8000043a:	85ba                	mv	a1,a4
    8000043c:	853e                	mv	a0,a5
    8000043e:	7e3000ef          	jal	80001420 <memcmp>
    80000442:	87aa                	mv	a5,a0
/home/whalefall/Projects/WhaleOS/kernel/test/testlib.c:74 (discriminator 1)
    80000444:	c38d                	beqz	a5,80000466 <test_memcpy+0xde>
    80000446:	00001697          	auipc	a3,0x1
    8000044a:	38268693          	addi	a3,a3,898 # 800017c8 <__func__.2>
    8000044e:	04a00613          	li	a2,74
    80000452:	00001597          	auipc	a1,0x1
    80000456:	25658593          	addi	a1,a1,598 # 800016a8 <memcpy+0x126>
    8000045a:	00001517          	auipc	a0,0x1
    8000045e:	26650513          	addi	a0,a0,614 # 800016c0 <memcpy+0x13e>
    80000462:	3cd000ef          	jal	8000102e <printf>
/home/whalefall/Projects/WhaleOS/kernel/test/testlib.c:75
}
    80000466:	0001                	nop
    80000468:	60a6                	ld	ra,72(sp)
    8000046a:	6406                	ld	s0,64(sp)
    8000046c:	6161                	addi	sp,sp,80
    8000046e:	8082                	ret

0000000080000470 <test_memmove>:
test_memmove():
/home/whalefall/Projects/WhaleOS/kernel/test/testlib.c:79

static inline void 
test_memmove() 
{
    80000470:	7179                	addi	sp,sp,-48
    80000472:	f406                	sd	ra,40(sp)
    80000474:	f022                	sd	s0,32(sp)
    80000476:	1800                	addi	s0,sp,48
/home/whalefall/Projects/WhaleOS/kernel/test/testlib.c:80
    char buf[10] = "abcdefghi";
    80000478:	00001797          	auipc	a5,0x1
    8000047c:	31078793          	addi	a5,a5,784 # 80001788 <memcpy+0x206>
    80000480:	6398                	ld	a4,0(a5)
    80000482:	fee43023          	sd	a4,-32(s0)
    80000486:	0087d783          	lhu	a5,8(a5)
    8000048a:	fef41423          	sh	a5,-24(s0)
/home/whalefall/Projects/WhaleOS/kernel/test/testlib.c:82
    
    memmove(buf+3, buf, 4);
    8000048e:	fe040793          	addi	a5,s0,-32
    80000492:	078d                	addi	a5,a5,3
    80000494:	fe040713          	addi	a4,s0,-32
    80000498:	4611                	li	a2,4
    8000049a:	85ba                	mv	a1,a4
    8000049c:	853e                	mv	a0,a5
    8000049e:	008010ef          	jal	800014a6 <memmove>
/home/whalefall/Projects/WhaleOS/kernel/test/testlib.c:83
    assert(strcmp(buf, "abcabcdhi") == 0);
    800004a2:	fe040793          	addi	a5,s0,-32
    800004a6:	00001597          	auipc	a1,0x1
    800004aa:	2c258593          	addi	a1,a1,706 # 80001768 <memcpy+0x1e6>
    800004ae:	853e                	mv	a0,a5
    800004b0:	663000ef          	jal	80001312 <strcmp>
    800004b4:	87aa                	mv	a5,a0
/home/whalefall/Projects/WhaleOS/kernel/test/testlib.c:83 (discriminator 1)
    800004b6:	c38d                	beqz	a5,800004d8 <test_memmove+0x68>
    800004b8:	00001697          	auipc	a3,0x1
    800004bc:	32068693          	addi	a3,a3,800 # 800017d8 <__func__.1>
    800004c0:	05300613          	li	a2,83
    800004c4:	00001597          	auipc	a1,0x1
    800004c8:	1e458593          	addi	a1,a1,484 # 800016a8 <memcpy+0x126>
    800004cc:	00001517          	auipc	a0,0x1
    800004d0:	1f450513          	addi	a0,a0,500 # 800016c0 <memcpy+0x13e>
    800004d4:	35b000ef          	jal	8000102e <printf>
/home/whalefall/Projects/WhaleOS/kernel/test/testlib.c:85
    
    char buf2[10] = "abcdefghi";
    800004d8:	00001797          	auipc	a5,0x1
    800004dc:	2b078793          	addi	a5,a5,688 # 80001788 <memcpy+0x206>
    800004e0:	6398                	ld	a4,0(a5)
    800004e2:	fce43823          	sd	a4,-48(s0)
    800004e6:	0087d783          	lhu	a5,8(a5)
    800004ea:	fcf41c23          	sh	a5,-40(s0)
/home/whalefall/Projects/WhaleOS/kernel/test/testlib.c:86
    memmove(buf2, buf2+2, 4);
    800004ee:	fd040793          	addi	a5,s0,-48
    800004f2:	0789                	addi	a5,a5,2
    800004f4:	fd040713          	addi	a4,s0,-48
    800004f8:	4611                	li	a2,4
    800004fa:	85be                	mv	a1,a5
    800004fc:	853a                	mv	a0,a4
    800004fe:	7a9000ef          	jal	800014a6 <memmove>
/home/whalefall/Projects/WhaleOS/kernel/test/testlib.c:87
    assert(memcmp(buf2, "cdefefghi", 9) == 0);
    80000502:	fd040793          	addi	a5,s0,-48
    80000506:	4625                	li	a2,9
    80000508:	00001597          	auipc	a1,0x1
    8000050c:	27058593          	addi	a1,a1,624 # 80001778 <memcpy+0x1f6>
    80000510:	853e                	mv	a0,a5
    80000512:	70f000ef          	jal	80001420 <memcmp>
    80000516:	87aa                	mv	a5,a0
/home/whalefall/Projects/WhaleOS/kernel/test/testlib.c:87 (discriminator 1)
    80000518:	c38d                	beqz	a5,8000053a <test_memmove+0xca>
    8000051a:	00001697          	auipc	a3,0x1
    8000051e:	2be68693          	addi	a3,a3,702 # 800017d8 <__func__.1>
    80000522:	05700613          	li	a2,87
    80000526:	00001597          	auipc	a1,0x1
    8000052a:	18258593          	addi	a1,a1,386 # 800016a8 <memcpy+0x126>
    8000052e:	00001517          	auipc	a0,0x1
    80000532:	19250513          	addi	a0,a0,402 # 800016c0 <memcpy+0x13e>
    80000536:	2f9000ef          	jal	8000102e <printf>
/home/whalefall/Projects/WhaleOS/kernel/test/testlib.c:88
}
    8000053a:	0001                	nop
    8000053c:	70a2                	ld	ra,40(sp)
    8000053e:	7402                	ld	s0,32(sp)
    80000540:	6145                	addi	sp,sp,48
    80000542:	8082                	ret

0000000080000544 <test_memcmp>:
test_memcmp():
/home/whalefall/Projects/WhaleOS/kernel/test/testlib.c:92

static inline void 
test_memcmp() 
{
    80000544:	7179                	addi	sp,sp,-48
    80000546:	f406                	sd	ra,40(sp)
    80000548:	f022                	sd	s0,32(sp)
    8000054a:	1800                	addi	s0,sp,48
/home/whalefall/Projects/WhaleOS/kernel/test/testlib.c:93
    char a[] = {1,2,3,4,5};
    8000054c:	040307b7          	lui	a5,0x4030
    80000550:	20178793          	addi	a5,a5,513 # 4030201 <_start-0x7bfcfdff>
    80000554:	fef42423          	sw	a5,-24(s0)
    80000558:	4795                	li	a5,5
    8000055a:	fef40623          	sb	a5,-20(s0)
/home/whalefall/Projects/WhaleOS/kernel/test/testlib.c:94
    char b[] = {1,2,3,4,5};
    8000055e:	040307b7          	lui	a5,0x4030
    80000562:	20178793          	addi	a5,a5,513 # 4030201 <_start-0x7bfcfdff>
    80000566:	fef42023          	sw	a5,-32(s0)
    8000056a:	4795                	li	a5,5
    8000056c:	fef40223          	sb	a5,-28(s0)
/home/whalefall/Projects/WhaleOS/kernel/test/testlib.c:95
    assert(memcmp(a, b, 5) == 0);
    80000570:	fe040713          	addi	a4,s0,-32
    80000574:	fe840793          	addi	a5,s0,-24
    80000578:	4615                	li	a2,5
    8000057a:	85ba                	mv	a1,a4
    8000057c:	853e                	mv	a0,a5
    8000057e:	6a3000ef          	jal	80001420 <memcmp>
    80000582:	87aa                	mv	a5,a0
/home/whalefall/Projects/WhaleOS/kernel/test/testlib.c:95 (discriminator 1)
    80000584:	c38d                	beqz	a5,800005a6 <test_memcmp+0x62>
    80000586:	00001697          	auipc	a3,0x1
    8000058a:	26268693          	addi	a3,a3,610 # 800017e8 <__func__.0>
    8000058e:	05f00613          	li	a2,95
    80000592:	00001597          	auipc	a1,0x1
    80000596:	11658593          	addi	a1,a1,278 # 800016a8 <memcpy+0x126>
    8000059a:	00001517          	auipc	a0,0x1
    8000059e:	12650513          	addi	a0,a0,294 # 800016c0 <memcpy+0x13e>
    800005a2:	28d000ef          	jal	8000102e <printf>
/home/whalefall/Projects/WhaleOS/kernel/test/testlib.c:97
    
    char c[] = {1,2,0,4,5};
    800005a6:	040007b7          	lui	a5,0x4000
    800005aa:	20178793          	addi	a5,a5,513 # 4000201 <_start-0x7bfffdff>
    800005ae:	fcf42c23          	sw	a5,-40(s0)
    800005b2:	4795                	li	a5,5
    800005b4:	fcf40e23          	sb	a5,-36(s0)
/home/whalefall/Projects/WhaleOS/kernel/test/testlib.c:98
    assert(memcmp(a, c, 5) > 0);
    800005b8:	fd840713          	addi	a4,s0,-40
    800005bc:	fe840793          	addi	a5,s0,-24
    800005c0:	4615                	li	a2,5
    800005c2:	85ba                	mv	a1,a4
    800005c4:	853e                	mv	a0,a5
    800005c6:	65b000ef          	jal	80001420 <memcmp>
    800005ca:	87aa                	mv	a5,a0
/home/whalefall/Projects/WhaleOS/kernel/test/testlib.c:98 (discriminator 1)
    800005cc:	02f04263          	bgtz	a5,800005f0 <test_memcmp+0xac>
    800005d0:	00001697          	auipc	a3,0x1
    800005d4:	21868693          	addi	a3,a3,536 # 800017e8 <__func__.0>
    800005d8:	06200613          	li	a2,98
    800005dc:	00001597          	auipc	a1,0x1
    800005e0:	0cc58593          	addi	a1,a1,204 # 800016a8 <memcpy+0x126>
    800005e4:	00001517          	auipc	a0,0x1
    800005e8:	0dc50513          	addi	a0,a0,220 # 800016c0 <memcpy+0x13e>
    800005ec:	243000ef          	jal	8000102e <printf>
/home/whalefall/Projects/WhaleOS/kernel/test/testlib.c:101

    assert(memcmp("abcd", "abce", 3) == 0);
}
    800005f0:	0001                	nop
    800005f2:	70a2                	ld	ra,40(sp)
    800005f4:	7402                	ld	s0,32(sp)
    800005f6:	6145                	addi	sp,sp,48
    800005f8:	8082                	ret

00000000800005fa <test_string>:
test_string():
/home/whalefall/Projects/WhaleOS/kernel/test/testlib.c:105

void 
test_string() 
{
    800005fa:	1141                	addi	sp,sp,-16
    800005fc:	e406                	sd	ra,8(sp)
    800005fe:	e022                	sd	s0,0(sp)
    80000600:	0800                	addi	s0,sp,16
/home/whalefall/Projects/WhaleOS/kernel/test/testlib.c:106
    test_strcpy();
    80000602:	b67ff0ef          	jal	80000168 <test_strcpy>
/home/whalefall/Projects/WhaleOS/kernel/test/testlib.c:108
    // puts("Pass strcpy\n");
    test_strncpy();
    80000606:	c0fff0ef          	jal	80000214 <test_strncpy>
/home/whalefall/Projects/WhaleOS/kernel/test/testlib.c:110
    // puts("Pass strncpy\n");
    test_strncmp();
    8000060a:	cc7ff0ef          	jal	800002d0 <test_strncmp>
/home/whalefall/Projects/WhaleOS/kernel/test/testlib.c:112
    // puts("Pass strncmp\n");
    test_memset();
    8000060e:	cd5ff0ef          	jal	800002e2 <test_memset>
/home/whalefall/Projects/WhaleOS/kernel/test/testlib.c:114
    // puts("Pass memset\n");
    test_memcpy();
    80000612:	d77ff0ef          	jal	80000388 <test_memcpy>
/home/whalefall/Projects/WhaleOS/kernel/test/testlib.c:116
    // puts("Pass memcpy\n");
    test_memmove();
    80000616:	e5bff0ef          	jal	80000470 <test_memmove>
/home/whalefall/Projects/WhaleOS/kernel/test/testlib.c:118
    // puts("Pass memmove\n");
    test_memcmp();
    8000061a:	f2bff0ef          	jal	80000544 <test_memcmp>
/home/whalefall/Projects/WhaleOS/kernel/test/testlib.c:120
    // puts("Pass memcmp\n");
    8000061e:	0001                	nop
    80000620:	60a2                	ld	ra,8(sp)
    80000622:	6402                	ld	s0,0(sp)
    80000624:	0141                	addi	sp,sp,16
    80000626:	8082                	ret

0000000080000628 <main>:
main():
/home/whalefall/Projects/WhaleOS/kernel/main.c:15
char init_stack[PGSIZE] __attribute__((aligned(PGSIZE)));
char *init_stack_top = &init_stack[PGSIZE];

int 
main()
{
    80000628:	1141                	addi	sp,sp,-16
    8000062a:	e406                	sd	ra,8(sp)
    8000062c:	e022                	sd	s0,0(sp)
    8000062e:	0800                	addi	s0,sp,16
/home/whalefall/Projects/WhaleOS/kernel/main.c:16
    uart_init();
    80000630:	a21ff0ef          	jal	80000050 <uart_init>
/home/whalefall/Projects/WhaleOS/kernel/main.c:17
    puts("Initialize uart0\n");
    80000634:	00001517          	auipc	a0,0x1
    80000638:	1c450513          	addi	a0,a0,452 # 800017f8 <__func__.0+0x10>
    8000063c:	26f000ef          	jal	800010aa <puts>
/home/whalefall/Projects/WhaleOS/kernel/main.c:18
    test_printf();
    80000640:	aabff0ef          	jal	800000ea <test_printf>
/home/whalefall/Projects/WhaleOS/kernel/main.c:19
    test_string();
    80000644:	fb7ff0ef          	jal	800005fa <test_string>
/home/whalefall/Projects/WhaleOS/kernel/main.c:20
    return 0;
    80000648:	4781                	li	a5,0
/home/whalefall/Projects/WhaleOS/kernel/main.c:21
    8000064a:	853e                	mv	a0,a5
    8000064c:	60a2                	ld	ra,8(sp)
    8000064e:	6402                	ld	s0,0(sp)
    80000650:	0141                	addi	sp,sp,16
    80000652:	8082                	ret

0000000080000654 <skip_atoi>:
skip_atoi():
/home/whalefall/Projects/WhaleOS/kernel/lib/printf.c:26
static const char* digits_high = "0123456789ABCDEFGHIJKLMNOPQRSTUVWXYZ";

// string convert to number
static inline int
skip_atoi(const char** s)
{
    80000654:	7179                	addi	sp,sp,-48
    80000656:	f406                	sd	ra,40(sp)
    80000658:	f022                	sd	s0,32(sp)
    8000065a:	1800                	addi	s0,sp,48
    8000065c:	fca43c23          	sd	a0,-40(s0)
/home/whalefall/Projects/WhaleOS/kernel/lib/printf.c:27
    int i = 0;
    80000660:	fe042623          	sw	zero,-20(s0)
/home/whalefall/Projects/WhaleOS/kernel/lib/printf.c:28
    while (is_digit(**s))
    80000664:	a82d                	j	8000069e <skip_atoi+0x4a>
/home/whalefall/Projects/WhaleOS/kernel/lib/printf.c:29
        i = i * 10 + *((*s)++) - '0';
    80000666:	fec42783          	lw	a5,-20(s0)
    8000066a:	873e                	mv	a4,a5
    8000066c:	87ba                	mv	a5,a4
    8000066e:	0027979b          	slliw	a5,a5,0x2
    80000672:	9fb9                	addw	a5,a5,a4
    80000674:	0017979b          	slliw	a5,a5,0x1
    80000678:	0007871b          	sext.w	a4,a5
    8000067c:	fd843783          	ld	a5,-40(s0)
    80000680:	639c                	ld	a5,0(a5)
    80000682:	00178613          	addi	a2,a5,1
    80000686:	fd843683          	ld	a3,-40(s0)
    8000068a:	e290                	sd	a2,0(a3)
    8000068c:	0007c783          	lbu	a5,0(a5)
    80000690:	2781                	sext.w	a5,a5
    80000692:	9fb9                	addw	a5,a5,a4
    80000694:	2781                	sext.w	a5,a5
    80000696:	fd07879b          	addiw	a5,a5,-48
    8000069a:	fef42623          	sw	a5,-20(s0)
/home/whalefall/Projects/WhaleOS/kernel/lib/printf.c:28
    while (is_digit(**s))
    8000069e:	fd843783          	ld	a5,-40(s0)
    800006a2:	639c                	ld	a5,0(a5)
    800006a4:	0007c783          	lbu	a5,0(a5)
    800006a8:	873e                	mv	a4,a5
    800006aa:	02f00793          	li	a5,47
    800006ae:	00e7fc63          	bgeu	a5,a4,800006c6 <skip_atoi+0x72>
/home/whalefall/Projects/WhaleOS/kernel/lib/printf.c:28 (discriminator 1)
    800006b2:	fd843783          	ld	a5,-40(s0)
    800006b6:	639c                	ld	a5,0(a5)
    800006b8:	0007c783          	lbu	a5,0(a5)
    800006bc:	873e                	mv	a4,a5
    800006be:	03900793          	li	a5,57
    800006c2:	fae7f2e3          	bgeu	a5,a4,80000666 <skip_atoi+0x12>
/home/whalefall/Projects/WhaleOS/kernel/lib/printf.c:30
    return i;
    800006c6:	fec42783          	lw	a5,-20(s0)
/home/whalefall/Projects/WhaleOS/kernel/lib/printf.c:31
}
    800006ca:	853e                	mv	a0,a5
    800006cc:	70a2                	ld	ra,40(sp)
    800006ce:	7402                	ld	s0,32(sp)
    800006d0:	6145                	addi	sp,sp,48
    800006d2:	8082                	ret

00000000800006d4 <write>:
write():
/home/whalefall/Projects/WhaleOS/kernel/lib/printf.c:35

static inline void
write(char *buf, size_t n)
{
    800006d4:	7179                	addi	sp,sp,-48
    800006d6:	f406                	sd	ra,40(sp)
    800006d8:	f022                	sd	s0,32(sp)
    800006da:	1800                	addi	s0,sp,48
    800006dc:	fca43c23          	sd	a0,-40(s0)
    800006e0:	fcb43823          	sd	a1,-48(s0)
/home/whalefall/Projects/WhaleOS/kernel/lib/printf.c:36
    for (int i = 0; i < n; i++)
    800006e4:	fe042623          	sw	zero,-20(s0)
    800006e8:	a005                	j	80000708 <write+0x34>
/home/whalefall/Projects/WhaleOS/kernel/lib/printf.c:37
        uart_putc(buf[i]);
    800006ea:	fec42783          	lw	a5,-20(s0)
    800006ee:	fd843703          	ld	a4,-40(s0)
    800006f2:	97ba                	add	a5,a5,a4
    800006f4:	0007c783          	lbu	a5,0(a5)
    800006f8:	853e                	mv	a0,a5
    800006fa:	9b3ff0ef          	jal	800000ac <uart_putc>
/home/whalefall/Projects/WhaleOS/kernel/lib/printf.c:36 (discriminator 3)
    for (int i = 0; i < n; i++)
    800006fe:	fec42783          	lw	a5,-20(s0)
    80000702:	2785                	addiw	a5,a5,1
    80000704:	fef42623          	sw	a5,-20(s0)
/home/whalefall/Projects/WhaleOS/kernel/lib/printf.c:36 (discriminator 1)
    80000708:	fec42783          	lw	a5,-20(s0)
    8000070c:	fd043703          	ld	a4,-48(s0)
    80000710:	fce7ede3          	bltu	a5,a4,800006ea <write+0x16>
/home/whalefall/Projects/WhaleOS/kernel/lib/printf.c:38
}
    80000714:	0001                	nop
    80000716:	0001                	nop
    80000718:	70a2                	ld	ra,40(sp)
    8000071a:	7402                	ld	s0,32(sp)
    8000071c:	6145                	addi	sp,sp,48
    8000071e:	8082                	ret

0000000080000720 <number>:
number():
/home/whalefall/Projects/WhaleOS/kernel/lib/printf.c:44


// number convert to formatted string
static char* 
number(char *str, int num, int size, int precision, int type)
{
    80000720:	7119                	addi	sp,sp,-128
    80000722:	fc86                	sd	ra,120(sp)
    80000724:	f8a2                	sd	s0,112(sp)
    80000726:	0100                	addi	s0,sp,128
    80000728:	f8a43c23          	sd	a0,-104(s0)
    8000072c:	87ae                	mv	a5,a1
    8000072e:	f8f42a23          	sw	a5,-108(s0)
    80000732:	87b2                	mv	a5,a2
    80000734:	f8f42823          	sw	a5,-112(s0)
    80000738:	87b6                	mv	a5,a3
    8000073a:	f8f42623          	sw	a5,-116(s0)
    8000073e:	87ba                	mv	a5,a4
    80000740:	f8f42423          	sw	a5,-120(s0)
/home/whalefall/Projects/WhaleOS/kernel/lib/printf.c:45
    char c = 0, sign = 0, num_str[36];
    80000744:	fe0401a3          	sb	zero,-29(s0)
    80000748:	fe0407a3          	sb	zero,-17(s0)
/home/whalefall/Projects/WhaleOS/kernel/lib/printf.c:46
    int i = 0;
    8000074c:	fe042423          	sw	zero,-24(s0)
/home/whalefall/Projects/WhaleOS/kernel/lib/printf.c:47
    unsigned base = ((type & BIN) ? BIN : ((type & OCT) ? OCT : ((type & HEX) ? HEX : 10)));
    80000750:	f8842783          	lw	a5,-120(s0)
    80000754:	8b89                	andi	a5,a5,2
    80000756:	2781                	sext.w	a5,a5
    80000758:	e38d                	bnez	a5,8000077a <number+0x5a>
/home/whalefall/Projects/WhaleOS/kernel/lib/printf.c:47 (discriminator 1)
    8000075a:	f8842783          	lw	a5,-120(s0)
    8000075e:	8ba1                	andi	a5,a5,8
    80000760:	2781                	sext.w	a5,a5
    80000762:	eb91                	bnez	a5,80000776 <number+0x56>
/home/whalefall/Projects/WhaleOS/kernel/lib/printf.c:47 (discriminator 3)
    80000764:	f8842783          	lw	a5,-120(s0)
    80000768:	8bc1                	andi	a5,a5,16
    8000076a:	2781                	sext.w	a5,a5
    8000076c:	c399                	beqz	a5,80000772 <number+0x52>
/home/whalefall/Projects/WhaleOS/kernel/lib/printf.c:47 (discriminator 5)
    8000076e:	47c1                	li	a5,16
    80000770:	a031                	j	8000077c <number+0x5c>
/home/whalefall/Projects/WhaleOS/kernel/lib/printf.c:47 (discriminator 6)
    80000772:	47a9                	li	a5,10
    80000774:	a021                	j	8000077c <number+0x5c>
/home/whalefall/Projects/WhaleOS/kernel/lib/printf.c:47 (discriminator 4)
    80000776:	47a1                	li	a5,8
    80000778:	a011                	j	8000077c <number+0x5c>
/home/whalefall/Projects/WhaleOS/kernel/lib/printf.c:47 (discriminator 2)
    8000077a:	4789                	li	a5,2
/home/whalefall/Projects/WhaleOS/kernel/lib/printf.c:47 (discriminator 12)
    8000077c:	fcf42e23          	sw	a5,-36(s0)
/home/whalefall/Projects/WhaleOS/kernel/lib/printf.c:48
    const char* digits = (type & SMALL) ? digits_low : digits_high;
    80000780:	f8842783          	lw	a5,-120(s0)
    80000784:	0407f793          	andi	a5,a5,64
    80000788:	2781                	sext.w	a5,a5
    8000078a:	c799                	beqz	a5,80000798 <number+0x78>
/home/whalefall/Projects/WhaleOS/kernel/lib/printf.c:48 (discriminator 1)
    8000078c:	00002797          	auipc	a5,0x2
    80000790:	16c78793          	addi	a5,a5,364 # 800028f8 <digits_low>
    80000794:	639c                	ld	a5,0(a5)
    80000796:	a031                	j	800007a2 <number+0x82>
/home/whalefall/Projects/WhaleOS/kernel/lib/printf.c:48 (discriminator 2)
    80000798:	00002797          	auipc	a5,0x2
    8000079c:	16878793          	addi	a5,a5,360 # 80002900 <digits_high>
    800007a0:	639c                	ld	a5,0(a5)
/home/whalefall/Projects/WhaleOS/kernel/lib/printf.c:48 (discriminator 4)
    800007a2:	fcf43823          	sd	a5,-48(s0)
/home/whalefall/Projects/WhaleOS/kernel/lib/printf.c:51

    // left align forbid zeropad
    if (type & LEFT) type &= ~ZEROPAD;
    800007a6:	f8842783          	lw	a5,-120(s0)
    800007aa:	0207f793          	andi	a5,a5,32
    800007ae:	2781                	sext.w	a5,a5
    800007b0:	c791                	beqz	a5,800007bc <number+0x9c>
/home/whalefall/Projects/WhaleOS/kernel/lib/printf.c:51 (discriminator 1)
    800007b2:	f8842783          	lw	a5,-120(s0)
    800007b6:	9bf9                	andi	a5,a5,-2
    800007b8:	f8f42423          	sw	a5,-120(s0)
/home/whalefall/Projects/WhaleOS/kernel/lib/printf.c:53
    // set padding character
    c = (type & ZEROPAD) ? '0' : ' ';
    800007bc:	f8842783          	lw	a5,-120(s0)
    800007c0:	8b85                	andi	a5,a5,1
    800007c2:	2781                	sext.w	a5,a5
    800007c4:	c781                	beqz	a5,800007cc <number+0xac>
/home/whalefall/Projects/WhaleOS/kernel/lib/printf.c:53 (discriminator 1)
    800007c6:	03000793          	li	a5,48
    800007ca:	a019                	j	800007d0 <number+0xb0>
/home/whalefall/Projects/WhaleOS/kernel/lib/printf.c:53 (discriminator 2)
    800007cc:	02000793          	li	a5,32
/home/whalefall/Projects/WhaleOS/kernel/lib/printf.c:53 (discriminator 4)
    800007d0:	fef401a3          	sb	a5,-29(s0)
/home/whalefall/Projects/WhaleOS/kernel/lib/printf.c:55

    if ((type & SIGN) && num < 0)
    800007d4:	f8842783          	lw	a5,-120(s0)
    800007d8:	8b91                	andi	a5,a5,4
    800007da:	2781                	sext.w	a5,a5
    800007dc:	c385                	beqz	a5,800007fc <number+0xdc>
/home/whalefall/Projects/WhaleOS/kernel/lib/printf.c:55 (discriminator 1)
    800007de:	f9442783          	lw	a5,-108(s0)
    800007e2:	2781                	sext.w	a5,a5
    800007e4:	0007dc63          	bgez	a5,800007fc <number+0xdc>
/home/whalefall/Projects/WhaleOS/kernel/lib/printf.c:56
        sign = '-', num = -num;
    800007e8:	02d00793          	li	a5,45
    800007ec:	fef407a3          	sb	a5,-17(s0)
    800007f0:	f9442783          	lw	a5,-108(s0)
    800007f4:	40f007bb          	negw	a5,a5
    800007f8:	f8f42a23          	sw	a5,-108(s0)
/home/whalefall/Projects/WhaleOS/kernel/lib/printf.c:58

    size -= (sign) ? 1 : 0;
    800007fc:	fef44783          	lbu	a5,-17(s0)
    80000800:	2781                	sext.w	a5,a5
    80000802:	00f037b3          	snez	a5,a5
    80000806:	0ff7f793          	zext.b	a5,a5
    8000080a:	2781                	sext.w	a5,a5
    8000080c:	f9042703          	lw	a4,-112(s0)
    80000810:	40f707bb          	subw	a5,a4,a5
    80000814:	f8f42823          	sw	a5,-112(s0)
/home/whalefall/Projects/WhaleOS/kernel/lib/printf.c:60

    if (type & PREFIX) {
    80000818:	f8842783          	lw	a5,-120(s0)
    8000081c:	0807f793          	andi	a5,a5,128
    80000820:	2781                	sext.w	a5,a5
    80000822:	c3a9                	beqz	a5,80000864 <number+0x144>
/home/whalefall/Projects/WhaleOS/kernel/lib/printf.c:61
        size -= (((type & BIN) || (type & HEX)) ? 2 : 0);
    80000824:	f8842783          	lw	a5,-120(s0)
    80000828:	8b89                	andi	a5,a5,2
    8000082a:	2781                	sext.w	a5,a5
    8000082c:	e791                	bnez	a5,80000838 <number+0x118>
/home/whalefall/Projects/WhaleOS/kernel/lib/printf.c:61 (discriminator 2)
    8000082e:	f8842783          	lw	a5,-120(s0)
    80000832:	8bc1                	andi	a5,a5,16
    80000834:	2781                	sext.w	a5,a5
    80000836:	c399                	beqz	a5,8000083c <number+0x11c>
/home/whalefall/Projects/WhaleOS/kernel/lib/printf.c:61 (discriminator 3)
    80000838:	4789                	li	a5,2
/home/whalefall/Projects/WhaleOS/kernel/lib/printf.c:61
    8000083a:	a011                	j	8000083e <number+0x11e>
/home/whalefall/Projects/WhaleOS/kernel/lib/printf.c:61 (discriminator 4)
    8000083c:	4781                	li	a5,0
/home/whalefall/Projects/WhaleOS/kernel/lib/printf.c:61 (discriminator 6)
    8000083e:	f9042703          	lw	a4,-112(s0)
    80000842:	40f707bb          	subw	a5,a4,a5
    80000846:	f8f42823          	sw	a5,-112(s0)
/home/whalefall/Projects/WhaleOS/kernel/lib/printf.c:62
        size -= ((type & OCT) ? 1 : 0);
    8000084a:	f8842783          	lw	a5,-120(s0)
    8000084e:	4037d79b          	sraiw	a5,a5,0x3
    80000852:	2781                	sext.w	a5,a5
    80000854:	8b85                	andi	a5,a5,1
    80000856:	2781                	sext.w	a5,a5
    80000858:	f9042703          	lw	a4,-112(s0)
    8000085c:	40f707bb          	subw	a5,a4,a5
    80000860:	f8f42823          	sw	a5,-112(s0)
/home/whalefall/Projects/WhaleOS/kernel/lib/printf.c:66
    }

    // convert
    if (num == 0)
    80000864:	f9442783          	lw	a5,-108(s0)
    80000868:	2781                	sext.w	a5,a5
    8000086a:	ef91                	bnez	a5,80000886 <number+0x166>
/home/whalefall/Projects/WhaleOS/kernel/lib/printf.c:67
        num_str[i++] = '0';
    8000086c:	fe842783          	lw	a5,-24(s0)
    80000870:	0017871b          	addiw	a4,a5,1
    80000874:	fee42423          	sw	a4,-24(s0)
    80000878:	17c1                	addi	a5,a5,-16
    8000087a:	97a2                	add	a5,a5,s0
    8000087c:	03000713          	li	a4,48
    80000880:	fae78c23          	sb	a4,-72(a5)
    80000884:	a899                	j	800008da <number+0x1ba>
/home/whalefall/Projects/WhaleOS/kernel/lib/printf.c:69
    else {
        unsigned unum = num;
    80000886:	f9442783          	lw	a5,-108(s0)
    8000088a:	fef42223          	sw	a5,-28(s0)
/home/whalefall/Projects/WhaleOS/kernel/lib/printf.c:71
        do {
            num_str[i++] = digits[unum % base];
    8000088e:	fe442783          	lw	a5,-28(s0)
    80000892:	873e                	mv	a4,a5
    80000894:	fdc42783          	lw	a5,-36(s0)
    80000898:	02f777bb          	remuw	a5,a4,a5
    8000089c:	2781                	sext.w	a5,a5
    8000089e:	1782                	slli	a5,a5,0x20
    800008a0:	9381                	srli	a5,a5,0x20
    800008a2:	fd043703          	ld	a4,-48(s0)
    800008a6:	973e                	add	a4,a4,a5
    800008a8:	fe842783          	lw	a5,-24(s0)
    800008ac:	0017869b          	addiw	a3,a5,1
    800008b0:	fed42423          	sw	a3,-24(s0)
    800008b4:	00074703          	lbu	a4,0(a4)
    800008b8:	17c1                	addi	a5,a5,-16
    800008ba:	97a2                	add	a5,a5,s0
    800008bc:	fae78c23          	sb	a4,-72(a5)
/home/whalefall/Projects/WhaleOS/kernel/lib/printf.c:72
            unum /= base;
    800008c0:	fe442783          	lw	a5,-28(s0)
    800008c4:	873e                	mv	a4,a5
    800008c6:	fdc42783          	lw	a5,-36(s0)
    800008ca:	02f757bb          	divuw	a5,a4,a5
    800008ce:	fef42223          	sw	a5,-28(s0)
/home/whalefall/Projects/WhaleOS/kernel/lib/printf.c:73 (discriminator 1)
        } while (unum != 0);
    800008d2:	fe442783          	lw	a5,-28(s0)
    800008d6:	2781                	sext.w	a5,a5
    800008d8:	fbdd                	bnez	a5,8000088e <number+0x16e>
/home/whalefall/Projects/WhaleOS/kernel/lib/printf.c:76
    }

    precision = (i > precision ? i : precision);
    800008da:	fe842783          	lw	a5,-24(s0)
    800008de:	863e                	mv	a2,a5
    800008e0:	f8c42783          	lw	a5,-116(s0)
    800008e4:	0007869b          	sext.w	a3,a5
    800008e8:	0006071b          	sext.w	a4,a2
    800008ec:	00e6d363          	bge	a3,a4,800008f2 <number+0x1d2>
    800008f0:	87b2                	mv	a5,a2
    800008f2:	f8f42623          	sw	a5,-116(s0)
/home/whalefall/Projects/WhaleOS/kernel/lib/printf.c:77
    size -= precision;
    800008f6:	f9042783          	lw	a5,-112(s0)
    800008fa:	873e                	mv	a4,a5
    800008fc:	f8c42783          	lw	a5,-116(s0)
    80000900:	40f707bb          	subw	a5,a4,a5
    80000904:	f8f42823          	sw	a5,-112(s0)
/home/whalefall/Projects/WhaleOS/kernel/lib/printf.c:79

    if (!(type & (ZEROPAD | LEFT))) {
    80000908:	f8842783          	lw	a5,-120(s0)
    8000090c:	0217f793          	andi	a5,a5,33
    80000910:	2781                	sext.w	a5,a5
    80000912:	e785                	bnez	a5,8000093a <number+0x21a>
/home/whalefall/Projects/WhaleOS/kernel/lib/printf.c:80
        while (size-- > 0)
    80000914:	a819                	j	8000092a <number+0x20a>
/home/whalefall/Projects/WhaleOS/kernel/lib/printf.c:81
            *str++ = ' ';
    80000916:	f9843783          	ld	a5,-104(s0)
    8000091a:	00178713          	addi	a4,a5,1
    8000091e:	f8e43c23          	sd	a4,-104(s0)
    80000922:	02000713          	li	a4,32
    80000926:	00e78023          	sb	a4,0(a5)
/home/whalefall/Projects/WhaleOS/kernel/lib/printf.c:80
        while (size-- > 0)
    8000092a:	f9042783          	lw	a5,-112(s0)
    8000092e:	fff7871b          	addiw	a4,a5,-1
    80000932:	f8e42823          	sw	a4,-112(s0)
    80000936:	fef040e3          	bgtz	a5,80000916 <number+0x1f6>
/home/whalefall/Projects/WhaleOS/kernel/lib/printf.c:84
    }

    if (sign)
    8000093a:	fef44783          	lbu	a5,-17(s0)
    8000093e:	0ff7f793          	zext.b	a5,a5
    80000942:	cb99                	beqz	a5,80000958 <number+0x238>
/home/whalefall/Projects/WhaleOS/kernel/lib/printf.c:85
        *str++ = sign;
    80000944:	f9843783          	ld	a5,-104(s0)
    80000948:	00178713          	addi	a4,a5,1
    8000094c:	f8e43c23          	sd	a4,-104(s0)
    80000950:	fef44703          	lbu	a4,-17(s0)
    80000954:	00e78023          	sb	a4,0(a5)
/home/whalefall/Projects/WhaleOS/kernel/lib/printf.c:87

    if (type & PREFIX) {
    80000958:	f8842783          	lw	a5,-120(s0)
    8000095c:	0807f793          	andi	a5,a5,128
    80000960:	2781                	sext.w	a5,a5
    80000962:	c3ad                	beqz	a5,800009c4 <number+0x2a4>
/home/whalefall/Projects/WhaleOS/kernel/lib/printf.c:88
        *str++ = '0';
    80000964:	f9843783          	ld	a5,-104(s0)
    80000968:	00178713          	addi	a4,a5,1
    8000096c:	f8e43c23          	sd	a4,-104(s0)
    80000970:	03000713          	li	a4,48
    80000974:	00e78023          	sb	a4,0(a5)
/home/whalefall/Projects/WhaleOS/kernel/lib/printf.c:89
        if (type & BIN)
    80000978:	f8842783          	lw	a5,-120(s0)
    8000097c:	8b89                	andi	a5,a5,2
    8000097e:	2781                	sext.w	a5,a5
    80000980:	cf99                	beqz	a5,8000099e <number+0x27e>
/home/whalefall/Projects/WhaleOS/kernel/lib/printf.c:90
            *str++ = digits[11];
    80000982:	fd043783          	ld	a5,-48(s0)
    80000986:	00b78713          	addi	a4,a5,11
    8000098a:	f9843783          	ld	a5,-104(s0)
    8000098e:	00178693          	addi	a3,a5,1
    80000992:	f8d43c23          	sd	a3,-104(s0)
    80000996:	00074703          	lbu	a4,0(a4)
    8000099a:	00e78023          	sb	a4,0(a5)
/home/whalefall/Projects/WhaleOS/kernel/lib/printf.c:91
        if (type & HEX)
    8000099e:	f8842783          	lw	a5,-120(s0)
    800009a2:	8bc1                	andi	a5,a5,16
    800009a4:	2781                	sext.w	a5,a5
    800009a6:	cf99                	beqz	a5,800009c4 <number+0x2a4>
/home/whalefall/Projects/WhaleOS/kernel/lib/printf.c:92
            *str++ = digits[33];
    800009a8:	fd043783          	ld	a5,-48(s0)
    800009ac:	02178713          	addi	a4,a5,33
    800009b0:	f9843783          	ld	a5,-104(s0)
    800009b4:	00178693          	addi	a3,a5,1
    800009b8:	f8d43c23          	sd	a3,-104(s0)
    800009bc:	00074703          	lbu	a4,0(a4)
    800009c0:	00e78023          	sb	a4,0(a5)
/home/whalefall/Projects/WhaleOS/kernel/lib/printf.c:95
    }

    if (!(type & LEFT)) {
    800009c4:	f8842783          	lw	a5,-120(s0)
    800009c8:	0207f793          	andi	a5,a5,32
    800009cc:	2781                	sext.w	a5,a5
    800009ce:	ef9d                	bnez	a5,80000a0c <number+0x2ec>
/home/whalefall/Projects/WhaleOS/kernel/lib/printf.c:96
        while (size-- > 0)
    800009d0:	a819                	j	800009e6 <number+0x2c6>
/home/whalefall/Projects/WhaleOS/kernel/lib/printf.c:97
            *str++ = c;
    800009d2:	f9843783          	ld	a5,-104(s0)
    800009d6:	00178713          	addi	a4,a5,1
    800009da:	f8e43c23          	sd	a4,-104(s0)
    800009de:	fe344703          	lbu	a4,-29(s0)
    800009e2:	00e78023          	sb	a4,0(a5)
/home/whalefall/Projects/WhaleOS/kernel/lib/printf.c:96
        while (size-- > 0)
    800009e6:	f9042783          	lw	a5,-112(s0)
    800009ea:	fff7871b          	addiw	a4,a5,-1
    800009ee:	f8e42823          	sw	a4,-112(s0)
    800009f2:	fef040e3          	bgtz	a5,800009d2 <number+0x2b2>
/home/whalefall/Projects/WhaleOS/kernel/lib/printf.c:100
    }

    while (i < precision--) *str++ = '0';
    800009f6:	a819                	j	80000a0c <number+0x2ec>
/home/whalefall/Projects/WhaleOS/kernel/lib/printf.c:100 (discriminator 2)
    800009f8:	f9843783          	ld	a5,-104(s0)
    800009fc:	00178713          	addi	a4,a5,1
    80000a00:	f8e43c23          	sd	a4,-104(s0)
    80000a04:	03000713          	li	a4,48
    80000a08:	00e78023          	sb	a4,0(a5)
/home/whalefall/Projects/WhaleOS/kernel/lib/printf.c:100 (discriminator 1)
    80000a0c:	f8c42783          	lw	a5,-116(s0)
    80000a10:	fff7871b          	addiw	a4,a5,-1
    80000a14:	f8e42623          	sw	a4,-116(s0)
    80000a18:	fe842703          	lw	a4,-24(s0)
    80000a1c:	2701                	sext.w	a4,a4
    80000a1e:	fcf74de3          	blt	a4,a5,800009f8 <number+0x2d8>
/home/whalefall/Projects/WhaleOS/kernel/lib/printf.c:101
    while (i-- > 0) *str++ = num_str[i];
    80000a22:	a839                	j	80000a40 <number+0x320>
/home/whalefall/Projects/WhaleOS/kernel/lib/printf.c:101 (discriminator 2)
    80000a24:	f9843783          	ld	a5,-104(s0)
    80000a28:	00178713          	addi	a4,a5,1
    80000a2c:	f8e43c23          	sd	a4,-104(s0)
    80000a30:	fe842703          	lw	a4,-24(s0)
    80000a34:	1741                	addi	a4,a4,-16
    80000a36:	9722                	add	a4,a4,s0
    80000a38:	fb874703          	lbu	a4,-72(a4)
    80000a3c:	00e78023          	sb	a4,0(a5)
/home/whalefall/Projects/WhaleOS/kernel/lib/printf.c:101 (discriminator 1)
    80000a40:	fe842783          	lw	a5,-24(s0)
    80000a44:	fff7871b          	addiw	a4,a5,-1
    80000a48:	fee42423          	sw	a4,-24(s0)
    80000a4c:	fcf04ce3          	bgtz	a5,80000a24 <number+0x304>
/home/whalefall/Projects/WhaleOS/kernel/lib/printf.c:102
    while (size-- > 0) *str++ = ' ';
    80000a50:	a819                	j	80000a66 <number+0x346>
/home/whalefall/Projects/WhaleOS/kernel/lib/printf.c:102 (discriminator 2)
    80000a52:	f9843783          	ld	a5,-104(s0)
    80000a56:	00178713          	addi	a4,a5,1
    80000a5a:	f8e43c23          	sd	a4,-104(s0)
    80000a5e:	02000713          	li	a4,32
    80000a62:	00e78023          	sb	a4,0(a5)
/home/whalefall/Projects/WhaleOS/kernel/lib/printf.c:102 (discriminator 1)
    80000a66:	f9042783          	lw	a5,-112(s0)
    80000a6a:	fff7871b          	addiw	a4,a5,-1
    80000a6e:	f8e42823          	sw	a4,-112(s0)
    80000a72:	fef040e3          	bgtz	a5,80000a52 <number+0x332>
/home/whalefall/Projects/WhaleOS/kernel/lib/printf.c:104

    return str;
    80000a76:	f9843783          	ld	a5,-104(s0)
/home/whalefall/Projects/WhaleOS/kernel/lib/printf.c:105
}
    80000a7a:	853e                	mv	a0,a5
    80000a7c:	70e6                	ld	ra,120(sp)
    80000a7e:	7446                	ld	s0,112(sp)
    80000a80:	6109                	addi	sp,sp,128
    80000a82:	8082                	ret

0000000080000a84 <vsnprintf>:
vsnprintf():
/home/whalefall/Projects/WhaleOS/kernel/lib/printf.c:110


int 
vsnprintf(char *out, size_t n, const char* fmt, va_list ap)
{
    80000a84:	7159                	addi	sp,sp,-112
    80000a86:	f486                	sd	ra,104(sp)
    80000a88:	f0a2                	sd	s0,96(sp)
    80000a8a:	1880                	addi	s0,sp,112
    80000a8c:	faa43423          	sd	a0,-88(s0)
    80000a90:	fab43023          	sd	a1,-96(s0)
    80000a94:	f8c43c23          	sd	a2,-104(s0)
    80000a98:	f8d43823          	sd	a3,-112(s0)
/home/whalefall/Projects/WhaleOS/kernel/lib/printf.c:111
    int cnt = 0;
    80000a9c:	fe042623          	sw	zero,-20(s0)
/home/whalefall/Projects/WhaleOS/kernel/lib/printf.c:114
    char *str;

    for (str = out; *fmt && cnt < n; cnt++, fmt++) 
    80000aa0:	fa843783          	ld	a5,-88(s0)
    80000aa4:	fef43023          	sd	a5,-32(s0)
    80000aa8:	ab81                	j	80000ff8 <vsnprintf+0x574>
/home/whalefall/Projects/WhaleOS/kernel/lib/printf.c:116
    {
        if (*fmt != '%') {
    80000aaa:	f9843783          	ld	a5,-104(s0)
    80000aae:	0007c783          	lbu	a5,0(a5)
    80000ab2:	873e                	mv	a4,a5
    80000ab4:	02500793          	li	a5,37
    80000ab8:	00f70f63          	beq	a4,a5,80000ad6 <vsnprintf+0x52>
/home/whalefall/Projects/WhaleOS/kernel/lib/printf.c:117
            *str++ = *fmt;
    80000abc:	f9843703          	ld	a4,-104(s0)
    80000ac0:	fe043783          	ld	a5,-32(s0)
    80000ac4:	00178693          	addi	a3,a5,1
    80000ac8:	fed43023          	sd	a3,-32(s0)
    80000acc:	00074703          	lbu	a4,0(a4)
    80000ad0:	00e78023          	sb	a4,0(a5)
/home/whalefall/Projects/WhaleOS/kernel/lib/printf.c:118
            continue;
    80000ad4:	ab01                	j	80000fe4 <vsnprintf+0x560>
/home/whalefall/Projects/WhaleOS/kernel/lib/printf.c:121
        }

        int flags = 0;
    80000ad6:	fc042e23          	sw	zero,-36(s0)
/home/whalefall/Projects/WhaleOS/kernel/lib/printf.c:123
        loop:
            cnt++, fmt++;
    80000ada:	fec42783          	lw	a5,-20(s0)
    80000ade:	2785                	addiw	a5,a5,1
    80000ae0:	fef42623          	sw	a5,-20(s0)
    80000ae4:	f9843783          	ld	a5,-104(s0)
    80000ae8:	0785                	addi	a5,a5,1
    80000aea:	f8f43c23          	sd	a5,-104(s0)
/home/whalefall/Projects/WhaleOS/kernel/lib/printf.c:124
            switch(*fmt) {
    80000aee:	f9843783          	ld	a5,-104(s0)
    80000af2:	0007c783          	lbu	a5,0(a5)
    80000af6:	2781                	sext.w	a5,a5
    80000af8:	03000713          	li	a4,48
    80000afc:	02e78c63          	beq	a5,a4,80000b34 <vsnprintf+0xb0>
    80000b00:	03000713          	li	a4,48
    80000b04:	02f74f63          	blt	a4,a5,80000b42 <vsnprintf+0xbe>
    80000b08:	02300713          	li	a4,35
    80000b0c:	00e78d63          	beq	a5,a4,80000b26 <vsnprintf+0xa2>
    80000b10:	02d00713          	li	a4,45
    80000b14:	02e79763          	bne	a5,a4,80000b42 <vsnprintf+0xbe>
/home/whalefall/Projects/WhaleOS/kernel/lib/printf.c:125
                case '-': flags |= LEFT; goto loop;
    80000b18:	fdc42783          	lw	a5,-36(s0)
    80000b1c:	0207e793          	ori	a5,a5,32
    80000b20:	fcf42e23          	sw	a5,-36(s0)
    80000b24:	bf5d                	j	80000ada <vsnprintf+0x56>
/home/whalefall/Projects/WhaleOS/kernel/lib/printf.c:126
                case '#': flags |= PREFIX; goto loop;
    80000b26:	fdc42783          	lw	a5,-36(s0)
    80000b2a:	0807e793          	ori	a5,a5,128
    80000b2e:	fcf42e23          	sw	a5,-36(s0)
    80000b32:	b765                	j	80000ada <vsnprintf+0x56>
/home/whalefall/Projects/WhaleOS/kernel/lib/printf.c:127
                case '0': flags |= ZEROPAD; goto loop;
    80000b34:	fdc42783          	lw	a5,-36(s0)
    80000b38:	0017e793          	ori	a5,a5,1
    80000b3c:	fcf42e23          	sw	a5,-36(s0)
    80000b40:	bf69                	j	80000ada <vsnprintf+0x56>
/home/whalefall/Projects/WhaleOS/kernel/lib/printf.c:130
            }

        int field_width = -1;
    80000b42:	57fd                	li	a5,-1
    80000b44:	fcf42c23          	sw	a5,-40(s0)
/home/whalefall/Projects/WhaleOS/kernel/lib/printf.c:131
        if (is_digit(*fmt)) {
    80000b48:	f9843783          	ld	a5,-104(s0)
    80000b4c:	0007c783          	lbu	a5,0(a5)
    80000b50:	873e                	mv	a4,a5
    80000b52:	02f00793          	li	a5,47
    80000b56:	02e7f463          	bgeu	a5,a4,80000b7e <vsnprintf+0xfa>
/home/whalefall/Projects/WhaleOS/kernel/lib/printf.c:131 (discriminator 1)
    80000b5a:	f9843783          	ld	a5,-104(s0)
    80000b5e:	0007c783          	lbu	a5,0(a5)
    80000b62:	873e                	mv	a4,a5
    80000b64:	03900793          	li	a5,57
    80000b68:	00e7eb63          	bltu	a5,a4,80000b7e <vsnprintf+0xfa>
/home/whalefall/Projects/WhaleOS/kernel/lib/printf.c:132
            field_width = skip_atoi(&fmt);
    80000b6c:	f9840793          	addi	a5,s0,-104
    80000b70:	853e                	mv	a0,a5
    80000b72:	ae3ff0ef          	jal	80000654 <skip_atoi>
    80000b76:	87aa                	mv	a5,a0
    80000b78:	fcf42c23          	sw	a5,-40(s0)
    80000b7c:	a8b1                	j	80000bd8 <vsnprintf+0x154>
/home/whalefall/Projects/WhaleOS/kernel/lib/printf.c:133
        } else if (*fmt == '*') {
    80000b7e:	f9843783          	ld	a5,-104(s0)
    80000b82:	0007c783          	lbu	a5,0(a5)
    80000b86:	873e                	mv	a4,a5
    80000b88:	02a00793          	li	a5,42
    80000b8c:	04f71663          	bne	a4,a5,80000bd8 <vsnprintf+0x154>
/home/whalefall/Projects/WhaleOS/kernel/lib/printf.c:134
            cnt++, fmt++;
    80000b90:	fec42783          	lw	a5,-20(s0)
    80000b94:	2785                	addiw	a5,a5,1
    80000b96:	fef42623          	sw	a5,-20(s0)
    80000b9a:	f9843783          	ld	a5,-104(s0)
    80000b9e:	0785                	addi	a5,a5,1
    80000ba0:	f8f43c23          	sd	a5,-104(s0)
/home/whalefall/Projects/WhaleOS/kernel/lib/printf.c:135
            field_width = va_arg(ap, int);
    80000ba4:	f9043783          	ld	a5,-112(s0)
    80000ba8:	00878713          	addi	a4,a5,8
    80000bac:	f8e43823          	sd	a4,-112(s0)
    80000bb0:	439c                	lw	a5,0(a5)
    80000bb2:	fcf42c23          	sw	a5,-40(s0)
/home/whalefall/Projects/WhaleOS/kernel/lib/printf.c:136
            if (field_width < 0) {
    80000bb6:	fd842783          	lw	a5,-40(s0)
    80000bba:	2781                	sext.w	a5,a5
    80000bbc:	0007de63          	bgez	a5,80000bd8 <vsnprintf+0x154>
/home/whalefall/Projects/WhaleOS/kernel/lib/printf.c:137
                field_width = -field_width;
    80000bc0:	fd842783          	lw	a5,-40(s0)
    80000bc4:	40f007bb          	negw	a5,a5
    80000bc8:	fcf42c23          	sw	a5,-40(s0)
/home/whalefall/Projects/WhaleOS/kernel/lib/printf.c:138
                flags |= LEFT;
    80000bcc:	fdc42783          	lw	a5,-36(s0)
    80000bd0:	0207e793          	ori	a5,a5,32
    80000bd4:	fcf42e23          	sw	a5,-36(s0)
/home/whalefall/Projects/WhaleOS/kernel/lib/printf.c:142
            }
        }

        int precision = -1;
    80000bd8:	57fd                	li	a5,-1
    80000bda:	fcf42a23          	sw	a5,-44(s0)
/home/whalefall/Projects/WhaleOS/kernel/lib/printf.c:143
        if (*fmt == '.') {
    80000bde:	f9843783          	ld	a5,-104(s0)
    80000be2:	0007c783          	lbu	a5,0(a5)
    80000be6:	873e                	mv	a4,a5
    80000be8:	02e00793          	li	a5,46
    80000bec:	08f71263          	bne	a4,a5,80000c70 <vsnprintf+0x1ec>
/home/whalefall/Projects/WhaleOS/kernel/lib/printf.c:144
            cnt++, fmt++;
    80000bf0:	fec42783          	lw	a5,-20(s0)
    80000bf4:	2785                	addiw	a5,a5,1
    80000bf6:	fef42623          	sw	a5,-20(s0)
    80000bfa:	f9843783          	ld	a5,-104(s0)
    80000bfe:	0785                	addi	a5,a5,1
    80000c00:	f8f43c23          	sd	a5,-104(s0)
/home/whalefall/Projects/WhaleOS/kernel/lib/printf.c:145
            if (is_digit(*fmt))
    80000c04:	f9843783          	ld	a5,-104(s0)
    80000c08:	0007c783          	lbu	a5,0(a5)
    80000c0c:	873e                	mv	a4,a5
    80000c0e:	02f00793          	li	a5,47
    80000c12:	02e7f463          	bgeu	a5,a4,80000c3a <vsnprintf+0x1b6>
/home/whalefall/Projects/WhaleOS/kernel/lib/printf.c:145 (discriminator 1)
    80000c16:	f9843783          	ld	a5,-104(s0)
    80000c1a:	0007c783          	lbu	a5,0(a5)
    80000c1e:	873e                	mv	a4,a5
    80000c20:	03900793          	li	a5,57
    80000c24:	00e7eb63          	bltu	a5,a4,80000c3a <vsnprintf+0x1b6>
/home/whalefall/Projects/WhaleOS/kernel/lib/printf.c:146
                precision = skip_atoi(&fmt);
    80000c28:	f9840793          	addi	a5,s0,-104
    80000c2c:	853e                	mv	a0,a5
    80000c2e:	a27ff0ef          	jal	80000654 <skip_atoi>
    80000c32:	87aa                	mv	a5,a0
    80000c34:	fcf42a23          	sw	a5,-44(s0)
    80000c38:	a01d                	j	80000c5e <vsnprintf+0x1da>
/home/whalefall/Projects/WhaleOS/kernel/lib/printf.c:147
            else if (*fmt == '*')
    80000c3a:	f9843783          	ld	a5,-104(s0)
    80000c3e:	0007c783          	lbu	a5,0(a5)
    80000c42:	873e                	mv	a4,a5
    80000c44:	02a00793          	li	a5,42
    80000c48:	00f71b63          	bne	a4,a5,80000c5e <vsnprintf+0x1da>
/home/whalefall/Projects/WhaleOS/kernel/lib/printf.c:148
                precision = va_arg(ap, int);
    80000c4c:	f9043783          	ld	a5,-112(s0)
    80000c50:	00878713          	addi	a4,a5,8
    80000c54:	f8e43823          	sd	a4,-112(s0)
    80000c58:	439c                	lw	a5,0(a5)
    80000c5a:	fcf42a23          	sw	a5,-44(s0)
/home/whalefall/Projects/WhaleOS/kernel/lib/printf.c:149
            precision = (precision < 0) ? 0 : precision;
    80000c5e:	fd442783          	lw	a5,-44(s0)
    80000c62:	0007871b          	sext.w	a4,a5
    80000c66:	00075363          	bgez	a4,80000c6c <vsnprintf+0x1e8>
    80000c6a:	4781                	li	a5,0
    80000c6c:	fcf42a23          	sw	a5,-44(s0)
/home/whalefall/Projects/WhaleOS/kernel/lib/printf.c:152
        }

        if (*fmt == 'h' || *fmt == '1' || *fmt == 'L')
    80000c70:	f9843783          	ld	a5,-104(s0)
    80000c74:	0007c783          	lbu	a5,0(a5)
    80000c78:	873e                	mv	a4,a5
    80000c7a:	06800793          	li	a5,104
    80000c7e:	02f70463          	beq	a4,a5,80000ca6 <vsnprintf+0x222>
/home/whalefall/Projects/WhaleOS/kernel/lib/printf.c:152 (discriminator 1)
    80000c82:	f9843783          	ld	a5,-104(s0)
    80000c86:	0007c783          	lbu	a5,0(a5)
    80000c8a:	873e                	mv	a4,a5
    80000c8c:	03100793          	li	a5,49
    80000c90:	00f70b63          	beq	a4,a5,80000ca6 <vsnprintf+0x222>
/home/whalefall/Projects/WhaleOS/kernel/lib/printf.c:152 (discriminator 2)
    80000c94:	f9843783          	ld	a5,-104(s0)
    80000c98:	0007c783          	lbu	a5,0(a5)
    80000c9c:	873e                	mv	a4,a5
    80000c9e:	04c00793          	li	a5,76
    80000ca2:	00f71c63          	bne	a4,a5,80000cba <vsnprintf+0x236>
/home/whalefall/Projects/WhaleOS/kernel/lib/printf.c:153
            cnt++, fmt++;
    80000ca6:	fec42783          	lw	a5,-20(s0)
    80000caa:	2785                	addiw	a5,a5,1
    80000cac:	fef42623          	sw	a5,-20(s0)
    80000cb0:	f9843783          	ld	a5,-104(s0)
    80000cb4:	0785                	addi	a5,a5,1
    80000cb6:	f8f43c23          	sd	a5,-104(s0)
/home/whalefall/Projects/WhaleOS/kernel/lib/printf.c:155
        
        switch (*fmt) {
    80000cba:	f9843783          	ld	a5,-104(s0)
    80000cbe:	0007c783          	lbu	a5,0(a5)
    80000cc2:	2781                	sext.w	a5,a5
    80000cc4:	fa87879b          	addiw	a5,a5,-88
    80000cc8:	86be                	mv	a3,a5
    80000cca:	0006871b          	sext.w	a4,a3
    80000cce:	02000793          	li	a5,32
    80000cd2:	2ae7e963          	bltu	a5,a4,80000f84 <vsnprintf+0x500>
    80000cd6:	02069793          	slli	a5,a3,0x20
    80000cda:	9381                	srli	a5,a5,0x20
    80000cdc:	00279713          	slli	a4,a5,0x2
    80000ce0:	00001797          	auipc	a5,0x1
    80000ce4:	b8878793          	addi	a5,a5,-1144 # 80001868 <__func__.0+0x80>
    80000ce8:	97ba                	add	a5,a5,a4
    80000cea:	439c                	lw	a5,0(a5)
    80000cec:	0007871b          	sext.w	a4,a5
    80000cf0:	00001797          	auipc	a5,0x1
    80000cf4:	b7878793          	addi	a5,a5,-1160 # 80001868 <__func__.0+0x80>
    80000cf8:	97ba                	add	a5,a5,a4
    80000cfa:	8782                	jr	a5
/home/whalefall/Projects/WhaleOS/kernel/lib/printf.c:157
            case 'c':
                fill_left();
    80000cfc:	fdc42783          	lw	a5,-36(s0)
    80000d00:	0207f793          	andi	a5,a5,32
    80000d04:	2781                	sext.w	a5,a5
    80000d06:	e785                	bnez	a5,80000d2e <vsnprintf+0x2aa>
    80000d08:	a819                	j	80000d1e <vsnprintf+0x29a>
/home/whalefall/Projects/WhaleOS/kernel/lib/printf.c:157 (discriminator 2)
    80000d0a:	fe043783          	ld	a5,-32(s0)
    80000d0e:	00178713          	addi	a4,a5,1
    80000d12:	fee43023          	sd	a4,-32(s0)
    80000d16:	02000713          	li	a4,32
    80000d1a:	00e78023          	sb	a4,0(a5)
/home/whalefall/Projects/WhaleOS/kernel/lib/printf.c:157 (discriminator 1)
    80000d1e:	fd842783          	lw	a5,-40(s0)
    80000d22:	fff7871b          	addiw	a4,a5,-1
    80000d26:	fce42c23          	sw	a4,-40(s0)
    80000d2a:	fef040e3          	bgtz	a5,80000d0a <vsnprintf+0x286>
/home/whalefall/Projects/WhaleOS/kernel/lib/printf.c:158
                *str++ = (unsigned char) va_arg(ap, int);
    80000d2e:	f9043783          	ld	a5,-112(s0)
    80000d32:	00878713          	addi	a4,a5,8
    80000d36:	f8e43823          	sd	a4,-112(s0)
    80000d3a:	4394                	lw	a3,0(a5)
/home/whalefall/Projects/WhaleOS/kernel/lib/printf.c:158 (discriminator 1)
    80000d3c:	fe043783          	ld	a5,-32(s0)
    80000d40:	00178713          	addi	a4,a5,1
    80000d44:	fee43023          	sd	a4,-32(s0)
    80000d48:	0ff6f713          	zext.b	a4,a3
    80000d4c:	00e78023          	sb	a4,0(a5)
/home/whalefall/Projects/WhaleOS/kernel/lib/printf.c:159
                fill_right();
    80000d50:	a819                	j	80000d66 <vsnprintf+0x2e2>
/home/whalefall/Projects/WhaleOS/kernel/lib/printf.c:159 (discriminator 2)
    80000d52:	fe043783          	ld	a5,-32(s0)
    80000d56:	00178713          	addi	a4,a5,1
    80000d5a:	fee43023          	sd	a4,-32(s0)
    80000d5e:	02000713          	li	a4,32
    80000d62:	00e78023          	sb	a4,0(a5)
/home/whalefall/Projects/WhaleOS/kernel/lib/printf.c:159 (discriminator 1)
    80000d66:	fd842783          	lw	a5,-40(s0)
    80000d6a:	fff7871b          	addiw	a4,a5,-1
    80000d6e:	fce42c23          	sw	a4,-40(s0)
    80000d72:	fef040e3          	bgtz	a5,80000d52 <vsnprintf+0x2ce>
/home/whalefall/Projects/WhaleOS/kernel/lib/printf.c:160
                break;
    80000d76:	a4bd                	j	80000fe4 <vsnprintf+0x560>
/home/whalefall/Projects/WhaleOS/kernel/lib/printf.c:163

            case 's':
                char* s = va_arg(ap, char*);
    80000d78:	f9043783          	ld	a5,-112(s0)
    80000d7c:	00878713          	addi	a4,a5,8
    80000d80:	f8e43823          	sd	a4,-112(s0)
    80000d84:	639c                	ld	a5,0(a5)
    80000d86:	fcf43423          	sd	a5,-56(s0)
/home/whalefall/Projects/WhaleOS/kernel/lib/printf.c:164
                s = (s) ? s : "(null)";
    80000d8a:	fc843783          	ld	a5,-56(s0)
    80000d8e:	c781                	beqz	a5,80000d96 <vsnprintf+0x312>
/home/whalefall/Projects/WhaleOS/kernel/lib/printf.c:164 (discriminator 1)
    80000d90:	fc843783          	ld	a5,-56(s0)
    80000d94:	a029                	j	80000d9e <vsnprintf+0x31a>
/home/whalefall/Projects/WhaleOS/kernel/lib/printf.c:164 (discriminator 2)
    80000d96:	00001797          	auipc	a5,0x1
    80000d9a:	aca78793          	addi	a5,a5,-1334 # 80001860 <__func__.0+0x78>
/home/whalefall/Projects/WhaleOS/kernel/lib/printf.c:164 (discriminator 4)
    80000d9e:	fcf43423          	sd	a5,-56(s0)
/home/whalefall/Projects/WhaleOS/kernel/lib/printf.c:165
                int len = strlen(s);
    80000da2:	fc843503          	ld	a0,-56(s0)
    80000da6:	352000ef          	jal	800010f8 <strlen>
    80000daa:	87aa                	mv	a5,a0
/home/whalefall/Projects/WhaleOS/kernel/lib/printf.c:165 (discriminator 1)
    80000dac:	fcf42023          	sw	a5,-64(s0)
/home/whalefall/Projects/WhaleOS/kernel/lib/printf.c:166
                fill_left();
    80000db0:	fdc42783          	lw	a5,-36(s0)
    80000db4:	0207f793          	andi	a5,a5,32
    80000db8:	2781                	sext.w	a5,a5
    80000dba:	e785                	bnez	a5,80000de2 <vsnprintf+0x35e>
    80000dbc:	a819                	j	80000dd2 <vsnprintf+0x34e>
/home/whalefall/Projects/WhaleOS/kernel/lib/printf.c:166 (discriminator 2)
    80000dbe:	fe043783          	ld	a5,-32(s0)
    80000dc2:	00178713          	addi	a4,a5,1
    80000dc6:	fee43023          	sd	a4,-32(s0)
    80000dca:	02000713          	li	a4,32
    80000dce:	00e78023          	sb	a4,0(a5)
/home/whalefall/Projects/WhaleOS/kernel/lib/printf.c:166 (discriminator 1)
    80000dd2:	fd842783          	lw	a5,-40(s0)
    80000dd6:	fff7871b          	addiw	a4,a5,-1
    80000dda:	fce42c23          	sw	a4,-40(s0)
    80000dde:	fef040e3          	bgtz	a5,80000dbe <vsnprintf+0x33a>
/home/whalefall/Projects/WhaleOS/kernel/lib/printf.c:167
                for (int i = 0; i < len; i++)
    80000de2:	fc042223          	sw	zero,-60(s0)
    80000de6:	a035                	j	80000e12 <vsnprintf+0x38e>
/home/whalefall/Projects/WhaleOS/kernel/lib/printf.c:168
                    *str++ = *s++;
    80000de8:	fc843703          	ld	a4,-56(s0)
    80000dec:	00170793          	addi	a5,a4,1
    80000df0:	fcf43423          	sd	a5,-56(s0)
    80000df4:	fe043783          	ld	a5,-32(s0)
    80000df8:	00178693          	addi	a3,a5,1
    80000dfc:	fed43023          	sd	a3,-32(s0)
    80000e00:	00074703          	lbu	a4,0(a4)
    80000e04:	00e78023          	sb	a4,0(a5)
/home/whalefall/Projects/WhaleOS/kernel/lib/printf.c:167 (discriminator 3)
                for (int i = 0; i < len; i++)
    80000e08:	fc442783          	lw	a5,-60(s0)
    80000e0c:	2785                	addiw	a5,a5,1
    80000e0e:	fcf42223          	sw	a5,-60(s0)
/home/whalefall/Projects/WhaleOS/kernel/lib/printf.c:167 (discriminator 1)
    80000e12:	fc442783          	lw	a5,-60(s0)
    80000e16:	873e                	mv	a4,a5
    80000e18:	fc042783          	lw	a5,-64(s0)
    80000e1c:	2701                	sext.w	a4,a4
    80000e1e:	2781                	sext.w	a5,a5
    80000e20:	fcf744e3          	blt	a4,a5,80000de8 <vsnprintf+0x364>
/home/whalefall/Projects/WhaleOS/kernel/lib/printf.c:169
                fill_right();
    80000e24:	a819                	j	80000e3a <vsnprintf+0x3b6>
/home/whalefall/Projects/WhaleOS/kernel/lib/printf.c:169 (discriminator 2)
    80000e26:	fe043783          	ld	a5,-32(s0)
    80000e2a:	00178713          	addi	a4,a5,1
    80000e2e:	fee43023          	sd	a4,-32(s0)
    80000e32:	02000713          	li	a4,32
    80000e36:	00e78023          	sb	a4,0(a5)
/home/whalefall/Projects/WhaleOS/kernel/lib/printf.c:169 (discriminator 1)
    80000e3a:	fd842783          	lw	a5,-40(s0)
    80000e3e:	fff7871b          	addiw	a4,a5,-1
    80000e42:	fce42c23          	sw	a4,-40(s0)
    80000e46:	fef040e3          	bgtz	a5,80000e26 <vsnprintf+0x3a2>
/home/whalefall/Projects/WhaleOS/kernel/lib/printf.c:170
                break;
    80000e4a:	aa69                	j	80000fe4 <vsnprintf+0x560>
/home/whalefall/Projects/WhaleOS/kernel/lib/printf.c:173

            case 'o': 
                flags |= OCT;
    80000e4c:	fdc42783          	lw	a5,-36(s0)
    80000e50:	0087e793          	ori	a5,a5,8
    80000e54:	fcf42e23          	sw	a5,-36(s0)
/home/whalefall/Projects/WhaleOS/kernel/lib/printf.c:174
                str = number(str, va_arg(ap, unsigned long), field_width, precision, flags);
    80000e58:	f9043783          	ld	a5,-112(s0)
    80000e5c:	00878713          	addi	a4,a5,8
    80000e60:	f8e43823          	sd	a4,-112(s0)
    80000e64:	639c                	ld	a5,0(a5)
/home/whalefall/Projects/WhaleOS/kernel/lib/printf.c:174 (discriminator 1)
    80000e66:	2781                	sext.w	a5,a5
    80000e68:	fdc42703          	lw	a4,-36(s0)
    80000e6c:	fd442683          	lw	a3,-44(s0)
    80000e70:	fd842603          	lw	a2,-40(s0)
    80000e74:	85be                	mv	a1,a5
    80000e76:	fe043503          	ld	a0,-32(s0)
    80000e7a:	8a7ff0ef          	jal	80000720 <number>
    80000e7e:	fea43023          	sd	a0,-32(s0)
/home/whalefall/Projects/WhaleOS/kernel/lib/printf.c:175
                break;
    80000e82:	a28d                	j	80000fe4 <vsnprintf+0x560>
/home/whalefall/Projects/WhaleOS/kernel/lib/printf.c:178

            case 'p': 
                if (field_width == -1) {
    80000e84:	fd842783          	lw	a5,-40(s0)
    80000e88:	0007871b          	sext.w	a4,a5
    80000e8c:	57fd                	li	a5,-1
    80000e8e:	00f71b63          	bne	a4,a5,80000ea4 <vsnprintf+0x420>
/home/whalefall/Projects/WhaleOS/kernel/lib/printf.c:179
                    field_width = 8;
    80000e92:	47a1                	li	a5,8
    80000e94:	fcf42c23          	sw	a5,-40(s0)
/home/whalefall/Projects/WhaleOS/kernel/lib/printf.c:180
                    flags |= ZEROPAD;
    80000e98:	fdc42783          	lw	a5,-36(s0)
    80000e9c:	0017e793          	ori	a5,a5,1
    80000ea0:	fcf42e23          	sw	a5,-36(s0)
/home/whalefall/Projects/WhaleOS/kernel/lib/printf.c:182
                }
                flags |= HEX;
    80000ea4:	fdc42783          	lw	a5,-36(s0)
    80000ea8:	0107e793          	ori	a5,a5,16
    80000eac:	fcf42e23          	sw	a5,-36(s0)
/home/whalefall/Projects/WhaleOS/kernel/lib/printf.c:183
                str = number(str, va_arg(ap, unsigned long), field_width, precision, flags);
    80000eb0:	f9043783          	ld	a5,-112(s0)
    80000eb4:	00878713          	addi	a4,a5,8
    80000eb8:	f8e43823          	sd	a4,-112(s0)
    80000ebc:	639c                	ld	a5,0(a5)
/home/whalefall/Projects/WhaleOS/kernel/lib/printf.c:183 (discriminator 1)
    80000ebe:	2781                	sext.w	a5,a5
    80000ec0:	fdc42703          	lw	a4,-36(s0)
    80000ec4:	fd442683          	lw	a3,-44(s0)
    80000ec8:	fd842603          	lw	a2,-40(s0)
    80000ecc:	85be                	mv	a1,a5
    80000ece:	fe043503          	ld	a0,-32(s0)
    80000ed2:	84fff0ef          	jal	80000720 <number>
    80000ed6:	fea43023          	sd	a0,-32(s0)
/home/whalefall/Projects/WhaleOS/kernel/lib/printf.c:184
                break;
    80000eda:	a229                	j	80000fe4 <vsnprintf+0x560>
/home/whalefall/Projects/WhaleOS/kernel/lib/printf.c:187

            case 'x': 
                flags |= SMALL;
    80000edc:	fdc42783          	lw	a5,-36(s0)
    80000ee0:	0407e793          	ori	a5,a5,64
    80000ee4:	fcf42e23          	sw	a5,-36(s0)
/home/whalefall/Projects/WhaleOS/kernel/lib/printf.c:189
            case 'X': 
                flags |= HEX;
    80000ee8:	fdc42783          	lw	a5,-36(s0)
    80000eec:	0107e793          	ori	a5,a5,16
    80000ef0:	fcf42e23          	sw	a5,-36(s0)
/home/whalefall/Projects/WhaleOS/kernel/lib/printf.c:190
                str = number(str, va_arg(ap, unsigned long), field_width, precision, flags);
    80000ef4:	f9043783          	ld	a5,-112(s0)
    80000ef8:	00878713          	addi	a4,a5,8
    80000efc:	f8e43823          	sd	a4,-112(s0)
    80000f00:	639c                	ld	a5,0(a5)
/home/whalefall/Projects/WhaleOS/kernel/lib/printf.c:190 (discriminator 1)
    80000f02:	2781                	sext.w	a5,a5
    80000f04:	fdc42703          	lw	a4,-36(s0)
    80000f08:	fd442683          	lw	a3,-44(s0)
    80000f0c:	fd842603          	lw	a2,-40(s0)
    80000f10:	85be                	mv	a1,a5
    80000f12:	fe043503          	ld	a0,-32(s0)
    80000f16:	80bff0ef          	jal	80000720 <number>
    80000f1a:	fea43023          	sd	a0,-32(s0)
/home/whalefall/Projects/WhaleOS/kernel/lib/printf.c:191
                break;
    80000f1e:	a0d9                	j	80000fe4 <vsnprintf+0x560>
/home/whalefall/Projects/WhaleOS/kernel/lib/printf.c:194

            case 'd':
                flags |= SIGN;
    80000f20:	fdc42783          	lw	a5,-36(s0)
    80000f24:	0047e793          	ori	a5,a5,4
    80000f28:	fcf42e23          	sw	a5,-36(s0)
/home/whalefall/Projects/WhaleOS/kernel/lib/printf.c:196
            case 'u':
                str = number(str, va_arg(ap, unsigned long), field_width, precision, flags);
    80000f2c:	f9043783          	ld	a5,-112(s0)
    80000f30:	00878713          	addi	a4,a5,8
    80000f34:	f8e43823          	sd	a4,-112(s0)
    80000f38:	639c                	ld	a5,0(a5)
/home/whalefall/Projects/WhaleOS/kernel/lib/printf.c:196 (discriminator 1)
    80000f3a:	2781                	sext.w	a5,a5
    80000f3c:	fdc42703          	lw	a4,-36(s0)
    80000f40:	fd442683          	lw	a3,-44(s0)
    80000f44:	fd842603          	lw	a2,-40(s0)
    80000f48:	85be                	mv	a1,a5
    80000f4a:	fe043503          	ld	a0,-32(s0)
    80000f4e:	fd2ff0ef          	jal	80000720 <number>
    80000f52:	fea43023          	sd	a0,-32(s0)
/home/whalefall/Projects/WhaleOS/kernel/lib/printf.c:197
                break;
    80000f56:	a079                	j	80000fe4 <vsnprintf+0x560>
/home/whalefall/Projects/WhaleOS/kernel/lib/printf.c:200

            case 'n': 
                char* ip = (char *) va_arg(ap, int *);
    80000f58:	f9043783          	ld	a5,-112(s0)
    80000f5c:	00878713          	addi	a4,a5,8
    80000f60:	f8e43823          	sd	a4,-112(s0)
    80000f64:	639c                	ld	a5,0(a5)
    80000f66:	faf43c23          	sd	a5,-72(s0)
/home/whalefall/Projects/WhaleOS/kernel/lib/printf.c:201
                *ip = (str - out);
    80000f6a:	fe043703          	ld	a4,-32(s0)
    80000f6e:	fa843783          	ld	a5,-88(s0)
    80000f72:	40f707b3          	sub	a5,a4,a5
    80000f76:	0ff7f713          	zext.b	a4,a5
    80000f7a:	fb843783          	ld	a5,-72(s0)
    80000f7e:	00e78023          	sb	a4,0(a5)
/home/whalefall/Projects/WhaleOS/kernel/lib/printf.c:202
                break;
    80000f82:	a08d                	j	80000fe4 <vsnprintf+0x560>
/home/whalefall/Projects/WhaleOS/kernel/lib/printf.c:205

            default: 
                if (*fmt != '%')
    80000f84:	f9843783          	ld	a5,-104(s0)
    80000f88:	0007c783          	lbu	a5,0(a5)
    80000f8c:	873e                	mv	a4,a5
    80000f8e:	02500793          	li	a5,37
    80000f92:	00f70c63          	beq	a4,a5,80000faa <vsnprintf+0x526>
/home/whalefall/Projects/WhaleOS/kernel/lib/printf.c:206
                    *str++ = '%';
    80000f96:	fe043783          	ld	a5,-32(s0)
    80000f9a:	00178713          	addi	a4,a5,1
    80000f9e:	fee43023          	sd	a4,-32(s0)
    80000fa2:	02500713          	li	a4,37
    80000fa6:	00e78023          	sb	a4,0(a5)
/home/whalefall/Projects/WhaleOS/kernel/lib/printf.c:207
                if (*fmt)
    80000faa:	f9843783          	ld	a5,-104(s0)
    80000fae:	0007c783          	lbu	a5,0(a5)
    80000fb2:	cf91                	beqz	a5,80000fce <vsnprintf+0x54a>
/home/whalefall/Projects/WhaleOS/kernel/lib/printf.c:208
                    *str++ = *fmt;
    80000fb4:	f9843703          	ld	a4,-104(s0)
    80000fb8:	fe043783          	ld	a5,-32(s0)
    80000fbc:	00178693          	addi	a3,a5,1
    80000fc0:	fed43023          	sd	a3,-32(s0)
    80000fc4:	00074703          	lbu	a4,0(a4)
    80000fc8:	00e78023          	sb	a4,0(a5)
/home/whalefall/Projects/WhaleOS/kernel/lib/printf.c:211
                else 
                    cnt--, fmt--;
                break;
    80000fcc:	a819                	j	80000fe2 <vsnprintf+0x55e>
/home/whalefall/Projects/WhaleOS/kernel/lib/printf.c:210
                    cnt--, fmt--;
    80000fce:	fec42783          	lw	a5,-20(s0)
    80000fd2:	37fd                	addiw	a5,a5,-1
    80000fd4:	fef42623          	sw	a5,-20(s0)
    80000fd8:	f9843783          	ld	a5,-104(s0)
    80000fdc:	17fd                	addi	a5,a5,-1
    80000fde:	f8f43c23          	sd	a5,-104(s0)
/home/whalefall/Projects/WhaleOS/kernel/lib/printf.c:211
                break;
    80000fe2:	0001                	nop
/home/whalefall/Projects/WhaleOS/kernel/lib/printf.c:114 (discriminator 2)
    for (str = out; *fmt && cnt < n; cnt++, fmt++) 
    80000fe4:	fec42783          	lw	a5,-20(s0)
    80000fe8:	2785                	addiw	a5,a5,1
    80000fea:	fef42623          	sw	a5,-20(s0)
    80000fee:	f9843783          	ld	a5,-104(s0)
    80000ff2:	0785                	addi	a5,a5,1
    80000ff4:	f8f43c23          	sd	a5,-104(s0)
/home/whalefall/Projects/WhaleOS/kernel/lib/printf.c:114 (discriminator 1)
    80000ff8:	f9843783          	ld	a5,-104(s0)
    80000ffc:	0007c783          	lbu	a5,0(a5)
    80001000:	c799                	beqz	a5,8000100e <vsnprintf+0x58a>
/home/whalefall/Projects/WhaleOS/kernel/lib/printf.c:114 (discriminator 3)
    80001002:	fec42783          	lw	a5,-20(s0)
    80001006:	fa043703          	ld	a4,-96(s0)
    8000100a:	aae7e0e3          	bltu	a5,a4,80000aaa <vsnprintf+0x26>
/home/whalefall/Projects/WhaleOS/kernel/lib/printf.c:214
        }
    }
    *str = '\0';
    8000100e:	fe043783          	ld	a5,-32(s0)
    80001012:	00078023          	sb	zero,0(a5)
/home/whalefall/Projects/WhaleOS/kernel/lib/printf.c:215
    return str - out;
    80001016:	fe043703          	ld	a4,-32(s0)
    8000101a:	fa843783          	ld	a5,-88(s0)
    8000101e:	40f707b3          	sub	a5,a4,a5
    80001022:	2781                	sext.w	a5,a5
/home/whalefall/Projects/WhaleOS/kernel/lib/printf.c:216
}
    80001024:	853e                	mv	a0,a5
    80001026:	70a6                	ld	ra,104(sp)
    80001028:	7406                	ld	s0,96(sp)
    8000102a:	6165                	addi	sp,sp,112
    8000102c:	8082                	ret

000000008000102e <printf>:
printf():
/home/whalefall/Projects/WhaleOS/kernel/lib/printf.c:246
//     return i;
// }

int
printf(const char* fmt, ...)
{
    8000102e:	b9010113          	addi	sp,sp,-1136
    80001032:	42113423          	sd	ra,1064(sp)
    80001036:	42813023          	sd	s0,1056(sp)
    8000103a:	43010413          	addi	s0,sp,1072
    8000103e:	bca43c23          	sd	a0,-1064(s0)
    80001042:	e40c                	sd	a1,8(s0)
    80001044:	e810                	sd	a2,16(s0)
    80001046:	ec14                	sd	a3,24(s0)
    80001048:	f018                	sd	a4,32(s0)
    8000104a:	f41c                	sd	a5,40(s0)
    8000104c:	03043823          	sd	a6,48(s0)
    80001050:	03143c23          	sd	a7,56(s0)
/home/whalefall/Projects/WhaleOS/kernel/lib/printf.c:250
    int i;
    char buf[BUFMAX];
    va_list args;
    va_start(args, fmt);
    80001054:	04040793          	addi	a5,s0,64
    80001058:	bcf43823          	sd	a5,-1072(s0)
    8000105c:	bd043783          	ld	a5,-1072(s0)
    80001060:	fc878793          	addi	a5,a5,-56
    80001064:	bef43023          	sd	a5,-1056(s0)
/home/whalefall/Projects/WhaleOS/kernel/lib/printf.c:251
    write(buf, i = vsnprintf(buf, BUFMAX, fmt, args));
    80001068:	be043703          	ld	a4,-1056(s0)
    8000106c:	be840793          	addi	a5,s0,-1048
    80001070:	86ba                	mv	a3,a4
    80001072:	bd843603          	ld	a2,-1064(s0)
    80001076:	40000593          	li	a1,1024
    8000107a:	853e                	mv	a0,a5
    8000107c:	a09ff0ef          	jal	80000a84 <vsnprintf>
    80001080:	87aa                	mv	a5,a0
    80001082:	fef42623          	sw	a5,-20(s0)
/home/whalefall/Projects/WhaleOS/kernel/lib/printf.c:251 (discriminator 1)
    80001086:	fec42703          	lw	a4,-20(s0)
    8000108a:	be840793          	addi	a5,s0,-1048
    8000108e:	85ba                	mv	a1,a4
    80001090:	853e                	mv	a0,a5
    80001092:	e42ff0ef          	jal	800006d4 <write>
/home/whalefall/Projects/WhaleOS/kernel/lib/printf.c:253
    va_end(args);
    return i;
    80001096:	fec42783          	lw	a5,-20(s0)
/home/whalefall/Projects/WhaleOS/kernel/lib/printf.c:254
}
    8000109a:	853e                	mv	a0,a5
    8000109c:	42813083          	ld	ra,1064(sp)
    800010a0:	42013403          	ld	s0,1056(sp)
    800010a4:	47010113          	addi	sp,sp,1136
    800010a8:	8082                	ret

00000000800010aa <puts>:
puts():
/home/whalefall/Projects/WhaleOS/kernel/lib/printf.c:258

int 
puts(char* buf)
{
    800010aa:	7179                	addi	sp,sp,-48
    800010ac:	f406                	sd	ra,40(sp)
    800010ae:	f022                	sd	s0,32(sp)
    800010b0:	1800                	addi	s0,sp,48
    800010b2:	fca43c23          	sd	a0,-40(s0)
/home/whalefall/Projects/WhaleOS/kernel/lib/printf.c:260
    int i;
    for (i = 0; buf[i] != '\0'; i++)
    800010b6:	fe042623          	sw	zero,-20(s0)
    800010ba:	a005                	j	800010da <puts+0x30>
/home/whalefall/Projects/WhaleOS/kernel/lib/printf.c:261
        uart_putc(buf[i]);
    800010bc:	fec42783          	lw	a5,-20(s0)
    800010c0:	fd843703          	ld	a4,-40(s0)
    800010c4:	97ba                	add	a5,a5,a4
    800010c6:	0007c783          	lbu	a5,0(a5)
    800010ca:	853e                	mv	a0,a5
    800010cc:	fe1fe0ef          	jal	800000ac <uart_putc>
/home/whalefall/Projects/WhaleOS/kernel/lib/printf.c:260 (discriminator 3)
    for (i = 0; buf[i] != '\0'; i++)
    800010d0:	fec42783          	lw	a5,-20(s0)
    800010d4:	2785                	addiw	a5,a5,1
    800010d6:	fef42623          	sw	a5,-20(s0)
/home/whalefall/Projects/WhaleOS/kernel/lib/printf.c:260 (discriminator 1)
    800010da:	fec42783          	lw	a5,-20(s0)
    800010de:	fd843703          	ld	a4,-40(s0)
    800010e2:	97ba                	add	a5,a5,a4
    800010e4:	0007c783          	lbu	a5,0(a5)
    800010e8:	fbf1                	bnez	a5,800010bc <puts+0x12>
/home/whalefall/Projects/WhaleOS/kernel/lib/printf.c:262
    return i;
    800010ea:	fec42783          	lw	a5,-20(s0)
/home/whalefall/Projects/WhaleOS/kernel/lib/printf.c:263
}
    800010ee:	853e                	mv	a0,a5
    800010f0:	70a2                	ld	ra,40(sp)
    800010f2:	7402                	ld	s0,32(sp)
    800010f4:	6145                	addi	sp,sp,48
    800010f6:	8082                	ret

00000000800010f8 <strlen>:
strlen():
/home/whalefall/Projects/WhaleOS/kernel/lib/string.c:5
#include <stddef.h>

size_t 
strlen(const char *s)
{
    800010f8:	7179                	addi	sp,sp,-48
    800010fa:	f406                	sd	ra,40(sp)
    800010fc:	f022                	sd	s0,32(sp)
    800010fe:	1800                	addi	s0,sp,48
    80001100:	fca43c23          	sd	a0,-40(s0)
/home/whalefall/Projects/WhaleOS/kernel/lib/string.c:7
    int i;
    for (i = 0; s[i] != '\0'; i++)
    80001104:	fe042623          	sw	zero,-20(s0)
    80001108:	a031                	j	80001114 <strlen+0x1c>
/home/whalefall/Projects/WhaleOS/kernel/lib/string.c:7 (discriminator 3)
    8000110a:	fec42783          	lw	a5,-20(s0)
    8000110e:	2785                	addiw	a5,a5,1
    80001110:	fef42623          	sw	a5,-20(s0)
/home/whalefall/Projects/WhaleOS/kernel/lib/string.c:7 (discriminator 1)
    80001114:	fec42783          	lw	a5,-20(s0)
    80001118:	fd843703          	ld	a4,-40(s0)
    8000111c:	97ba                	add	a5,a5,a4
    8000111e:	0007c783          	lbu	a5,0(a5)
    80001122:	f7e5                	bnez	a5,8000110a <strlen+0x12>
/home/whalefall/Projects/WhaleOS/kernel/lib/string.c:9
        ;
    return i;
    80001124:	fec42783          	lw	a5,-20(s0)
/home/whalefall/Projects/WhaleOS/kernel/lib/string.c:10
}
    80001128:	853e                	mv	a0,a5
    8000112a:	70a2                	ld	ra,40(sp)
    8000112c:	7402                	ld	s0,32(sp)
    8000112e:	6145                	addi	sp,sp,48
    80001130:	8082                	ret

0000000080001132 <strncpy>:
strncpy():
/home/whalefall/Projects/WhaleOS/kernel/lib/string.c:15


char* 
strncpy(char* dst, const char* src, size_t n)
{
    80001132:	7139                	addi	sp,sp,-64
    80001134:	fc06                	sd	ra,56(sp)
    80001136:	f822                	sd	s0,48(sp)
    80001138:	0080                	addi	s0,sp,64
    8000113a:	fca43c23          	sd	a0,-40(s0)
    8000113e:	fcb43823          	sd	a1,-48(s0)
    80001142:	fcc43423          	sd	a2,-56(s0)
/home/whalefall/Projects/WhaleOS/kernel/lib/string.c:16
    char* origin_dst = dst;
    80001146:	fd843783          	ld	a5,-40(s0)
    8000114a:	fef43423          	sd	a5,-24(s0)
/home/whalefall/Projects/WhaleOS/kernel/lib/string.c:17
    while (n-- > 0 && (*dst++ = *src++) != '\0')
    8000114e:	0001                	nop
/home/whalefall/Projects/WhaleOS/kernel/lib/string.c:17 (discriminator 2)
    80001150:	fc843783          	ld	a5,-56(s0)
    80001154:	fff78713          	addi	a4,a5,-1
    80001158:	fce43423          	sd	a4,-56(s0)
    8000115c:	c785                	beqz	a5,80001184 <strncpy+0x52>
/home/whalefall/Projects/WhaleOS/kernel/lib/string.c:17 (discriminator 1)
    8000115e:	fd043703          	ld	a4,-48(s0)
    80001162:	00170793          	addi	a5,a4,1
    80001166:	fcf43823          	sd	a5,-48(s0)
    8000116a:	fd843783          	ld	a5,-40(s0)
    8000116e:	00178693          	addi	a3,a5,1
    80001172:	fcd43c23          	sd	a3,-40(s0)
    80001176:	00074703          	lbu	a4,0(a4)
    8000117a:	00e78023          	sb	a4,0(a5)
    8000117e:	0007c783          	lbu	a5,0(a5)
    80001182:	f7f9                	bnez	a5,80001150 <strncpy+0x1e>
/home/whalefall/Projects/WhaleOS/kernel/lib/string.c:19
        ;
    *dst++ = '\0';
    80001184:	fd843783          	ld	a5,-40(s0)
    80001188:	00178713          	addi	a4,a5,1
    8000118c:	fce43c23          	sd	a4,-40(s0)
    80001190:	00078023          	sb	zero,0(a5)
/home/whalefall/Projects/WhaleOS/kernel/lib/string.c:20
    return origin_dst;
    80001194:	fe843783          	ld	a5,-24(s0)
/home/whalefall/Projects/WhaleOS/kernel/lib/string.c:21
}
    80001198:	853e                	mv	a0,a5
    8000119a:	70e2                	ld	ra,56(sp)
    8000119c:	7442                	ld	s0,48(sp)
    8000119e:	6121                	addi	sp,sp,64
    800011a0:	8082                	ret

00000000800011a2 <strcpy>:
strcpy():
/home/whalefall/Projects/WhaleOS/kernel/lib/string.c:27


// require len(dst) <= len(src)
char*
strcpy(char* dst, const char* src)
{
    800011a2:	7179                	addi	sp,sp,-48
    800011a4:	f406                	sd	ra,40(sp)
    800011a6:	f022                	sd	s0,32(sp)
    800011a8:	1800                	addi	s0,sp,48
    800011aa:	fca43c23          	sd	a0,-40(s0)
    800011ae:	fcb43823          	sd	a1,-48(s0)
/home/whalefall/Projects/WhaleOS/kernel/lib/string.c:28
    char* origin_dst = dst;
    800011b2:	fd843783          	ld	a5,-40(s0)
    800011b6:	fef43423          	sd	a5,-24(s0)
/home/whalefall/Projects/WhaleOS/kernel/lib/string.c:29
    while (*src)
    800011ba:	a00d                	j	800011dc <strcpy+0x3a>
/home/whalefall/Projects/WhaleOS/kernel/lib/string.c:30
        *dst++ = *src++;
    800011bc:	fd043703          	ld	a4,-48(s0)
    800011c0:	00170793          	addi	a5,a4,1
    800011c4:	fcf43823          	sd	a5,-48(s0)
    800011c8:	fd843783          	ld	a5,-40(s0)
    800011cc:	00178693          	addi	a3,a5,1
    800011d0:	fcd43c23          	sd	a3,-40(s0)
    800011d4:	00074703          	lbu	a4,0(a4)
    800011d8:	00e78023          	sb	a4,0(a5)
/home/whalefall/Projects/WhaleOS/kernel/lib/string.c:29
    while (*src)
    800011dc:	fd043783          	ld	a5,-48(s0)
    800011e0:	0007c783          	lbu	a5,0(a5)
    800011e4:	ffe1                	bnez	a5,800011bc <strcpy+0x1a>
/home/whalefall/Projects/WhaleOS/kernel/lib/string.c:31
    *dst = '\0';
    800011e6:	fd843783          	ld	a5,-40(s0)
    800011ea:	00078023          	sb	zero,0(a5)
/home/whalefall/Projects/WhaleOS/kernel/lib/string.c:32
    return origin_dst;
    800011ee:	fe843783          	ld	a5,-24(s0)
/home/whalefall/Projects/WhaleOS/kernel/lib/string.c:33
}
    800011f2:	853e                	mv	a0,a5
    800011f4:	70a2                	ld	ra,40(sp)
    800011f6:	7402                	ld	s0,32(sp)
    800011f8:	6145                	addi	sp,sp,48
    800011fa:	8082                	ret

00000000800011fc <strncmp>:
strncmp():
/home/whalefall/Projects/WhaleOS/kernel/lib/string.c:38


int
strncmp(const char* s1, const char *s2, size_t n)
{
    800011fc:	7179                	addi	sp,sp,-48
    800011fe:	f406                	sd	ra,40(sp)
    80001200:	f022                	sd	s0,32(sp)
    80001202:	1800                	addi	s0,sp,48
    80001204:	fea43423          	sd	a0,-24(s0)
    80001208:	feb43023          	sd	a1,-32(s0)
    8000120c:	fcc43c23          	sd	a2,-40(s0)
/home/whalefall/Projects/WhaleOS/kernel/lib/string.c:39
    while (n > 0 && *s1 && *s1 == *s2)
    80001210:	a005                	j	80001230 <strncmp+0x34>
/home/whalefall/Projects/WhaleOS/kernel/lib/string.c:40
        n--, s1++, s2++;
    80001212:	fd843783          	ld	a5,-40(s0)
    80001216:	17fd                	addi	a5,a5,-1
    80001218:	fcf43c23          	sd	a5,-40(s0)
    8000121c:	fe843783          	ld	a5,-24(s0)
    80001220:	0785                	addi	a5,a5,1
    80001222:	fef43423          	sd	a5,-24(s0)
    80001226:	fe043783          	ld	a5,-32(s0)
    8000122a:	0785                	addi	a5,a5,1
    8000122c:	fef43023          	sd	a5,-32(s0)
/home/whalefall/Projects/WhaleOS/kernel/lib/string.c:39
    while (n > 0 && *s1 && *s1 == *s2)
    80001230:	fd843783          	ld	a5,-40(s0)
    80001234:	c385                	beqz	a5,80001254 <strncmp+0x58>
/home/whalefall/Projects/WhaleOS/kernel/lib/string.c:39 (discriminator 1)
    80001236:	fe843783          	ld	a5,-24(s0)
    8000123a:	0007c783          	lbu	a5,0(a5)
    8000123e:	cb99                	beqz	a5,80001254 <strncmp+0x58>
/home/whalefall/Projects/WhaleOS/kernel/lib/string.c:39 (discriminator 2)
    80001240:	fe843783          	ld	a5,-24(s0)
    80001244:	0007c703          	lbu	a4,0(a5)
    80001248:	fe043783          	ld	a5,-32(s0)
    8000124c:	0007c783          	lbu	a5,0(a5)
    80001250:	fcf701e3          	beq	a4,a5,80001212 <strncmp+0x16>
/home/whalefall/Projects/WhaleOS/kernel/lib/string.c:41
    if (n == 0)
    80001254:	fd843783          	ld	a5,-40(s0)
    80001258:	e399                	bnez	a5,8000125e <strncmp+0x62>
/home/whalefall/Projects/WhaleOS/kernel/lib/string.c:42
        return 0;
    8000125a:	4781                	li	a5,0
    8000125c:	a839                	j	8000127a <strncmp+0x7e>
/home/whalefall/Projects/WhaleOS/kernel/lib/string.c:43
    return *s1 - *s2;
    8000125e:	fe843783          	ld	a5,-24(s0)
    80001262:	0007c783          	lbu	a5,0(a5)
    80001266:	0007871b          	sext.w	a4,a5
    8000126a:	fe043783          	ld	a5,-32(s0)
    8000126e:	0007c783          	lbu	a5,0(a5)
    80001272:	2781                	sext.w	a5,a5
    80001274:	40f707bb          	subw	a5,a4,a5
    80001278:	2781                	sext.w	a5,a5
/home/whalefall/Projects/WhaleOS/kernel/lib/string.c:44
}
    8000127a:	853e                	mv	a0,a5
    8000127c:	70a2                	ld	ra,40(sp)
    8000127e:	7402                	ld	s0,32(sp)
    80001280:	6145                	addi	sp,sp,48
    80001282:	8082                	ret

0000000080001284 <strcat>:
strcat():
/home/whalefall/Projects/WhaleOS/kernel/lib/string.c:48

char*
strcat(char *dst, const char *src) 
{
    80001284:	7179                	addi	sp,sp,-48
    80001286:	f406                	sd	ra,40(sp)
    80001288:	f022                	sd	s0,32(sp)
    8000128a:	1800                	addi	s0,sp,48
    8000128c:	fca43c23          	sd	a0,-40(s0)
    80001290:	fcb43823          	sd	a1,-48(s0)
/home/whalefall/Projects/WhaleOS/kernel/lib/string.c:49
    int len = strlen(dst), i;
    80001294:	fd843503          	ld	a0,-40(s0)
    80001298:	e61ff0ef          	jal	800010f8 <strlen>
    8000129c:	87aa                	mv	a5,a0
/home/whalefall/Projects/WhaleOS/kernel/lib/string.c:49 (discriminator 1)
    8000129e:	fef42423          	sw	a5,-24(s0)
/home/whalefall/Projects/WhaleOS/kernel/lib/string.c:50
    for (i = 0; src[i]!= '\0'; i++)
    800012a2:	fe042623          	sw	zero,-20(s0)
    800012a6:	a815                	j	800012da <strcat+0x56>
/home/whalefall/Projects/WhaleOS/kernel/lib/string.c:51
        dst[i + len] = src[i];
    800012a8:	fec42783          	lw	a5,-20(s0)
    800012ac:	fd043703          	ld	a4,-48(s0)
    800012b0:	973e                	add	a4,a4,a5
    800012b2:	fec42783          	lw	a5,-20(s0)
    800012b6:	86be                	mv	a3,a5
    800012b8:	fe842783          	lw	a5,-24(s0)
    800012bc:	9fb5                	addw	a5,a5,a3
    800012be:	2781                	sext.w	a5,a5
    800012c0:	86be                	mv	a3,a5
    800012c2:	fd843783          	ld	a5,-40(s0)
    800012c6:	97b6                	add	a5,a5,a3
    800012c8:	00074703          	lbu	a4,0(a4)
    800012cc:	00e78023          	sb	a4,0(a5)
/home/whalefall/Projects/WhaleOS/kernel/lib/string.c:50 (discriminator 3)
    for (i = 0; src[i]!= '\0'; i++)
    800012d0:	fec42783          	lw	a5,-20(s0)
    800012d4:	2785                	addiw	a5,a5,1
    800012d6:	fef42623          	sw	a5,-20(s0)
/home/whalefall/Projects/WhaleOS/kernel/lib/string.c:50 (discriminator 1)
    800012da:	fec42783          	lw	a5,-20(s0)
    800012de:	fd043703          	ld	a4,-48(s0)
    800012e2:	97ba                	add	a5,a5,a4
    800012e4:	0007c783          	lbu	a5,0(a5)
    800012e8:	f3e1                	bnez	a5,800012a8 <strcat+0x24>
/home/whalefall/Projects/WhaleOS/kernel/lib/string.c:53
  
    dst[i + len] = '\0';
    800012ea:	fec42783          	lw	a5,-20(s0)
    800012ee:	873e                	mv	a4,a5
    800012f0:	fe842783          	lw	a5,-24(s0)
    800012f4:	9fb9                	addw	a5,a5,a4
    800012f6:	2781                	sext.w	a5,a5
    800012f8:	873e                	mv	a4,a5
    800012fa:	fd843783          	ld	a5,-40(s0)
    800012fe:	97ba                	add	a5,a5,a4
    80001300:	00078023          	sb	zero,0(a5)
/home/whalefall/Projects/WhaleOS/kernel/lib/string.c:54
    return dst;
    80001304:	fd843783          	ld	a5,-40(s0)
/home/whalefall/Projects/WhaleOS/kernel/lib/string.c:55
}
    80001308:	853e                	mv	a0,a5
    8000130a:	70a2                	ld	ra,40(sp)
    8000130c:	7402                	ld	s0,32(sp)
    8000130e:	6145                	addi	sp,sp,48
    80001310:	8082                	ret

0000000080001312 <strcmp>:
strcmp():
/home/whalefall/Projects/WhaleOS/kernel/lib/string.c:60
  

int 
strcmp(const char *s1, const char *s2) 
{
    80001312:	7179                	addi	sp,sp,-48
    80001314:	f406                	sd	ra,40(sp)
    80001316:	f022                	sd	s0,32(sp)
    80001318:	1800                	addi	s0,sp,48
    8000131a:	fca43c23          	sd	a0,-40(s0)
    8000131e:	fcb43823          	sd	a1,-48(s0)
/home/whalefall/Projects/WhaleOS/kernel/lib/string.c:62
    int i;
    for (i = 0; s1[i] != '\0'; i++)
    80001322:	fe042623          	sw	zero,-20(s0)
    80001326:	a8a1                	j	8000137e <strcmp+0x6c>
/home/whalefall/Projects/WhaleOS/kernel/lib/string.c:63
        if (s1[i] != s2[i])
    80001328:	fec42783          	lw	a5,-20(s0)
    8000132c:	fd843703          	ld	a4,-40(s0)
    80001330:	97ba                	add	a5,a5,a4
    80001332:	0007c683          	lbu	a3,0(a5)
    80001336:	fec42783          	lw	a5,-20(s0)
    8000133a:	fd043703          	ld	a4,-48(s0)
    8000133e:	97ba                	add	a5,a5,a4
    80001340:	0007c783          	lbu	a5,0(a5)
    80001344:	8736                	mv	a4,a3
    80001346:	02f70763          	beq	a4,a5,80001374 <strcmp+0x62>
/home/whalefall/Projects/WhaleOS/kernel/lib/string.c:64
            return s1[i] - s2[i];
    8000134a:	fec42783          	lw	a5,-20(s0)
    8000134e:	fd843703          	ld	a4,-40(s0)
    80001352:	97ba                	add	a5,a5,a4
    80001354:	0007c783          	lbu	a5,0(a5)
    80001358:	0007871b          	sext.w	a4,a5
    8000135c:	fec42783          	lw	a5,-20(s0)
    80001360:	fd043683          	ld	a3,-48(s0)
    80001364:	97b6                	add	a5,a5,a3
    80001366:	0007c783          	lbu	a5,0(a5)
    8000136a:	2781                	sext.w	a5,a5
    8000136c:	40f707bb          	subw	a5,a4,a5
    80001370:	2781                	sext.w	a5,a5
    80001372:	a099                	j	800013b8 <strcmp+0xa6>
/home/whalefall/Projects/WhaleOS/kernel/lib/string.c:62 (discriminator 2)
    for (i = 0; s1[i] != '\0'; i++)
    80001374:	fec42783          	lw	a5,-20(s0)
    80001378:	2785                	addiw	a5,a5,1
    8000137a:	fef42623          	sw	a5,-20(s0)
/home/whalefall/Projects/WhaleOS/kernel/lib/string.c:62 (discriminator 1)
    8000137e:	fec42783          	lw	a5,-20(s0)
    80001382:	fd843703          	ld	a4,-40(s0)
    80001386:	97ba                	add	a5,a5,a4
    80001388:	0007c783          	lbu	a5,0(a5)
    8000138c:	ffd1                	bnez	a5,80001328 <strcmp+0x16>
/home/whalefall/Projects/WhaleOS/kernel/lib/string.c:66
    
    return (s2[i] == '\0') ? 0 : -s2[i];
    8000138e:	fec42783          	lw	a5,-20(s0)
    80001392:	fd043703          	ld	a4,-48(s0)
    80001396:	97ba                	add	a5,a5,a4
    80001398:	0007c783          	lbu	a5,0(a5)
    8000139c:	cf89                	beqz	a5,800013b6 <strcmp+0xa4>
/home/whalefall/Projects/WhaleOS/kernel/lib/string.c:66 (discriminator 1)
    8000139e:	fec42783          	lw	a5,-20(s0)
    800013a2:	fd043703          	ld	a4,-48(s0)
    800013a6:	97ba                	add	a5,a5,a4
    800013a8:	0007c783          	lbu	a5,0(a5)
    800013ac:	2781                	sext.w	a5,a5
    800013ae:	40f007bb          	negw	a5,a5
    800013b2:	2781                	sext.w	a5,a5
/home/whalefall/Projects/WhaleOS/kernel/lib/string.c:66
    800013b4:	a011                	j	800013b8 <strcmp+0xa6>
/home/whalefall/Projects/WhaleOS/kernel/lib/string.c:66 (discriminator 2)
    800013b6:	4781                	li	a5,0
/home/whalefall/Projects/WhaleOS/kernel/lib/string.c:67
}
    800013b8:	853e                	mv	a0,a5
    800013ba:	70a2                	ld	ra,40(sp)
    800013bc:	7402                	ld	s0,32(sp)
    800013be:	6145                	addi	sp,sp,48
    800013c0:	8082                	ret

00000000800013c2 <memset>:
memset():
/home/whalefall/Projects/WhaleOS/kernel/lib/string.c:72


void*
memset(void *dst, int c, size_t n)
{
    800013c2:	7139                	addi	sp,sp,-64
    800013c4:	fc06                	sd	ra,56(sp)
    800013c6:	f822                	sd	s0,48(sp)
    800013c8:	0080                	addi	s0,sp,64
    800013ca:	fca43c23          	sd	a0,-40(s0)
    800013ce:	87ae                	mv	a5,a1
    800013d0:	fcc43423          	sd	a2,-56(s0)
    800013d4:	fcf42a23          	sw	a5,-44(s0)
/home/whalefall/Projects/WhaleOS/kernel/lib/string.c:73
    char *cdst = (char *) dst;
    800013d8:	fd843783          	ld	a5,-40(s0)
    800013dc:	fef43023          	sd	a5,-32(s0)
/home/whalefall/Projects/WhaleOS/kernel/lib/string.c:75
        int i;
    for (i = 0; i < n; i++) {
    800013e0:	fe042623          	sw	zero,-20(s0)
    800013e4:	a00d                	j	80001406 <memset+0x44>
/home/whalefall/Projects/WhaleOS/kernel/lib/string.c:76
        cdst[i] = c;
    800013e6:	fec42783          	lw	a5,-20(s0)
    800013ea:	fe043703          	ld	a4,-32(s0)
    800013ee:	97ba                	add	a5,a5,a4
    800013f0:	fd442703          	lw	a4,-44(s0)
    800013f4:	0ff77713          	zext.b	a4,a4
    800013f8:	00e78023          	sb	a4,0(a5)
/home/whalefall/Projects/WhaleOS/kernel/lib/string.c:75 (discriminator 3)
    for (i = 0; i < n; i++) {
    800013fc:	fec42783          	lw	a5,-20(s0)
    80001400:	2785                	addiw	a5,a5,1
    80001402:	fef42623          	sw	a5,-20(s0)
/home/whalefall/Projects/WhaleOS/kernel/lib/string.c:75 (discriminator 1)
    80001406:	fec42783          	lw	a5,-20(s0)
    8000140a:	fc843703          	ld	a4,-56(s0)
    8000140e:	fce7ece3          	bltu	a5,a4,800013e6 <memset+0x24>
/home/whalefall/Projects/WhaleOS/kernel/lib/string.c:78
    }
    return dst;
    80001412:	fd843783          	ld	a5,-40(s0)
/home/whalefall/Projects/WhaleOS/kernel/lib/string.c:79
}
    80001416:	853e                	mv	a0,a5
    80001418:	70e2                	ld	ra,56(sp)
    8000141a:	7442                	ld	s0,48(sp)
    8000141c:	6121                	addi	sp,sp,64
    8000141e:	8082                	ret

0000000080001420 <memcmp>:
memcmp():
/home/whalefall/Projects/WhaleOS/kernel/lib/string.c:84


int
memcmp(const void *v1, const void *v2, size_t n)
{
    80001420:	7139                	addi	sp,sp,-64
    80001422:	fc06                	sd	ra,56(sp)
    80001424:	f822                	sd	s0,48(sp)
    80001426:	0080                	addi	s0,sp,64
    80001428:	fca43c23          	sd	a0,-40(s0)
    8000142c:	fcb43823          	sd	a1,-48(s0)
    80001430:	fcc43423          	sd	a2,-56(s0)
/home/whalefall/Projects/WhaleOS/kernel/lib/string.c:87
    const char *s1, *s2;

    s1 = v1;
    80001434:	fd843783          	ld	a5,-40(s0)
    80001438:	fef43423          	sd	a5,-24(s0)
/home/whalefall/Projects/WhaleOS/kernel/lib/string.c:88
    s2 = v2;
    8000143c:	fd043783          	ld	a5,-48(s0)
    80001440:	fef43023          	sd	a5,-32(s0)
/home/whalefall/Projects/WhaleOS/kernel/lib/string.c:89
    while(n-- > 0){
    80001444:	a0a1                	j	8000148c <memcmp+0x6c>
/home/whalefall/Projects/WhaleOS/kernel/lib/string.c:90
        if(*s1 != *s2)
    80001446:	fe843783          	ld	a5,-24(s0)
    8000144a:	0007c703          	lbu	a4,0(a5)
    8000144e:	fe043783          	ld	a5,-32(s0)
    80001452:	0007c783          	lbu	a5,0(a5)
    80001456:	02f70163          	beq	a4,a5,80001478 <memcmp+0x58>
/home/whalefall/Projects/WhaleOS/kernel/lib/string.c:91
            return *s1 - *s2;
    8000145a:	fe843783          	ld	a5,-24(s0)
    8000145e:	0007c783          	lbu	a5,0(a5)
    80001462:	0007871b          	sext.w	a4,a5
    80001466:	fe043783          	ld	a5,-32(s0)
    8000146a:	0007c783          	lbu	a5,0(a5)
    8000146e:	2781                	sext.w	a5,a5
    80001470:	40f707bb          	subw	a5,a4,a5
    80001474:	2781                	sext.w	a5,a5
    80001476:	a01d                	j	8000149c <memcmp+0x7c>
/home/whalefall/Projects/WhaleOS/kernel/lib/string.c:92
        s1++, s2++;
    80001478:	fe843783          	ld	a5,-24(s0)
    8000147c:	0785                	addi	a5,a5,1
    8000147e:	fef43423          	sd	a5,-24(s0)
    80001482:	fe043783          	ld	a5,-32(s0)
    80001486:	0785                	addi	a5,a5,1
    80001488:	fef43023          	sd	a5,-32(s0)
/home/whalefall/Projects/WhaleOS/kernel/lib/string.c:89
    while(n-- > 0){
    8000148c:	fc843783          	ld	a5,-56(s0)
    80001490:	fff78713          	addi	a4,a5,-1
    80001494:	fce43423          	sd	a4,-56(s0)
    80001498:	f7dd                	bnez	a5,80001446 <memcmp+0x26>
/home/whalefall/Projects/WhaleOS/kernel/lib/string.c:95
    }

    return 0;
    8000149a:	4781                	li	a5,0
/home/whalefall/Projects/WhaleOS/kernel/lib/string.c:96
}
    8000149c:	853e                	mv	a0,a5
    8000149e:	70e2                	ld	ra,56(sp)
    800014a0:	7442                	ld	s0,48(sp)
    800014a2:	6121                	addi	sp,sp,64
    800014a4:	8082                	ret

00000000800014a6 <memmove>:
memmove():
/home/whalefall/Projects/WhaleOS/kernel/lib/string.c:101


void*
memmove(void *dst, const void *src, size_t n)
{
    800014a6:	7139                	addi	sp,sp,-64
    800014a8:	fc06                	sd	ra,56(sp)
    800014aa:	f822                	sd	s0,48(sp)
    800014ac:	0080                	addi	s0,sp,64
    800014ae:	fca43c23          	sd	a0,-40(s0)
    800014b2:	fcb43823          	sd	a1,-48(s0)
    800014b6:	fcc43423          	sd	a2,-56(s0)
/home/whalefall/Projects/WhaleOS/kernel/lib/string.c:105
    const char *s;
    char *d;

    if(n == 0)
    800014ba:	fc843783          	ld	a5,-56(s0)
    800014be:	e781                	bnez	a5,800014c6 <memmove+0x20>
/home/whalefall/Projects/WhaleOS/kernel/lib/string.c:106
        return dst;
    800014c0:	fd843783          	ld	a5,-40(s0)
    800014c4:	a855                	j	80001578 <memmove+0xd2>
/home/whalefall/Projects/WhaleOS/kernel/lib/string.c:108
  
    s = src;
    800014c6:	fd043783          	ld	a5,-48(s0)
    800014ca:	fef43423          	sd	a5,-24(s0)
/home/whalefall/Projects/WhaleOS/kernel/lib/string.c:109
    d = dst;
    800014ce:	fd843783          	ld	a5,-40(s0)
    800014d2:	fef43023          	sd	a5,-32(s0)
/home/whalefall/Projects/WhaleOS/kernel/lib/string.c:110
    if(s < d && s + n > d){
    800014d6:	fe843703          	ld	a4,-24(s0)
    800014da:	fe043783          	ld	a5,-32(s0)
    800014de:	08f77463          	bgeu	a4,a5,80001566 <memmove+0xc0>
/home/whalefall/Projects/WhaleOS/kernel/lib/string.c:110 (discriminator 1)
    800014e2:	fe843703          	ld	a4,-24(s0)
    800014e6:	fc843783          	ld	a5,-56(s0)
    800014ea:	97ba                	add	a5,a5,a4
    800014ec:	fe043703          	ld	a4,-32(s0)
    800014f0:	06f77b63          	bgeu	a4,a5,80001566 <memmove+0xc0>
/home/whalefall/Projects/WhaleOS/kernel/lib/string.c:111
        s += n;
    800014f4:	fe843703          	ld	a4,-24(s0)
    800014f8:	fc843783          	ld	a5,-56(s0)
    800014fc:	97ba                	add	a5,a5,a4
    800014fe:	fef43423          	sd	a5,-24(s0)
/home/whalefall/Projects/WhaleOS/kernel/lib/string.c:112
        d += n;
    80001502:	fe043703          	ld	a4,-32(s0)
    80001506:	fc843783          	ld	a5,-56(s0)
    8000150a:	97ba                	add	a5,a5,a4
    8000150c:	fef43023          	sd	a5,-32(s0)
/home/whalefall/Projects/WhaleOS/kernel/lib/string.c:113
        while(n-- > 0)
    80001510:	a01d                	j	80001536 <memmove+0x90>
/home/whalefall/Projects/WhaleOS/kernel/lib/string.c:114
            *--d = *--s;
    80001512:	fe843783          	ld	a5,-24(s0)
    80001516:	17fd                	addi	a5,a5,-1
    80001518:	fef43423          	sd	a5,-24(s0)
    8000151c:	fe043783          	ld	a5,-32(s0)
    80001520:	17fd                	addi	a5,a5,-1
    80001522:	fef43023          	sd	a5,-32(s0)
    80001526:	fe843783          	ld	a5,-24(s0)
    8000152a:	0007c703          	lbu	a4,0(a5)
    8000152e:	fe043783          	ld	a5,-32(s0)
    80001532:	00e78023          	sb	a4,0(a5)
/home/whalefall/Projects/WhaleOS/kernel/lib/string.c:113
        while(n-- > 0)
    80001536:	fc843783          	ld	a5,-56(s0)
    8000153a:	fff78713          	addi	a4,a5,-1
    8000153e:	fce43423          	sd	a4,-56(s0)
    80001542:	fbe1                	bnez	a5,80001512 <memmove+0x6c>
/home/whalefall/Projects/WhaleOS/kernel/lib/string.c:110
    if(s < d && s + n > d){
    80001544:	a805                	j	80001574 <memmove+0xce>
/home/whalefall/Projects/WhaleOS/kernel/lib/string.c:117
    } else
        while(n-- > 0)
            *d++ = *s++;
    80001546:	fe843703          	ld	a4,-24(s0)
    8000154a:	00170793          	addi	a5,a4,1
    8000154e:	fef43423          	sd	a5,-24(s0)
    80001552:	fe043783          	ld	a5,-32(s0)
    80001556:	00178693          	addi	a3,a5,1
    8000155a:	fed43023          	sd	a3,-32(s0)
    8000155e:	00074703          	lbu	a4,0(a4)
    80001562:	00e78023          	sb	a4,0(a5)
/home/whalefall/Projects/WhaleOS/kernel/lib/string.c:116
        while(n-- > 0)
    80001566:	fc843783          	ld	a5,-56(s0)
    8000156a:	fff78713          	addi	a4,a5,-1
    8000156e:	fce43423          	sd	a4,-56(s0)
    80001572:	fbf1                	bnez	a5,80001546 <memmove+0xa0>
/home/whalefall/Projects/WhaleOS/kernel/lib/string.c:119

    return dst;
    80001574:	fd843783          	ld	a5,-40(s0)
/home/whalefall/Projects/WhaleOS/kernel/lib/string.c:120
}
    80001578:	853e                	mv	a0,a5
    8000157a:	70e2                	ld	ra,56(sp)
    8000157c:	7442                	ld	s0,48(sp)
    8000157e:	6121                	addi	sp,sp,64
    80001580:	8082                	ret

0000000080001582 <memcpy>:
memcpy():
/home/whalefall/Projects/WhaleOS/kernel/lib/string.c:125


void*
memcpy(void *dst, const void *src, size_t n)
{
    80001582:	7179                	addi	sp,sp,-48
    80001584:	f406                	sd	ra,40(sp)
    80001586:	f022                	sd	s0,32(sp)
    80001588:	1800                	addi	s0,sp,48
    8000158a:	fea43423          	sd	a0,-24(s0)
    8000158e:	feb43023          	sd	a1,-32(s0)
    80001592:	fcc43c23          	sd	a2,-40(s0)
/home/whalefall/Projects/WhaleOS/kernel/lib/string.c:126
    return memmove(dst, src, n);
    80001596:	fd843603          	ld	a2,-40(s0)
    8000159a:	fe043583          	ld	a1,-32(s0)
    8000159e:	fe843503          	ld	a0,-24(s0)
    800015a2:	f05ff0ef          	jal	800014a6 <memmove>
    800015a6:	87aa                	mv	a5,a0
/home/whalefall/Projects/WhaleOS/kernel/lib/string.c:127
}
    800015a8:	853e                	mv	a0,a5
    800015aa:	70a2                	ld	ra,40(sp)
    800015ac:	7402                	ld	s0,32(sp)
    800015ae:	6145                	addi	sp,sp,48
    800015b0:	8082                	ret

Disassembly of section .rodata:

00000000800015b8 <__func__.5-0x1e0>:
    800015b8:	6554                	ld	a3,136(a0)
    800015ba:	70207473          	csrrci	s0,0x702,0
    800015be:	6972                	ld	s2,280(sp)
    800015c0:	746e                	ld	s0,248(sp)
    800015c2:	7020                	ld	s0,96(s0)
    800015c4:	202c                	fld	fa1,64(s0)
    800015c6:	776f6873          	csrrsi	a6,0x776,30
    800015ca:	7420                	ld	s0,104(s0)
    800015cc:	7365                	lui	t1,0xffff9
    800015ce:	5f74                	lw	a3,124(a4)
    800015d0:	7270                	ld	a2,224(a2)
    800015d2:	6e69                	lui	t3,0x1a
    800015d4:	6674                	ld	a3,200(a2)
    800015d6:	6120                	ld	s0,64(a0)
    800015d8:	6464                	ld	s1,200(s0)
    800015da:	3a72                	fld	fs4,312(sp)
    800015dc:	2520                	fld	fs0,72(a0)
    800015de:	0a70                	addi	a2,sp,284
	...
    800015e8:	6c616857          	.insn	4, 0x6c616857
    800015ec:	4665                	li	a2,25
    800015ee:	6c61                	lui	s8,0x18
    800015f0:	006c                	addi	a1,sp,12
    800015f2:	0000                	unimp
    800015f4:	0000                	unimp
    800015f6:	0000                	unimp
    800015f8:	6554                	ld	a3,136(a0)
    800015fa:	70207473          	csrrci	s0,0x702,0
    800015fe:	6972                	ld	s2,280(sp)
    80001600:	746e                	ld	s0,248(sp)
    80001602:	7320                	ld	s0,96(a4)
    80001604:	202c                	fld	fa1,64(s0)
    80001606:	776f6873          	csrrsi	a6,0x776,30
    8000160a:	6d20                	ld	s0,88(a0)
    8000160c:	2079                	.insn	2, 0x2079
    8000160e:	616e                	ld	sp,216(sp)
    80001610:	656d                	lui	a0,0x1b
    80001612:	6120                	ld	s0,64(a0)
    80001614:	646e                	ld	s0,216(sp)
    80001616:	6320                	ld	s0,64(a4)
    80001618:	6168                	ld	a0,192(a0)
    8000161a:	2072                	fld	ft0,280(sp)
    8000161c:	3a276127          	.insn	4, 0x3a276127
    80001620:	2520                	fld	fs0,72(a0)
    80001622:	63252073          	csrs	0x632,a0
    80001626:	000a                	c.slli	zero,0x2
    80001628:	6554                	ld	a3,136(a0)
    8000162a:	70207473          	csrrci	s0,0x702,0
    8000162e:	6972                	ld	s2,280(sp)
    80001630:	746e                	ld	s0,248(sp)
    80001632:	7520                	ld	s0,104(a0)
    80001634:	202c                	fld	fa1,64(s0)
    80001636:	776f6873          	csrrsi	a6,0x776,30
    8000163a:	3120                	fld	fs0,96(a0)
    8000163c:	3431                	addiw	s0,s0,-20
    8000163e:	3135                	addiw	sp,sp,-19
    80001640:	3a34                	fld	fa3,112(a2)
    80001642:	2520                	fld	fs0,72(a0)
    80001644:	0a75                	addi	s4,s4,29
    80001646:	0000                	unimp
    80001648:	6554                	ld	a3,136(a0)
    8000164a:	70207473          	csrrci	s0,0x702,0
    8000164e:	6972                	ld	s2,280(sp)
    80001650:	746e                	ld	s0,248(sp)
    80001652:	6420                	ld	s0,72(s0)
    80001654:	202c                	fld	fa1,64(s0)
    80001656:	776f6873          	csrrsi	a6,0x776,30
    8000165a:	2d20                	fld	fs0,88(a0)
    8000165c:	3131                	addiw	sp,sp,-20
    8000165e:	3534                	fld	fa3,104(a0)
    80001660:	3431                	addiw	s0,s0,-20
    80001662:	203a                	fld	ft0,392(sp)
    80001664:	6425                	lui	s0,0x9
    80001666:	000a                	c.slli	zero,0x2
    80001668:	6554                	ld	a3,136(a0)
    8000166a:	70207473          	csrrci	s0,0x702,0
    8000166e:	6972                	ld	s2,280(sp)
    80001670:	746e                	ld	s0,248(sp)
    80001672:	7820                	ld	s0,112(s0)
    80001674:	202c                	fld	fa1,64(s0)
    80001676:	776f6873          	csrrsi	a6,0x776,30
    8000167a:	3020                	fld	fs0,96(s0)
    8000167c:	3178                	fld	fa4,224(a0)
    8000167e:	3431                	addiw	s0,s0,-20 # 8fec <_start-0x7fff7014>
    80001680:	3135                	addiw	sp,sp,-19
    80001682:	3a61                	addiw	s4,s4,-8
    80001684:	2520                	fld	fs0,72(a0)
    80001686:	61207823          	.insn	4, 0x61207823
    8000168a:	646e                	ld	s0,216(sp)
    8000168c:	7520                	ld	s0,104(a0)
    8000168e:	7070                	ld	a2,224(s0)
    80001690:	7265                	lui	tp,0xffff9
    80001692:	7720                	ld	s0,104(a4)
    80001694:	7469                	lui	s0,0xffffa
    80001696:	6f68                	ld	a0,216(a4)
    80001698:	7475                	lui	s0,0xffffd
    8000169a:	2720                	fld	fs0,72(a4)
    8000169c:	7830                	ld	a2,112(s0)
    8000169e:	25203a27          	fsd	fs2,596(zero) # 254 <_start-0x7ffffdac>
    800016a2:	0a58                	addi	a4,sp,276
    800016a4:	0000                	unimp
    800016a6:	0000                	unimp
    800016a8:	6e72656b          	.insn	4, 0x6e72656b
    800016ac:	6c65                	lui	s8,0x19
    800016ae:	7365742f          	.insn	4, 0x7365742f
    800016b2:	2f74                	fld	fa3,216(a4)
    800016b4:	6574                	ld	a3,200(a0)
    800016b6:	696c7473          	csrrci	s0,0x696,24
    800016ba:	2e62                	fld	ft8,24(sp)
    800016bc:	00000063          	beqz	zero,800016bc <memcpy+0x13a>
    800016c0:	31335b1b          	.insn	4, 0x31335b1b
    800016c4:	5b6d                	li	s6,-5
    800016c6:	7325                	lui	t1,0xfffe9
    800016c8:	253a                	fld	fa0,392(sp)
    800016ca:	2064                	fld	fs1,192(s0)
    800016cc:	7325                	lui	t1,0xfffe9
    800016ce:	205d                	.insn	2, 0x205d
    800016d0:	7341                	lui	t1,0xffff0
    800016d2:	74726573          	csrrsi	a0,0x747,4
    800016d6:	6f69                	lui	t5,0x1a
    800016d8:	206e                	fld	ft0,216(sp)
    800016da:	6166                	ld	sp,88(sp)
    800016dc:	6c69                	lui	s8,0x1a
    800016de:	6465                	lui	s0,0x19
    800016e0:	6d305b1b          	.insn	4, 0x6d305b1b
    800016e4:	000a                	c.slli	zero,0x2
    800016e6:	0000                	unimp
    800016e8:	6574                	ld	a3,200(a0)
    800016ea:	00007473          	csrrci	s0,ustatus,0
    800016ee:	0000                	unimp
    800016f0:	6548                	ld	a0,136(a0)
    800016f2:	6c6c                	ld	a1,216(s0)
    800016f4:	6f57206f          	j	800745e8 <__BSS_END__+0x705e8>
    800016f8:	6c72                	ld	s8,280(sp)
    800016fa:	0064                	addi	s1,sp,12
    800016fc:	0000                	unimp
    800016fe:	0000                	unimp
    80001700:	6548                	ld	a0,136(a0)
    80001702:	6c6c                	ld	a1,216(s0)
    80001704:	0000006f          	j	80001704 <memcpy+0x182>
    80001708:	6548                	ld	a0,136(a0)
    8000170a:	6c6c                	ld	a1,216(s0)
    8000170c:	0000006f          	j	8000170c <memcpy+0x18a>
    80001710:	4141                	li	sp,16
    80001712:	4141                	li	sp,16
    80001714:	4141                	li	sp,16
    80001716:	4141                	li	sp,16
    80001718:	0041                	c.nop	16
    8000171a:	0000                	unimp
    8000171c:	0000                	unimp
    8000171e:	0000                	unimp
    80001720:	4141                	li	sp,16
    80001722:	4242                	lw	tp,16(sp)
    80001724:	4142                	lw	sp,16(sp)
    80001726:	4141                	li	sp,16
    80001728:	0041                	c.nop	16
    8000172a:	0000                	unimp
    8000172c:	0000                	unimp
    8000172e:	0000                	unimp
    80001730:	3231                	addiw	tp,tp,-20 # ffffffffffff8fec <__BSS_END__+0xffffffff7fff4fec>
    80001732:	00353433          	sltu	s0,a0,gp
    80001736:	0000                	unimp
    80001738:	3231                	addiw	tp,tp,-20 # ffffffffffffffec <__BSS_END__+0xffffffff7fffbfec>
    8000173a:	36353433          	.insn	4, 0x36353433
    8000173e:	00393837          	lui	a6,0x393
    80001742:	0000                	unimp
    80001744:	0000                	unimp
    80001746:	0000                	unimp
    80001748:	0100                	addi	s0,sp,128
    8000174a:	0302                	c.slli64	t1
    8000174c:	0504                	addi	s1,sp,640
    8000174e:	0706                	slli	a4,a4,0x1
    80001750:	0908                	addi	a0,sp,144
    80001752:	0000                	unimp
    80001754:	0000                	unimp
    80001756:	0000                	unimp
    80001758:	0100                	addi	s0,sp,128
    8000175a:	0100                	addi	s0,sp,128
    8000175c:	0502                	c.slli64	a0
    8000175e:	0706                	slli	a4,a4,0x1
    80001760:	0908                	addi	a0,sp,144
    80001762:	0000                	unimp
    80001764:	0000                	unimp
    80001766:	0000                	unimp
    80001768:	6261                	lui	tp,0x18
    8000176a:	63626163          	bltu	tp,s6,80001d8c <__func__.0+0x5a4>
    8000176e:	6864                	ld	s1,208(s0)
    80001770:	0069                	c.nop	26
    80001772:	0000                	unimp
    80001774:	0000                	unimp
    80001776:	0000                	unimp
    80001778:	66656463          	bltu	a0,t1,80001de0 <__func__.0+0x5f8>
    8000177c:	6665                	lui	a2,0x19
    8000177e:	00696867          	.insn	4, 0x00696867
    80001782:	0000                	unimp
    80001784:	0000                	unimp
    80001786:	0000                	unimp
    80001788:	6261                	lui	tp,0x18
    8000178a:	66656463          	bltu	a0,t1,80001df2 <__func__.0+0x60a>
    8000178e:	00696867          	.insn	4, 0x00696867
    80001792:	0000                	unimp
    80001794:	0000                	unimp
	...

0000000080001798 <__func__.5>:
    80001798:	6574                	ld	a3,200(a0)
    8000179a:	735f7473          	csrrci	s0,mhpmevent21h,30
    8000179e:	7274                	ld	a3,224(a2)
    800017a0:	00797063          	bgeu	s2,t2,800017a0 <__func__.5+0x8>
    800017a4:	0000                	unimp
	...

00000000800017a8 <__func__.4>:
    800017a8:	6574                	ld	a3,200(a0)
    800017aa:	735f7473          	csrrci	s0,mhpmevent21h,30
    800017ae:	7274                	ld	a3,224(a2)
    800017b0:	636e                	ld	t1,216(sp)
    800017b2:	7970                	ld	a2,240(a0)
    800017b4:	0000                	unimp
	...

00000000800017b8 <__func__.3>:
    800017b8:	6574                	ld	a3,200(a0)
    800017ba:	6d5f7473          	csrrci	s0,0x6d5,30
    800017be:	6d65                	lui	s10,0x19
    800017c0:	00746573          	csrrsi	a0,0x7,8
    800017c4:	0000                	unimp
	...

00000000800017c8 <__func__.2>:
    800017c8:	6574                	ld	a3,200(a0)
    800017ca:	6d5f7473          	csrrci	s0,0x6d5,30
    800017ce:	6d65                	lui	s10,0x19
    800017d0:	00797063          	bgeu	s2,t2,800017d0 <__func__.2+0x8>
    800017d4:	0000                	unimp
	...

00000000800017d8 <__func__.1>:
    800017d8:	6574                	ld	a3,200(a0)
    800017da:	6d5f7473          	csrrci	s0,0x6d5,30
    800017de:	6d65                	lui	s10,0x19
    800017e0:	6f6d                	lui	t5,0x1b
    800017e2:	6576                	ld	a0,344(sp)
    800017e4:	0000                	unimp
	...

00000000800017e8 <__func__.0>:
    800017e8:	6574                	ld	a3,200(a0)
    800017ea:	6d5f7473          	csrrci	s0,0x6d5,30
    800017ee:	6d65                	lui	s10,0x19
    800017f0:	00706d63          	bltu	zero,t2,8000180a <__func__.0+0x22>
    800017f4:	0000                	unimp
    800017f6:	0000                	unimp
    800017f8:	6e49                	lui	t3,0x12
    800017fa:	7469                	lui	s0,0xffffa
    800017fc:	6169                	addi	sp,sp,208
    800017fe:	696c                	ld	a1,208(a0)
    80001800:	657a                	ld	a0,408(sp)
    80001802:	7520                	ld	s0,104(a0)
    80001804:	7261                	lui	tp,0xffff8
    80001806:	3074                	fld	fa3,224(s0)
    80001808:	000a                	c.slli	zero,0x2
    8000180a:	0000                	unimp
    8000180c:	0000                	unimp
    8000180e:	0000                	unimp
    80001810:	3130                	fld	fa2,96(a0)
    80001812:	3332                	fld	ft6,296(sp)
    80001814:	3534                	fld	fa3,104(a0)
    80001816:	3736                	fld	fa4,360(sp)
    80001818:	3938                	fld	fa4,112(a0)
    8000181a:	6261                	lui	tp,0x18
    8000181c:	66656463          	bltu	a0,t1,80001e84 <__func__.0+0x69c>
    80001820:	6a696867          	.insn	4, 0x6a696867
    80001824:	6e6d6c6b          	.insn	4, 0x6e6d6c6b
    80001828:	7271706f          	j	8001974e <__BSS_END__+0x1574e>
    8000182c:	76757473          	csrrci	s0,0x767,10
    80001830:	7a797877          	.insn	4, 0x7a797877
    80001834:	0000                	unimp
    80001836:	0000                	unimp
    80001838:	3130                	fld	fa2,96(a0)
    8000183a:	3332                	fld	ft6,296(sp)
    8000183c:	3534                	fld	fa3,104(a0)
    8000183e:	3736                	fld	fa4,360(sp)
    80001840:	3938                	fld	fa4,112(a0)
    80001842:	4241                	li	tp,16
    80001844:	46454443          	.insn	4, 0x46454443
    80001848:	4a494847          	fmsub.d	fa6,fs2,ft4,fs1,rmm
    8000184c:	4e4d4c4b          	.insn	4, 0x4e4d4c4b
    80001850:	5251504f          	fnmadd.d	ft0,ft2,ft5,fa0,unknown
    80001854:	56555453          	.insn	4, 0x56555453
    80001858:	5a595857          	.insn	4, 0x5a595857
    8000185c:	0000                	unimp
    8000185e:	0000                	unimp
    80001860:	6e28                	ld	a0,88(a2)
    80001862:	6c75                	lui	s8,0x1d
    80001864:	296c                	fld	fa1,208(a0)
    80001866:	0000                	unimp
    80001868:	f680                	sd	s0,40(a3)
    8000186a:	ffff                	.insn	2, 0xffff
    8000186c:	f71c                	sd	a5,40(a4)
    8000186e:	ffff                	.insn	2, 0xffff
    80001870:	f71c                	sd	a5,40(a4)
    80001872:	ffff                	.insn	2, 0xffff
    80001874:	f71c                	sd	a5,40(a4)
    80001876:	ffff                	.insn	2, 0xffff
    80001878:	f71c                	sd	a5,40(a4)
    8000187a:	ffff                	.insn	2, 0xffff
    8000187c:	f71c                	sd	a5,40(a4)
    8000187e:	ffff                	.insn	2, 0xffff
    80001880:	f71c                	sd	a5,40(a4)
    80001882:	ffff                	.insn	2, 0xffff
    80001884:	f71c                	sd	a5,40(a4)
    80001886:	ffff                	.insn	2, 0xffff
    80001888:	f71c                	sd	a5,40(a4)
    8000188a:	ffff                	.insn	2, 0xffff
    8000188c:	f71c                	sd	a5,40(a4)
    8000188e:	ffff                	.insn	2, 0xffff
    80001890:	f71c                	sd	a5,40(a4)
    80001892:	ffff                	.insn	2, 0xffff
    80001894:	f494                	sd	a3,40(s1)
    80001896:	ffff                	.insn	2, 0xffff
    80001898:	f6b8                	sd	a4,104(a3)
    8000189a:	ffff                	.insn	2, 0xffff
    8000189c:	f71c                	sd	a5,40(a4)
    8000189e:	ffff                	.insn	2, 0xffff
    800018a0:	f71c                	sd	a5,40(a4)
    800018a2:	ffff                	.insn	2, 0xffff
    800018a4:	f71c                	sd	a5,40(a4)
    800018a6:	ffff                	.insn	2, 0xffff
    800018a8:	f71c                	sd	a5,40(a4)
    800018aa:	ffff                	.insn	2, 0xffff
    800018ac:	f71c                	sd	a5,40(a4)
    800018ae:	ffff                	.insn	2, 0xffff
    800018b0:	f71c                	sd	a5,40(a4)
    800018b2:	ffff                	.insn	2, 0xffff
    800018b4:	f71c                	sd	a5,40(a4)
    800018b6:	ffff                	.insn	2, 0xffff
    800018b8:	f71c                	sd	a5,40(a4)
    800018ba:	ffff                	.insn	2, 0xffff
    800018bc:	f71c                	sd	a5,40(a4)
    800018be:	ffff                	.insn	2, 0xffff
    800018c0:	f6f0                	sd	a2,232(a3)
    800018c2:	ffff                	.insn	2, 0xffff
    800018c4:	f5e4                	sd	s1,232(a1)
    800018c6:	ffff                	.insn	2, 0xffff
    800018c8:	f61c                	sd	a5,40(a2)
    800018ca:	ffff                	.insn	2, 0xffff
    800018cc:	f71c                	sd	a5,40(a4)
    800018ce:	ffff                	.insn	2, 0xffff
    800018d0:	f71c                	sd	a5,40(a4)
    800018d2:	ffff                	.insn	2, 0xffff
    800018d4:	f510                	sd	a2,40(a0)
    800018d6:	ffff                	.insn	2, 0xffff
    800018d8:	f71c                	sd	a5,40(a4)
    800018da:	ffff                	.insn	2, 0xffff
    800018dc:	f6c4                	sd	s1,168(a3)
    800018de:	ffff                	.insn	2, 0xffff
    800018e0:	f71c                	sd	a5,40(a4)
    800018e2:	ffff                	.insn	2, 0xffff
    800018e4:	f71c                	sd	a5,40(a4)
    800018e6:	ffff                	.insn	2, 0xffff
    800018e8:	f674                	sd	a3,232(a2)
    800018ea:	ffff                	.insn	2, 0xffff

Disassembly of section .sdata:

00000000800028f0 <init_stack_top>:
__SDATA_BEGIN__():
    800028f0:	4000                	lw	s0,0(s0)
    800028f2:	8000                	.insn	2, 0x8000
    800028f4:	0000                	unimp
	...

00000000800028f8 <digits_low>:
/home/whalefall/Projects/WhaleOS/kernel/lib/printf.c:20
static const char* digits_low = "0123456789abcdefghijklmnopqrstuvwxyz";
    800028f8:	1810                	addi	a2,sp,48
    800028fa:	8000                	.insn	2, 0x8000
    800028fc:	0000                	unimp
	...

0000000080002900 <digits_high>:
/home/whalefall/Projects/WhaleOS/kernel/lib/printf.c:21
static const char* digits_high = "0123456789ABCDEFGHIJKLMNOPQRSTUVWXYZ";
    80002900:	1838                	addi	a4,sp,56
    80002902:	8000                	.insn	2, 0x8000
    80002904:	0000                	unimp
	...

Disassembly of section .comment:

0000000000000000 <.comment>:
   0:	3a434347          	fmsub.d	ft6,ft6,ft4,ft7,rmm
   4:	2820                	fld	fs0,80(s0)
   6:	36343067          	.insn	4, 0x36343067
   a:	3639                	addiw	a2,a2,-18 # 18fee <_start-0x7ffe7012>
   c:	6664                	ld	s1,200(a2)
   e:	3930                	fld	fa2,112(a0)
  10:	2936                	fld	fs2,328(sp)
  12:	3120                	fld	fs0,96(a0)
  14:	2e34                	fld	fa3,88(a2)
  16:	2e32                	fld	ft8,264(sp)
  18:	0030                	addi	a2,sp,8

Disassembly of section .riscv.attributes:

0000000000000000 <.riscv.attributes>:
   0:	6941                	lui	s2,0x10
   2:	0000                	unimp
   4:	7200                	ld	s0,32(a2)
   6:	7369                	lui	t1,0xffffa
   8:	01007663          	bgeu	zero,a6,14 <_start-0x7fffffec>
   c:	005f 0000 1004      	.insn	6, 0x10040000005f
  12:	7205                	lui	tp,0xfffe1
  14:	3676                	fld	fa2,376(sp)
  16:	6934                	ld	a3,80(a0)
  18:	7032                	.insn	2, 0x7032
  1a:	5f31                	li	t5,-20
  1c:	326d                	addiw	tp,tp,-5 # fffffffffffe0ffb <__BSS_END__+0xffffffff7ffdcffb>
  1e:	3070                	fld	fa2,224(s0)
  20:	615f 7032 5f31      	.insn	6, 0x5f317032615f
  26:	3266                	fld	ft4,120(sp)
  28:	3270                	fld	fa2,224(a2)
  2a:	645f 7032 5f32      	.insn	6, 0x5f327032645f
  30:	30703263          	.insn	4, 0x30703263
  34:	7a5f 6369 7273      	.insn	6, 0x727363697a5f
  3a:	7032                	.insn	2, 0x7032
  3c:	5f30                	lw	a2,120(a4)
  3e:	697a                	ld	s2,408(sp)
  40:	6566                	ld	a0,88(sp)
  42:	636e                	ld	t1,216(sp)
  44:	6965                	lui	s2,0x19
  46:	7032                	.insn	2, 0x7032
  48:	5f30                	lw	a2,120(a4)
  4a:	6d7a                	ld	s10,408(sp)
  4c:	756d                	lui	a0,0xffffb
  4e:	316c                	fld	fa1,224(a0)
  50:	3070                	fld	fa2,224(s0)
  52:	7a5f 6161 6f6d      	.insn	6, 0x6f6d61617a5f
  58:	7031                	c.lui	zero,0xfffec
  5a:	5f30                	lw	a2,120(a4)
  5c:	617a                	ld	sp,408(sp)
  5e:	726c                	ld	a1,224(a2)
  60:	70316373          	csrrsi	t1,0x703,2
  64:	0030                	addi	a2,sp,8
  66:	0108                	addi	a0,sp,128
  68:	0b0a                	slli	s6,s6,0x2

Disassembly of section .debug_aranges:

0000000000000000 <.debug_aranges>:
   0:	002c                	addi	a1,sp,8
   2:	0000                	unimp
   4:	0002                	c.slli64	zero
   6:	0000                	unimp
   8:	0000                	unimp
   a:	0008                	.insn	2, 0x0008
   c:	0000                	unimp
   e:	0000                	unimp
  10:	0000                	unimp
  12:	8000                	.insn	2, 0x8000
  14:	0000                	unimp
  16:	0000                	unimp
  18:	0050                	addi	a2,sp,4
	...
  2e:	0000                	unimp
  30:	002c                	addi	a1,sp,8
  32:	0000                	unimp
  34:	0002                	c.slli64	zero
  36:	0028                	addi	a0,sp,8
  38:	0000                	unimp
  3a:	0008                	.insn	2, 0x0008
  3c:	0000                	unimp
  3e:	0000                	unimp
  40:	0050                	addi	a2,sp,4
  42:	8000                	.insn	2, 0x8000
  44:	0000                	unimp
  46:	0000                	unimp
  48:	009a                	slli	ra,ra,0x6
	...
  5e:	0000                	unimp
  60:	002c                	addi	a1,sp,8
  62:	0000                	unimp
  64:	0002                	c.slli64	zero
  66:	00d0                	addi	a2,sp,68
  68:	0000                	unimp
  6a:	0008                	.insn	2, 0x0008
  6c:	0000                	unimp
  6e:	0000                	unimp
  70:	00ea                	slli	ra,ra,0x1a
  72:	8000                	.insn	2, 0x8000
  74:	0000                	unimp
  76:	0000                	unimp
  78:	053e                	slli	a0,a0,0xf
	...
  8e:	0000                	unimp
  90:	002c                	addi	a1,sp,8
  92:	0000                	unimp
  94:	0002                	c.slli64	zero
  96:	04ea                	slli	s1,s1,0x1a
  98:	0000                	unimp
  9a:	0008                	.insn	2, 0x0008
  9c:	0000                	unimp
  9e:	0000                	unimp
  a0:	0628                	addi	a0,sp,776
  a2:	8000                	.insn	2, 0x8000
  a4:	0000                	unimp
  a6:	0000                	unimp
  a8:	002c                	addi	a1,sp,8
	...
  be:	0000                	unimp
  c0:	002c                	addi	a1,sp,8
  c2:	0000                	unimp
  c4:	0002                	c.slli64	zero
  c6:	05f1                	addi	a1,a1,28
  c8:	0000                	unimp
  ca:	0008                	.insn	2, 0x0008
  cc:	0000                	unimp
  ce:	0000                	unimp
  d0:	0654                	addi	a3,sp,772
  d2:	8000                	.insn	2, 0x8000
  d4:	0000                	unimp
  d6:	0000                	unimp
  d8:	0aa4                	addi	s1,sp,344
	...
  ee:	0000                	unimp
  f0:	002c                	addi	a1,sp,8
  f2:	0000                	unimp
  f4:	0002                	c.slli64	zero
  f6:	0a24                	addi	s1,sp,280
  f8:	0000                	unimp
  fa:	0008                	.insn	2, 0x0008
  fc:	0000                	unimp
  fe:	0000                	unimp
 100:	10f8                	addi	a4,sp,108
 102:	8000                	.insn	2, 0x8000
 104:	0000                	unimp
 106:	0000                	unimp
 108:	04ba                	slli	s1,s1,0xe
	...

Disassembly of section .debug_info:

0000000000000000 <.debug_info>:
   0:	0024                	addi	s1,sp,8
   2:	0000                	unimp
   4:	0005                	c.nop	1
   6:	0801                	addi	a6,a6,0 # 393000 <_start-0x7fc6d000>
   8:	0000                	unimp
   a:	0000                	unimp
   c:	0001                	nop
   e:	0000                	unimp
  10:	0000                	unimp
  12:	0000                	unimp
  14:	0080                	addi	s0,sp,64
  16:	0000                	unimp
  18:	5000                	lw	s0,32(s0)
  1a:	0000                	unimp
  1c:	0000                	unimp
  1e:	0000000f          	fence	unknown,unknown
  22:	0030                	addi	a2,sp,8
  24:	0000                	unimp
  26:	8001                	c.srli64	s0
  28:	00a4                	addi	s1,sp,72
  2a:	0000                	unimp
  2c:	0005                	c.nop	1
  2e:	0801                	addi	a6,a6,0
  30:	0014                	.insn	2, 0x0014
  32:	0000                	unimp
  34:	8b02                	jr	s6
  36:	0000                	unimp
  38:	1d00                	addi	s0,sp,688
  3a:	0030                	addi	a2,sp,8
  3c:	0000                	unimp
  3e:	0000                	unimp
  40:	0000                	unimp
  42:	0050                	addi	a2,sp,4
  44:	8000                	.insn	2, 0x8000
  46:	0000                	unimp
  48:	0000                	unimp
  4a:	009a                	slli	ra,ra,0x6
  4c:	0000                	unimp
  4e:	0000                	unimp
  50:	0000                	unimp
  52:	00b2                	slli	ra,ra,0xc
  54:	0000                	unimp
  56:	0801                	addi	a6,a6,0
  58:	00003e07          	fld	ft8,0(zero) # 0 <_start-0x80000000>
  5c:	0100                	addi	s0,sp,128
  5e:	0704                	addi	s1,sp,896
  60:	00000043          	fmadd.s	ft0,ft0,ft0,ft0,rne
  64:	0201                	addi	tp,tp,0 # 0 <_start-0x80000000>
  66:	00005e07          	.insn	4, 0x5e07
  6a:	0300                	addi	s0,sp,384
  6c:	0085                	addi	ra,ra,1
  6e:	0000                	unimp
  70:	0802                	c.slli64	a6
  72:	00004f17          	auipc	t5,0x4
  76:	0100                	addi	s0,sp,128
  78:	0801                	addi	a6,a6,0
  7a:	0050                	addi	a2,sp,4
  7c:	0000                	unimp
  7e:	7b04                	ld	s1,48(a4)
  80:	0000                	unimp
  82:	0100                	addi	s0,sp,128
  84:	012d                	addi	sp,sp,11
  86:	0086                	slli	ra,ra,0x1
  88:	0000                	unimp
  8a:	00ac                	addi	a1,sp,72
  8c:	8000                	.insn	2, 0x8000
  8e:	0000                	unimp
  90:	0000                	unimp
  92:	003e                	c.slli	zero,0xf
  94:	0000                	unimp
  96:	0000                	unimp
  98:	0000                	unimp
  9a:	9c01                	subw	s0,s0,s0
  9c:	0086                	slli	ra,ra,0x1
  9e:	0000                	unimp
  a0:	6305                	lui	t1,0x1
  a2:	0100                	addi	s0,sp,128
  a4:	102d                	c.nop	-21
  a6:	0086                	slli	ra,ra,0x1
  a8:	0000                	unimp
  aa:	9102                	jalr	sp
  ac:	0101006f          	j	100bc <_start-0x7ffeff44>
  b0:	5908                	lw	a0,48(a0)
  b2:	0000                	unimp
  b4:	0600                	addi	s0,sp,768
  b6:	0071                	c.nop	28
  b8:	0000                	unimp
  ba:	1801                	addi	a6,a6,-32
  bc:	5001                	c.li	zero,-32
  be:	0000                	unimp
  c0:	0080                	addi	s0,sp,64
  c2:	0000                	unimp
  c4:	5c00                	lw	s0,56(s0)
  c6:	0000                	unimp
  c8:	0000                	unimp
  ca:	0000                	unimp
  cc:	0100                	addi	s0,sp,128
  ce:	009c                	addi	a5,sp,64
  d0:	0416                	slli	s0,s0,0x5
  d2:	0000                	unimp
  d4:	0005                	c.nop	1
  d6:	0801                	addi	a6,a6,0
  d8:	00000087          	.insn	4, 0x0087
  dc:	8b0d                	andi	a4,a4,3
  de:	0000                	unimp
  e0:	1d00                	addi	s0,sp,688
  e2:	006d                	c.nop	27
  e4:	0000                	unimp
  e6:	0000                	unimp
  e8:	0000                	unimp
  ea:	00ea                	slli	ra,ra,0x1a
  ec:	8000                	.insn	2, 0x8000
  ee:	0000                	unimp
  f0:	0000                	unimp
  f2:	053e                	slli	a0,a0,0xf
  f4:	0000                	unimp
  f6:	0000                	unimp
  f8:	0000                	unimp
  fa:	0175                	addi	sp,sp,29
  fc:	0000                	unimp
  fe:	0809                	addi	a6,a6,2
 100:	2005                	.insn	2, 0x2005
 102:	0001                	nop
 104:	0900                	addi	s0,sp,144
 106:	0708                	addi	a0,sp,896
 108:	003e                	c.slli	zero,0xf
 10a:	0000                	unimp
 10c:	040e                	slli	s0,s0,0x3
 10e:	6905                	lui	s2,0x1
 110:	746e                	ld	s0,248(sp)
 112:	0900                	addi	s0,sp,144
 114:	0508                	addi	a0,sp,640
 116:	0000011b          	sext.w	sp,zero
 11a:	1009                	c.nop	-30
 11c:	c104                	sw	s1,0(a0)
 11e:	0001                	nop
 120:	0200                	addi	s0,sp,256
 122:	014a                	slli	sp,sp,0x12
 124:	0000                	unimp
 126:	6f12                	ld	t5,256(sp)
 128:	0000                	unimp
 12a:	6f00                	ld	s0,24(a4)
 12c:	0000                	unimp
 12e:	0100                	addi	s0,sp,128
 130:	0000006f          	j	130 <_start-0x7ffffed0>
 134:	7101                	addi	sp,sp,-512
 136:	0000                	unimp
 138:	0100                	addi	s0,sp,128
 13a:	0035                	c.nop	13
 13c:	0000                	unimp
 13e:	0f00                	addi	s0,sp,912
 140:	0a08                	addi	a0,sp,272
 142:	0076                	c.slli	zero,0x1d
 144:	0000                	unimp
 146:	0210                	addi	a2,sp,256
 148:	00000163          	beqz	zero,14a <_start-0x7ffffeb6>
 14c:	00006f13          	ori	t5,zero,0
 150:	9500                	.insn	2, 0x9500
 152:	0000                	unimp
 154:	0100                	addi	s0,sp,128
 156:	0000006f          	j	156 <_start-0x7ffffeaa>
 15a:	7101                	addi	sp,sp,-512
 15c:	0000                	unimp
 15e:	0100                	addi	s0,sp,128
 160:	0035                	c.nop	13
 162:	0000                	unimp
 164:	0200                	addi	s0,sp,256
 166:	0000016f          	jal	sp,166 <_start-0x7ffffe9a>
 16a:	6f10                	ld	a2,24(a4)
 16c:	0000                	unimp
 16e:	b300                	fsd	fs0,32(a4)
 170:	0000                	unimp
 172:	0100                	addi	s0,sp,128
 174:	0000006f          	j	174 <_start-0x7ffffe8c>
 178:	3c01                	addiw	s8,s8,-32 # 1cfe0 <_start-0x7ffe3020>
 17a:	0000                	unimp
 17c:	0100                	addi	s0,sp,128
 17e:	0035                	c.nop	13
 180:	0000                	unimp
 182:	0200                	addi	s0,sp,256
 184:	00000157          	.insn	4, 0x0157
 188:	3c11                	addiw	s8,s8,-28
 18a:	0000                	unimp
 18c:	d100                	sw	s0,32(a0)
 18e:	0000                	unimp
 190:	0100                	addi	s0,sp,128
 192:	0071                	c.nop	28
 194:	0000                	unimp
 196:	7101                	addi	sp,sp,-512
 198:	0000                	unimp
 19a:	0100                	addi	s0,sp,128
 19c:	0035                	c.nop	13
 19e:	0000                	unimp
 1a0:	0200                	addi	s0,sp,256
 1a2:	019e                	slli	gp,gp,0x7
 1a4:	0000                	unimp
 1a6:	0000ef0b          	.insn	4, 0xef0b
 1aa:	ef00                	sd	s0,24(a4)
 1ac:	0000                	unimp
 1ae:	0100                	addi	s0,sp,128
 1b0:	000000ef          	jal	1b0 <_start-0x7ffffe50>
 1b4:	0001                	nop
 1b6:	0001                	nop
 1b8:	0100                	addi	s0,sp,128
 1ba:	0035                	c.nop	13
 1bc:	0000                	unimp
 1be:	0a00                	addi	s0,sp,272
 1c0:	00f4                	addi	a3,sp,76
 1c2:	0000                	unimp
 1c4:	0109                	addi	sp,sp,2
 1c6:	5908                	lw	a0,48(a0)
 1c8:	0000                	unimp
 1ca:	0b00                	addi	s0,sp,400
 1cc:	00f4                	addi	a3,sp,76
 1ce:	0000                	unimp
 1d0:	fb0a                	sd	sp,432(sp)
 1d2:	0000                	unimp
 1d4:	0200                	addi	s0,sp,256
 1d6:	01a6                	slli	gp,gp,0x9
 1d8:	0000                	unimp
 1da:	3c0e                	fld	fs8,224(sp)
 1dc:	0000                	unimp
 1de:	1e00                	addi	s0,sp,816
 1e0:	0001                	nop
 1e2:	0100                	addi	s0,sp,128
 1e4:	0100                	addi	s0,sp,128
 1e6:	0000                	unimp
 1e8:	0001                	nop
 1ea:	0001                	nop
 1ec:	0000                	unimp
 1ee:	8002                	.insn	2, 0x8002
 1f0:	0001                	nop
 1f2:	0c00                	addi	s0,sp,528
 1f4:	000000ef          	jal	1f4 <_start-0x7ffffe0c>
 1f8:	00000137          	lui	sp,0x0
 1fc:	ef01                	bnez	a4,214 <_start-0x7ffffdec>
 1fe:	0000                	unimp
 200:	0100                	addi	s0,sp,128
 202:	0100                	addi	s0,sp,128
 204:	0000                	unimp
 206:	0200                	addi	s0,sp,256
 208:	00000133          	add	sp,zero,zero
 20c:	3c1a                	fld	fs8,416(sp)
 20e:	0000                	unimp
 210:	4c00                	lw	s0,24(s0)
 212:	0001                	nop
 214:	0100                	addi	s0,sp,128
 216:	0100                	addi	s0,sp,128
 218:	0000                	unimp
 21a:	0011                	c.nop	4
 21c:	8d0c                	.insn	2, 0x8d0c
 21e:	0001                	nop
 220:	6800                	ld	s0,16(s0)
 222:	05fa                	slli	a1,a1,0x1e
 224:	8000                	.insn	2, 0x8000
 226:	0000                	unimp
 228:	0000                	unimp
 22a:	002e                	c.slli	zero,0xb
 22c:	0000                	unimp
 22e:	0000                	unimp
 230:	0000                	unimp
 232:	9c01                	subw	s0,s0,s0
 234:	00015207          	.insn	4, 0x00015207
 238:	5b00                	lw	s0,48(a4)
 23a:	0544                	addi	s1,sp,644
 23c:	8000                	.insn	2, 0x8000
 23e:	0000                	unimp
 240:	0000                	unimp
 242:	00b6                	slli	ra,ra,0xd
 244:	0000                	unimp
 246:	0000                	unimp
 248:	0000                	unimp
 24a:	9c01                	subw	s0,s0,s0
 24c:	01b5                	addi	gp,gp,13 # 800030fd <__global_pointer$+0xd>
 24e:	0000                	unimp
 250:	5d006103          	lwu	sp,1488(zero) # 5d0 <_start-0x7ffffa30>
 254:	01b5                	addi	gp,gp,13 # 800030fd <__global_pointer$+0xd>
 256:	0000                	unimp
 258:	9102                	jalr	sp
 25a:	0368                	addi	a0,sp,396
 25c:	0062                	c.slli	zero,0x18
 25e:	b55e                	fsd	fs7,168(sp)
 260:	0001                	nop
 262:	0200                	addi	s0,sp,256
 264:	6091                	lui	ra,0x4
 266:	b808                	fsd	fa0,48(s0)
 268:	0001                	nop
 26a:	d500                	sw	s0,40(a0)
 26c:	0001                	nop
 26e:	0900                	addi	s0,sp,144
 270:	0017e803          	lwu	a6,1(a5)
 274:	0080                	addi	s0,sp,64
 276:	0000                	unimp
 278:	0300                	addi	s0,sp,384
 27a:	b5610063          	beq	sp,s6,fffffffffffff5ba <__BSS_END__+0xffffffff7fffb5ba>
 27e:	0001                	nop
 280:	0200                	addi	s0,sp,256
 282:	5891                	li	a7,-28
 284:	0400                	addi	s0,sp,512
 286:	00f4                	addi	a3,sp,76
 288:	0000                	unimp
 28a:	01c5                	addi	gp,gp,17 # 80003101 <__global_pointer$+0x11>
 28c:	0000                	unimp
 28e:	3505                	addiw	a0,a0,-31 # ffffffffffffafe1 <__BSS_END__+0xffffffff7fff6fe1>
 290:	0000                	unimp
 292:	0400                	addi	s0,sp,512
 294:	0400                	addi	s0,sp,512
 296:	000000fb          	.insn	4, 0x00fb
 29a:	01d5                	addi	gp,gp,21 # 80003105 <__global_pointer$+0x15>
 29c:	0000                	unimp
 29e:	3505                	addiw	a0,a0,-31
 2a0:	0000                	unimp
 2a2:	0b00                	addi	s0,sp,400
 2a4:	0b00                	addi	s0,sp,400
 2a6:	01c5                	addi	gp,gp,17 # 80003101 <__global_pointer$+0x11>
 2a8:	0000                	unimp
 2aa:	00014507          	.insn	4, 0x00014507
 2ae:	4e00                	lw	s0,24(a2)
 2b0:	0470                	addi	a2,sp,524
 2b2:	8000                	.insn	2, 0x8000
 2b4:	0000                	unimp
 2b6:	0000                	unimp
 2b8:	00d4                	addi	a3,sp,68
 2ba:	0000                	unimp
 2bc:	0000                	unimp
 2be:	0000                	unimp
 2c0:	9c01                	subw	s0,s0,s0
 2c2:	0224                	addi	s1,sp,264
 2c4:	0000                	unimp
 2c6:	66756203          	lwu	tp,1639(a0)
 2ca:	5000                	lw	s0,32(s0)
 2cc:	0224                	addi	s1,sp,264
 2ce:	0000                	unimp
 2d0:	9102                	jalr	sp
 2d2:	0860                	addi	s0,sp,28
 2d4:	01b8                	addi	a4,sp,200
 2d6:	0000                	unimp
 2d8:	0244                	addi	s1,sp,260
 2da:	0000                	unimp
 2dc:	0309                	addi	t1,t1,2 # 1002 <_start-0x7fffeffe>
 2de:	17d8                	addi	a4,sp,996
 2e0:	8000                	.insn	2, 0x8000
 2e2:	0000                	unimp
 2e4:	0000                	unimp
 2e6:	2906                	fld	fs2,64(sp)
 2e8:	0001                	nop
 2ea:	5500                	lw	s0,40(a0)
 2ec:	0224                	addi	s1,sp,264
 2ee:	0000                	unimp
 2f0:	9102                	jalr	sp
 2f2:	0050                	addi	a2,sp,4
 2f4:	f404                	sd	s1,40(s0)
 2f6:	0000                	unimp
 2f8:	3400                	fld	fs0,40(s0)
 2fa:	0002                	c.slli64	zero
 2fc:	0500                	addi	s0,sp,640
 2fe:	0035                	c.nop	13
 300:	0000                	unimp
 302:	0009                	c.nop	2
 304:	fb04                	sd	s1,48(a4)
 306:	0000                	unimp
 308:	4400                	lw	s0,8(s0)
 30a:	0002                	c.slli64	zero
 30c:	0500                	addi	s0,sp,640
 30e:	0035                	c.nop	13
 310:	0000                	unimp
 312:	000c                	.insn	2, 0x000c
 314:	0002340b          	.insn	4, 0x0002340b
 318:	0700                	addi	s0,sp,896
 31a:	015e                	slli	sp,sp,0x17
 31c:	0000                	unimp
 31e:	0003883f 00000080 	.insn	8, 0x00800003883f
 326:	e800                	sd	s0,16(s0)
 328:	0000                	unimp
 32a:	0000                	unimp
 32c:	0000                	unimp
 32e:	0100                	addi	s0,sp,128
 330:	ae9c                	fsd	fa5,24(a3)
 332:	0002                	c.slli64	zero
 334:	0300                	addi	s0,sp,384
 336:	00637273          	csrrci	tp,0x6,6
 33a:	2441                	addiw	s0,s0,16 # ffffffffffffa010 <__BSS_END__+0xffffffff7fff6010>
 33c:	0002                	c.slli64	zero
 33e:	0200                	addi	s0,sp,256
 340:	6091                	lui	ra,0x4
 342:	4006                	.insn	2, 0x4006
 344:	0001                	nop
 346:	4200                	lw	s0,0(a2)
 348:	0224                	addi	s1,sp,264
 34a:	0000                	unimp
 34c:	9102                	jalr	sp
 34e:	0850                	addi	a2,sp,20
 350:	01b8                	addi	a4,sp,200
 352:	0000                	unimp
 354:	01d5                	addi	gp,gp,21 # 80003105 <__global_pointer$+0x15>
 356:	0000                	unimp
 358:	0309                	addi	t1,t1,2
 35a:	17c8                	addi	a0,sp,996
 35c:	8000                	.insn	2, 0x8000
 35e:	0000                	unimp
 360:	0000                	unimp
 362:	7606                	ld	a2,96(sp)
 364:	0001                	nop
 366:	4700                	lw	s0,8(a4)
 368:	0224                	addi	s1,sp,264
 36a:	0000                	unimp
 36c:	9102                	jalr	sp
 36e:	0640                	addi	s0,sp,772
 370:	01ad                	addi	gp,gp,11 # 800030fb <__global_pointer$+0xb>
 372:	0000                	unimp
 374:	2449                	addiw	s0,s0,18
 376:	0002                	c.slli64	zero
 378:	0300                	addi	s0,sp,384
 37a:	b091                	j	fffffffffffffbbe <__BSS_END__+0xffffffff7fffbbbe>
 37c:	007f 6a07 0001 3300 	.insn	10, 0x02e2330000016a07007f
 384:	02e2 
 386:	8000                	.insn	2, 0x8000
 388:	0000                	unimp
 38a:	0000                	unimp
 38c:	00a6                	slli	ra,ra,0x9
 38e:	0000                	unimp
 390:	0000                	unimp
 392:	0000                	unimp
 394:	9c01                	subw	s0,s0,s0
 396:	000002eb          	.insn	4, 0x02eb
 39a:	66756203          	lwu	tp,1639(a0)
 39e:	3500                	fld	fs0,40(a0)
 3a0:	0224                	addi	s1,sp,264
 3a2:	0000                	unimp
 3a4:	9102                	jalr	sp
 3a6:	0860                	addi	s0,sp,28
 3a8:	01b8                	addi	a4,sp,200
 3aa:	0000                	unimp
 3ac:	01d5                	addi	gp,gp,21 # 80003105 <__global_pointer$+0x15>
 3ae:	0000                	unimp
 3b0:	0309                	addi	t1,t1,2
 3b2:	17b8                	addi	a4,sp,1000
 3b4:	8000                	.insn	2, 0x8000
 3b6:	0000                	unimp
 3b8:	0000                	unimp
 3ba:	1200                	addi	s0,sp,288
 3bc:	01cd                	addi	gp,gp,19 # 80003103 <__global_pointer$+0x13>
 3be:	0000                	unimp
 3c0:	2c01                	sext.w	s8,s8
 3c2:	d014                	sw	a3,32(s0)
 3c4:	0002                	c.slli64	zero
 3c6:	0080                	addi	s0,sp,64
 3c8:	0000                	unimp
 3ca:	1200                	addi	s0,sp,288
 3cc:	0000                	unimp
 3ce:	0000                	unimp
 3d0:	0000                	unimp
 3d2:	0100                	addi	s0,sp,128
 3d4:	139c                	addi	a5,sp,480
 3d6:	13000003          	lb	zero,304(zero) # 130 <_start-0x7ffffed0>
 3da:	01b8                	addi	a4,sp,200
 3dc:	0000                	unimp
 3de:	0244                	addi	s1,sp,260
 3e0:	0000                	unimp
 3e2:	0700                	addi	s0,sp,896
 3e4:	0199                	addi	gp,gp,6 # 800030f6 <__global_pointer$+0x6>
 3e6:	0000                	unimp
 3e8:	141d                	addi	s0,s0,-25
 3ea:	0002                	c.slli64	zero
 3ec:	0080                	addi	s0,sp,64
 3ee:	0000                	unimp
 3f0:	bc00                	fsd	fs0,56(s0)
 3f2:	0000                	unimp
 3f4:	0000                	unimp
 3f6:	0000                	unimp
 3f8:	0100                	addi	s0,sp,128
 3fa:	6a9c                	ld	a5,16(a3)
 3fc:	03000003          	lb	zero,48(zero) # 30 <_start-0x7fffffd0>
 400:	00637273          	csrrci	tp,0x6,6
 404:	6a1f 0003 0200      	.insn	6, 0x020000036a1f
 40a:	6891                	lui	a7,0x4
 40c:	4006                	.insn	2, 0x4006
 40e:	0001                	nop
 410:	2000                	fld	fs0,0(s0)
 412:	036a                	slli	t1,t1,0x1a
 414:	0000                	unimp
 416:	9102                	jalr	sp
 418:	0860                	addi	s0,sp,28
 41a:	01b8                	addi	a4,sp,200
 41c:	0000                	unimp
 41e:	0244                	addi	s1,sp,260
 420:	0000                	unimp
 422:	0309                	addi	t1,t1,2
 424:	17a8                	addi	a0,sp,1000
 426:	8000                	.insn	2, 0x8000
 428:	0000                	unimp
 42a:	0000                	unimp
 42c:	8706                	mv	a4,ra
 42e:	0001                	nop
 430:	2600                	fld	fs0,8(a2)
 432:	037a                	slli	t1,t1,0x1e
 434:	0000                	unimp
 436:	9102                	jalr	sp
 438:	0058                	addi	a4,sp,4
 43a:	f404                	sd	s1,40(s0)
 43c:	0000                	unimp
 43e:	7a00                	ld	s0,48(a2)
 440:	05000003          	lb	zero,80(zero) # 50 <_start-0x7fffffb0>
 444:	0035                	c.nop	13
 446:	0000                	unimp
 448:	0005                	c.nop	1
 44a:	f404                	sd	s1,40(s0)
 44c:	0000                	unimp
 44e:	8a00                	.insn	2, 0x8a00
 450:	05000003          	lb	zero,80(zero) # 50 <_start-0x7fffffb0>
 454:	0035                	c.nop	13
 456:	0000                	unimp
 458:	0006                	c.slli	zero,0x1
 45a:	00017b07          	.insn	4, 0x00017b07
 45e:	0f00                	addi	s0,sp,912
 460:	0168                	addi	a0,sp,140
 462:	8000                	.insn	2, 0x8000
 464:	0000                	unimp
 466:	0000                	unimp
 468:	00ac                	addi	a1,sp,72
 46a:	0000                	unimp
 46c:	0000                	unimp
 46e:	0000                	unimp
 470:	9c01                	subw	s0,s0,s0
 472:	03e1                	addi	t2,t2,24
 474:	0000                	unimp
 476:	63727303          	.insn	4, 0x63727303
 47a:	1100                	addi	s0,sp,160
 47c:	03e1                	addi	t2,t2,24
 47e:	0000                	unimp
 480:	9102                	jalr	sp
 482:	0660                	addi	s0,sp,780
 484:	0140                	addi	s0,sp,132
 486:	0000                	unimp
 488:	f112                	sd	tp,160(sp)
 48a:	02000003          	lb	zero,32(zero) # 20 <_start-0x7fffffe0>
 48e:	4891                	li	a7,4
 490:	b808                	fsd	fa0,48(s0)
 492:	0001                	nop
 494:	d500                	sw	s0,40(a0)
 496:	0001                	nop
 498:	0900                	addi	s0,sp,144
 49a:	00179803          	lh	a6,1(a5)
 49e:	0080                	addi	s0,sp,64
 4a0:	0000                	unimp
 4a2:	0600                	addi	s0,sp,768
 4a4:	013a                	slli	sp,sp,0xe
 4a6:	0000                	unimp
 4a8:	0001b517          	auipc	a0,0x1b
 4ac:	0200                	addi	s0,sp,256
 4ae:	4091                	li	ra,4
 4b0:	0400                	addi	s0,sp,512
 4b2:	00f4                	addi	a3,sp,76
 4b4:	0000                	unimp
 4b6:	03f1                	addi	t2,t2,28
 4b8:	0000                	unimp
 4ba:	3505                	addiw	a0,a0,-31 # 1b489 <_start-0x7ffe4b77>
 4bc:	0000                	unimp
 4be:	0b00                	addi	s0,sp,400
 4c0:	0400                	addi	s0,sp,512
 4c2:	00f4                	addi	a3,sp,76
 4c4:	0000                	unimp
 4c6:	0401                	addi	s0,s0,0
 4c8:	0000                	unimp
 4ca:	3505                	addiw	a0,a0,-31
 4cc:	0000                	unimp
 4ce:	1300                	addi	s0,sp,416
 4d0:	0c00                	addi	s0,sp,528
 4d2:	012e                	slli	sp,sp,0xb
 4d4:	0000                	unimp
 4d6:	ea05                	bnez	a2,506 <_start-0x7ffffafa>
 4d8:	0000                	unimp
 4da:	0080                	addi	s0,sp,64
 4dc:	0000                	unimp
 4de:	7e00                	ld	s0,56(a2)
 4e0:	0000                	unimp
 4e2:	0000                	unimp
 4e4:	0000                	unimp
 4e6:	0100                	addi	s0,sp,128
 4e8:	009c                	addi	a5,sp,64
 4ea:	00000103          	lb	sp,0(zero) # 0 <_start-0x80000000>
 4ee:	0005                	c.nop	1
 4f0:	0801                	addi	a6,a6,0
 4f2:	018c                	addi	a1,sp,192
 4f4:	0000                	unimp
 4f6:	8b04                	.insn	2, 0x8b04
 4f8:	0000                	unimp
 4fa:	1d00                	addi	s0,sp,688
 4fc:	0000008f          	.insn	4, 0x008f
 500:	0000                	unimp
 502:	0000                	unimp
 504:	0628                	addi	a0,sp,776
 506:	8000                	.insn	2, 0x8000
 508:	0000                	unimp
 50a:	0000                	unimp
 50c:	002c                	addi	a1,sp,8
 50e:	0000                	unimp
 510:	0000                	unimp
 512:	0000                	unimp
 514:	041c                	addi	a5,sp,512
 516:	0000                	unimp
 518:	0801                	addi	a6,a6,0
 51a:	00003e07          	fld	ft8,0(zero) # 0 <_start-0x80000000>
 51e:	0100                	addi	s0,sp,128
 520:	0704                	addi	s1,sp,896
 522:	00000043          	fmadd.s	ft0,ft0,ft0,ft0,rne
 526:	0201                	addi	tp,tp,0 # 0 <_start-0x80000000>
 528:	00005e07          	.insn	4, 0x5e07
 52c:	0100                	addi	s0,sp,128
 52e:	0801                	addi	a6,a6,0
 530:	0050                	addi	a2,sp,4
 532:	0000                	unimp
 534:	0801                	addi	a6,a6,0
 536:	2005                	.insn	2, 0x2005
 538:	0001                	nop
 53a:	0500                	addi	s0,sp,640
 53c:	0504                	addi	s1,sp,640
 53e:	6e69                	lui	t3,0x1a
 540:	0074                	addi	a3,sp,12
 542:	0801                	addi	a6,a6,0
 544:	1b05                	addi	s6,s6,-31
 546:	0001                	nop
 548:	0100                	addi	s0,sp,128
 54a:	0410                	addi	a2,sp,512
 54c:	01c1                	addi	gp,gp,16 # 80003100 <__global_pointer$+0x10>
 54e:	0000                	unimp
 550:	7706                	ld	a4,96(sp)
 552:	0000                	unimp
 554:	7700                	ld	s0,40(a4)
 556:	0000                	unimp
 558:	0700                	addi	s0,sp,896
 55a:	002e                	c.slli	zero,0xb
 55c:	0000                	unimp
 55e:	0fff 0100 0801 0059 	.insn	10, 0x0059080101000fff
 566:	0000 
 568:	f308                	sd	a0,32(a4)
 56a:	0001                	nop
 56c:	0100                	addi	s0,sp,128
 56e:	060a                	slli	a2,a2,0x2
 570:	0066                	c.slli	zero,0x19
 572:	0000                	unimp
 574:	1000                	addi	s0,sp,32
 576:	0309                	addi	t1,t1,2
 578:	3000                	fld	fs0,32(s0)
 57a:	8000                	.insn	2, 0x8000
 57c:	0000                	unimp
 57e:	0000                	unimp
 580:	e409                	bnez	s0,58a <_start-0x7ffffa76>
 582:	0001                	nop
 584:	0100                	addi	s0,sp,128
 586:	00ac070b          	.insn	4, 0x00ac070b
 58a:	0000                	unimp
 58c:	0309                	addi	t1,t1,2
 58e:	28f0                	fld	fa2,208(s1)
 590:	8000                	.insn	2, 0x8000
 592:	0000                	unimp
 594:	0000                	unimp
 596:	080a                	slli	a6,a6,0x2
 598:	00000077          	.insn	4, 0x0077
 59c:	8d02                	jr	s10
 59e:	0001                	nop
 5a0:	0500                	addi	s0,sp,640
 5a2:	00be                	slli	ra,ra,0xf
 5a4:	0000                	unimp
 5a6:	2e020003          	lb	zero,736(tp) # 2e0 <_start-0x7ffffd20>
 5aa:	0001                	nop
 5ac:	0400                	addi	s0,sp,512
 5ae:	00ca                	slli	ra,ra,0x12
 5b0:	0000                	unimp
 5b2:	da0b0003          	lb	zero,-608(s6)
 5b6:	0001                	nop
 5b8:	0300                	addi	s0,sp,384
 5ba:	0051111b          	slliw	sp,sp,0x5
 5be:	0000                	unimp
 5c0:	00e0                	addi	s0,sp,76
 5c2:	0000                	unimp
 5c4:	ac0c                	fsd	fa1,24(s0)
 5c6:	0000                	unimp
 5c8:	0000                	unimp
 5ca:	710d                	addi	sp,sp,-352
 5cc:	0000                	unimp
 5ce:	0300                	addi	s0,sp,384
 5d0:	1105                	addi	sp,sp,-31 # ffffffffffffffe1 <__BSS_END__+0xffffffff7fffbfe1>
 5d2:	df0e                	sw	gp,188(sp)
 5d4:	0001                	nop
 5d6:	0100                	addi	s0,sp,128
 5d8:	010e                	slli	sp,sp,0x3
 5da:	0051                	c.nop	20
 5dc:	0000                	unimp
 5de:	0628                	addi	a0,sp,776
 5e0:	8000                	.insn	2, 0x8000
 5e2:	0000                	unimp
 5e4:	0000                	unimp
 5e6:	002c                	addi	a1,sp,8
 5e8:	0000                	unimp
 5ea:	0000                	unimp
 5ec:	0000                	unimp
 5ee:	9c01                	subw	s0,s0,s0
 5f0:	2f00                	fld	fs0,24(a4)
 5f2:	0004                	.insn	2, 0x0004
 5f4:	0500                	addi	s0,sp,640
 5f6:	0100                	addi	s0,sp,128
 5f8:	5e08                	lw	a0,56(a2)
 5fa:	0002                	c.slli64	zero
 5fc:	0e00                	addi	s0,sp,784
 5fe:	0000008b          	.insn	4, 0x008b
 602:	a81d                	j	638 <_start-0x7ffff9c8>
 604:	0000                	unimp
 606:	0000                	unimp
 608:	0000                	unimp
 60a:	5400                	lw	s0,40(s0)
 60c:	0006                	c.slli	zero,0x1
 60e:	0080                	addi	s0,sp,64
 610:	0000                	unimp
 612:	a400                	fsd	fs0,8(s0)
 614:	000a                	c.slli	zero,0x2
 616:	0000                	unimp
 618:	0000                	unimp
 61a:	a400                	fsd	fs0,8(s0)
 61c:	0004                	.insn	2, 0x0004
 61e:	0400                	addi	s0,sp,512
 620:	0508                	addi	a0,sp,640
 622:	0120                	addi	s0,sp,136
 624:	0000                	unimp
 626:	0506                	slli	a0,a0,0x1
 628:	0002                	c.slli64	zero
 62a:	0200                	addi	s0,sp,256
 62c:	17d6                	slli	a5,a5,0x35
 62e:	0041                	c.nop	16
 630:	0000                	unimp
 632:	0804                	addi	s1,sp,16
 634:	00003e07          	fld	ft8,0(zero) # 0 <_start-0x80000000>
 638:	0f00                	addi	s0,sp,912
 63a:	0504                	addi	s1,sp,640
 63c:	6e69                	lui	t3,0x1a
 63e:	0074                	addi	a3,sp,12
 640:	0804                	addi	s1,sp,16
 642:	1b05                	addi	s6,s6,-31
 644:	0001                	nop
 646:	0400                	addi	s0,sp,512
 648:	0410                	addi	a2,sp,512
 64a:	01c1                	addi	gp,gp,16 # 80003100 <__global_pointer$+0x10>
 64c:	0000                	unimp
 64e:	3e06                	fld	ft8,96(sp)
 650:	0002                	c.slli64	zero
 652:	0300                	addi	s0,sp,384
 654:	1b28                	addi	a0,sp,440
 656:	0069                	c.nop	26
 658:	0000                	unimp
 65a:	0810                	addi	a2,sp,16
 65c:	020c                	addi	a1,sp,256
 65e:	0000                	unimp
 660:	4506                	lw	a0,64(sp)
 662:	0002                	c.slli64	zero
 664:	0300                	addi	s0,sp,384
 666:	005d1867          	.insn	4, 0x005d1867
 66a:	0000                	unimp
 66c:	9902                	jalr	s2
 66e:	0002                	c.slli64	zero
 670:	1400                	addi	s0,sp,544
 672:	9014                	.insn	2, 0x9014
 674:	0000                	unimp
 676:	0900                	addi	s0,sp,144
 678:	0028f803          	.insn	4, 0x0028f803
 67c:	0080                	addi	s0,sp,64
 67e:	0000                	unimp
 680:	0700                	addi	s0,sp,896
 682:	009c                	addi	a5,sp,64
 684:	0000                	unimp
 686:	0104                	addi	s1,sp,128
 688:	5908                	lw	a0,48(a0)
 68a:	0000                	unimp
 68c:	1100                	addi	s0,sp,160
 68e:	0095                	addi	ra,ra,5 # 4005 <_start-0x7fffbffb>
 690:	0000                	unimp
 692:	3202                	fld	ft4,32(sp)
 694:	0002                	c.slli64	zero
 696:	1500                	addi	s0,sp,672
 698:	9014                	.insn	2, 0x9014
 69a:	0000                	unimp
 69c:	0900                	addi	s0,sp,144
 69e:	00290003          	lb	zero,2(s2) # 1002 <_start-0x7fffeffe>
 6a2:	0080                	addi	s0,sp,64
 6a4:	0000                	unimp
 6a6:	0900                	addi	s0,sp,144
 6a8:	0000007b          	.insn	4, 0x007b
 6ac:	4806                	lw	a6,64(sp)
 6ae:	0000                	unimp
 6b0:	ca00                	sw	s0,16(a2)
 6b2:	0000                	unimp
 6b4:	0a00                	addi	s0,sp,272
 6b6:	0095                	addi	ra,ra,5
 6b8:	0000                	unimp
 6ba:	0900                	addi	s0,sp,144
 6bc:	0000026f          	jal	tp,6bc <_start-0x7ffff944>
 6c0:	350a                	fld	fa0,160(sp)
 6c2:	0000                	unimp
 6c4:	de00                	sw	s0,56(a2)
 6c6:	0000                	unimp
 6c8:	0a00                	addi	s0,sp,272
 6ca:	0090                	addi	a2,sp,64
 6cc:	0000                	unimp
 6ce:	1200                	addi	s0,sp,288
 6d0:	01da                	slli	gp,gp,0x16
 6d2:	0000                	unimp
 6d4:	0101                	addi	sp,sp,0
 6d6:	0101                	addi	sp,sp,0
 6d8:	0048                	addi	a0,sp,4
 6da:	0000                	unimp
 6dc:	10aa                	slli	ra,ra,0x2a
 6de:	8000                	.insn	2, 0x8000
 6e0:	0000                	unimp
 6e2:	0000                	unimp
 6e4:	004e                	c.slli	zero,0x13
 6e6:	0000                	unimp
 6e8:	0000                	unimp
 6ea:	0000                	unimp
 6ec:	9c01                	subw	s0,s0,s0
 6ee:	0120                	addi	s0,sp,136
 6f0:	0000                	unimp
 6f2:	66756213          	ori	tp,a0,1639
 6f6:	0100                	addi	s0,sp,128
 6f8:	0101                	addi	sp,sp,0
 6fa:	200c                	fld	fa1,0(s0)
 6fc:	0001                	nop
 6fe:	0200                	addi	s0,sp,256
 700:	5891                	li	a7,-28
 702:	6914                	ld	a3,16(a0)
 704:	0100                	addi	s0,sp,128
 706:	48090103          	lb	sp,1152(s2)
 70a:	0000                	unimp
 70c:	0200                	addi	s0,sp,256
 70e:	6c91                	lui	s9,0x4
 710:	0700                	addi	s0,sp,896
 712:	0095                	addi	ra,ra,5
 714:	0000                	unimp
 716:	0001330b          	.insn	4, 0x0001330b
 71a:	f500                	sd	s0,40(a0)
 71c:	0048                	addi	a0,sp,4
 71e:	0000                	unimp
 720:	102e                	c.slli	zero,0x2b
 722:	8000                	.insn	2, 0x8000
 724:	0000                	unimp
 726:	0000                	unimp
 728:	007c                	addi	a5,sp,12
 72a:	0000                	unimp
 72c:	0000                	unimp
 72e:	0000                	unimp
 730:	9c01                	subw	s0,s0,s0
 732:	0181                	addi	gp,gp,0 # 800030f0 <__global_pointer$>
 734:	0000                	unimp
 736:	746d6603          	lwu	a2,1862(s10) # 19746 <_start-0x7ffe68ba>
 73a:	f500                	sd	s0,40(a0)
 73c:	9014                	.insn	2, 0x9014
 73e:	0000                	unimp
 740:	0300                	addi	s0,sp,384
 742:	9891                	andi	s1,s1,-28
 744:	69011577          	.insn	4, 0x69011577
 748:	f700                	sd	s0,40(a4)
 74a:	4809                	li	a6,2
 74c:	0000                	unimp
 74e:	0300                	addi	s0,sp,384
 750:	ac91                	j	9a4 <_start-0x7ffff65c>
 752:	017f 7562 0066 0af8 	.insn	10, 0x01810af800667562017f
 75a:	0181 
 75c:	0000                	unimp
 75e:	77a89103          	lh	sp,1914(a7) # 477a <_start-0x7fffb886>
 762:	9402                	jalr	s0
 764:	0002                	c.slli64	zero
 766:	f900                	sd	s0,48(a0)
 768:	6f0d                	lui	t5,0x3
 76a:	0000                	unimp
 76c:	0300                	addi	s0,sp,384
 76e:	a091                	j	7b2 <_start-0x7ffff84e>
 770:	950c0077          	.insn	4, 0x950c0077
 774:	0000                	unimp
 776:	9200                	.insn	2, 0x9200
 778:	0001                	nop
 77a:	1600                	addi	s0,sp,800
 77c:	0041                	c.nop	16
 77e:	0000                	unimp
 780:	03ff 0b00 021e 0000 	.insn	10, 0x486d0000021e0b0003ff
 788:	486d 
 78a:	0000                	unimp
 78c:	8400                	.insn	2, 0x8400
 78e:	000a                	c.slli	zero,0x2
 790:	0080                	addi	s0,sp,64
 792:	0000                	unimp
 794:	aa00                	fsd	fs0,16(a2)
 796:	0005                	c.nop	1
 798:	0000                	unimp
 79a:	0000                	unimp
 79c:	0100                	addi	s0,sp,128
 79e:	ac9c                	fsd	fa5,24(s1)
 7a0:	0002                	c.slli64	zero
 7a2:	0300                	addi	s0,sp,384
 7a4:	0074756f          	jal	a0,47faa <_start-0x7ffb8056>
 7a8:	116d                	addi	sp,sp,-5
 7aa:	0120                	addi	s0,sp,136
 7ac:	0000                	unimp
 7ae:	7fa89103          	lh	sp,2042(a7)
 7b2:	6d006e03          	lwu	t3,1744(zero) # 6d0 <_start-0x7ffff930>
 7b6:	351d                	addiw	a0,a0,-25
 7b8:	0000                	unimp
 7ba:	0300                	addi	s0,sp,384
 7bc:	a091                	j	800 <_start-0x7ffff800>
 7be:	037f 6d66 0074 2c6d 	.insn	10, 0x00902c6d00746d66037f
 7c6:	0090 
 7c8:	0000                	unimp
 7ca:	7f989103          	lh	sp,2041(a7)
 7ce:	00706103          	lwu	sp,7(zero) # 7 <_start-0x7ffffff9>
 7d2:	396d                	addiw	s2,s2,-5
 7d4:	0000006f          	j	7d4 <_start-0x7ffff82c>
 7d8:	7f909103          	lh	sp,2041(ra)
 7dc:	6301                	.insn	2, 0x6301
 7de:	746e                	ld	s0,248(sp)
 7e0:	6f00                	ld	s0,24(a4)
 7e2:	4809                	li	a6,2
 7e4:	0000                	unimp
 7e6:	0200                	addi	s0,sp,256
 7e8:	6c91                	lui	s9,0x4
 7ea:	7301                	lui	t1,0xfffe0
 7ec:	7274                	ld	a3,224(a2)
 7ee:	7000                	ld	s0,32(s0)
 7f0:	0001200b          	.insn	4, 0x0001200b
 7f4:	0200                	addi	s0,sp,256
 7f6:	6091                	lui	ra,0x4
 7f8:	00025717          	auipc	a4,0x25
 7fc:	0100                	addi	s0,sp,128
 7fe:	097a                	slli	s2,s2,0x1e
 800:	0ada                	slli	s5,s5,0x16
 802:	8000                	.insn	2, 0x8000
 804:	0000                	unimp
 806:	0000                	unimp
 808:	aa05                	j	938 <_start-0x7ffff6c8>
 80a:	000a                	c.slli	zero,0x2
 80c:	0080                	addi	s0,sp,64
 80e:	0000                	unimp
 810:	3a00                	fld	fs0,48(a2)
 812:	0005                	c.nop	1
 814:	0000                	unimp
 816:	0000                	unimp
 818:	0200                	addi	s0,sp,256
 81a:	0276                	slli	tp,tp,0x1d
 81c:	0000                	unimp
 81e:	0d79                	addi	s10,s10,30
 820:	0048                	addi	a0,sp,4
 822:	0000                	unimp
 824:	9102                	jalr	sp
 826:	025c                	addi	a5,sp,260
 828:	0288                	addi	a0,sp,320
 82a:	0000                	unimp
 82c:	0d82                	c.slli64	s11
 82e:	0048                	addi	a0,sp,4
 830:	0000                	unimp
 832:	9102                	jalr	sp
 834:	0258                	addi	a4,sp,260
 836:	024d                	addi	tp,tp,19 # 13 <_start-0x7fffffed>
 838:	0000                	unimp
 83a:	0d8e                	slli	s11,s11,0x3
 83c:	0048                	addi	a0,sp,4
 83e:	0000                	unimp
 840:	9102                	jalr	sp
 842:	0554                	addi	a3,sp,644
 844:	0cfc                	addi	a5,sp,604
 846:	8000                	.insn	2, 0x8000
 848:	0000                	unimp
 84a:	0000                	unimp
 84c:	02e8                	addi	a0,sp,332
 84e:	0000                	unimp
 850:	0000                	unimp
 852:	0000                	unimp
 854:	7301                	lui	t1,0xfffe0
 856:	a300                	fsd	fs0,0(a4)
 858:	00012017          	auipc	zero,0x12
 85c:	0200                	addi	s0,sp,256
 85e:	4891                	li	a7,4
 860:	6c01                	.insn	2, 0x6c01
 862:	6e65                	lui	t3,0x19
 864:	a500                	fsd	fs0,8(a0)
 866:	4815                	li	a6,5
 868:	0000                	unimp
 86a:	0200                	addi	s0,sp,256
 86c:	4091                	li	ra,4
 86e:	6901                	.insn	2, 0x6901
 870:	0070                	addi	a2,sp,12
 872:	17c8                	addi	a0,sp,996
 874:	0120                	addi	s0,sp,136
 876:	0000                	unimp
 878:	7fb89103          	lh	sp,2043(a7)
 87c:	e205                	bnez	a2,89c <_start-0x7ffff764>
 87e:	000d                	c.nop	3
 880:	0080                	addi	s0,sp,64
 882:	0000                	unimp
 884:	4200                	lw	s0,0(a2)
 886:	0000                	unimp
 888:	0000                	unimp
 88a:	0000                	unimp
 88c:	0100                	addi	s0,sp,128
 88e:	0069                	c.nop	26
 890:	00481aa7          	.insn	4, 0x00481aa7
 894:	0000                	unimp
 896:	9102                	jalr	sp
 898:	0044                	addi	s1,sp,4
 89a:	0000                	unimp
 89c:	0d00                	addi	s0,sp,656
 89e:	027c                	addi	a5,sp,268
 8a0:	0000                	unimp
 8a2:	0001202b          	.insn	4, 0x0001202b
 8a6:	2000                	fld	fs0,0(s0)
 8a8:	00800007          	.insn	4, 0x00800007
 8ac:	0000                	unimp
 8ae:	6400                	ld	s0,8(s0)
 8b0:	00000003          	lb	zero,0(zero) # 0 <_start-0x80000000>
 8b4:	0000                	unimp
 8b6:	0100                	addi	s0,sp,128
 8b8:	869c                	.insn	2, 0x869c
 8ba:	03000003          	lb	zero,48(zero) # 30 <_start-0x7fffffd0>
 8be:	00727473          	csrrci	s0,0x7,4
 8c2:	01200e2b          	.insn	4, 0x01200e2b
 8c6:	0000                	unimp
 8c8:	7f989103          	lh	sp,2041(a7)
 8cc:	6d756e03          	lwu	t3,1751(a0)
 8d0:	2b00                	fld	fs0,16(a4)
 8d2:	00004817          	auipc	a6,0x4
 8d6:	0300                	addi	s0,sp,384
 8d8:	9491                	srai	s1,s1,0x24
 8da:	087f 02ae 0000 4820 	.insn	10, 0x4820000002ae087f
 8e2:	0000 
 8e4:	0300                	addi	s0,sp,384
 8e6:	9091                	srli	s1,s1,0x24
 8e8:	087f 024d 0000 482a 	.insn	10, 0x482a0000024d087f
 8f0:	0000 
 8f2:	0300                	addi	s0,sp,384
 8f4:	8c91                	sub	s1,s1,a2
 8f6:	087f 0283 0000 4839 	.insn	10, 0x483900000283087f
 8fe:	0000 
 900:	0300                	addi	s0,sp,384
 902:	8891                	andi	s1,s1,4
 904:	017f 0063 0a2d 0095 	.insn	10, 0x00950a2d0063017f
 90c:	0000 
 90e:	9102                	jalr	sp
 910:	02a90263          	beq	s2,a0,934 <_start-0x7ffff6cc>
 914:	0000                	unimp
 916:	112d                	addi	sp,sp,-21
 918:	0095                	addi	ra,ra,5 # 4005 <_start-0x7fffbffb>
 91a:	0000                	unimp
 91c:	9102                	jalr	sp
 91e:	025c026f          	jal	tp,c1142 <_start-0x7ff3eebe>
 922:	0000                	unimp
 924:	1b2d                	addi	s6,s6,-21
 926:	0386                	slli	t2,t2,0x1
 928:	0000                	unimp
 92a:	7fa89103          	lh	sp,2042(a7)
 92e:	6901                	.insn	2, 0x6901
 930:	2e00                	fld	fs0,24(a2)
 932:	4809                	li	a6,2
 934:	0000                	unimp
 936:	0200                	addi	s0,sp,256
 938:	6891                	lui	a7,0x4
 93a:	6a02                	ld	s4,0(sp)
 93c:	0002                	c.slli64	zero
 93e:	2f00                	fld	fs0,24(a4)
 940:	960e                	add	a2,a2,gp
 942:	02000003          	lb	zero,32(zero) # 20 <_start-0x7fffffe0>
 946:	5c91                	li	s9,-28
 948:	fe02                	sd	zero,312(sp)
 94a:	0001                	nop
 94c:	3000                	fld	fs0,32(s0)
 94e:	9011                	srli	s0,s0,0x24
 950:	0000                	unimp
 952:	0200                	addi	s0,sp,256
 954:	5091                	li	ra,-28
 956:	8605                	srai	a2,a2,0x1
 958:	0008                	.insn	2, 0x0008
 95a:	0080                	addi	s0,sp,64
 95c:	0000                	unimp
 95e:	5400                	lw	s0,40(s0)
 960:	0000                	unimp
 962:	0000                	unimp
 964:	0000                	unimp
 966:	0200                	addi	s0,sp,256
 968:	02a4                	addi	s1,sp,328
 96a:	0000                	unimp
 96c:	1245                	addi	tp,tp,-15 # fffffffffffffff1 <__BSS_END__+0xffffffff7fffbff1>
 96e:	0396                	slli	t2,t2,0x5
 970:	0000                	unimp
 972:	9102                	jalr	sp
 974:	0064                	addi	s1,sp,12
 976:	0c00                	addi	s0,sp,528
 978:	0095                	addi	ra,ra,5
 97a:	0000                	unimp
 97c:	0396                	slli	t2,t2,0x5
 97e:	0000                	unimp
 980:	4118                	lw	a4,0(a0)
 982:	0000                	unimp
 984:	2300                	fld	fs0,0(a4)
 986:	0400                	addi	s0,sp,512
 988:	0704                	addi	s1,sp,896
 98a:	00000043          	fmadd.s	ft0,ft0,ft0,ft0,rne
 98e:	6419                	lui	s0,0x6
 990:	0002                	c.slli64	zero
 992:	0100                	addi	s0,sp,128
 994:	0122                	slli	sp,sp,0x8
 996:	06d4                	addi	a3,sp,836
 998:	8000                	.insn	2, 0x8000
 99a:	0000                	unimp
 99c:	0000                	unimp
 99e:	004c                	addi	a1,sp,4
 9a0:	0000                	unimp
 9a2:	0000                	unimp
 9a4:	0000                	unimp
 9a6:	9c01                	subw	s0,s0,s0
 9a8:	03f4                	addi	a3,sp,460
 9aa:	0000                	unimp
 9ac:	66756203          	lwu	tp,1639(a0)
 9b0:	2200                	fld	fs0,0(a2)
 9b2:	200d                	.insn	2, 0x200d
 9b4:	0001                	nop
 9b6:	0200                	addi	s0,sp,256
 9b8:	5891                	li	a7,-28
 9ba:	22006e03          	lwu	t3,544(zero) # 220 <_start-0x7ffffde0>
 9be:	3519                	addiw	a0,a0,-26
 9c0:	0000                	unimp
 9c2:	0200                	addi	s0,sp,256
 9c4:	5091                	li	ra,-28
 9c6:	e405                	bnez	s0,9ee <_start-0x7ffff612>
 9c8:	0006                	c.slli	zero,0x1
 9ca:	0080                	addi	s0,sp,64
 9cc:	0000                	unimp
 9ce:	3000                	fld	fs0,32(s0)
 9d0:	0000                	unimp
 9d2:	0000                	unimp
 9d4:	0000                	unimp
 9d6:	0100                	addi	s0,sp,128
 9d8:	0069                	c.nop	26
 9da:	0e24                	addi	s1,sp,792
 9dc:	0048                	addi	a0,sp,4
 9de:	0000                	unimp
 9e0:	9102                	jalr	sp
 9e2:	006c                	addi	a1,sp,12
 9e4:	0d00                	addi	s0,sp,656
 9e6:	0228                	addi	a0,sp,264
 9e8:	0000                	unimp
 9ea:	4819                	li	a6,6
 9ec:	0000                	unimp
 9ee:	5400                	lw	s0,40(s0)
 9f0:	0006                	c.slli	zero,0x1
 9f2:	0080                	addi	s0,sp,64
 9f4:	0000                	unimp
 9f6:	8000                	.insn	2, 0x8000
 9f8:	0000                	unimp
 9fa:	0000                	unimp
 9fc:	0000                	unimp
 9fe:	0100                	addi	s0,sp,128
 a00:	2d9c                	fld	fa5,24(a1)
 a02:	0004                	.insn	2, 0x0004
 a04:	0300                	addi	s0,sp,384
 a06:	18190073          	.insn	4, 0x18190073
 a0a:	042d                	addi	s0,s0,11 # 600b <_start-0x7fff9ff5>
 a0c:	0000                	unimp
 a0e:	9102                	jalr	sp
 a10:	0158                	addi	a4,sp,132
 a12:	0069                	c.nop	26
 a14:	0048091b          	addiw	s2,a6,4 # 48d6 <_start-0x7fffb72a>
 a18:	0000                	unimp
 a1a:	9102                	jalr	sp
 a1c:	006c                	addi	a1,sp,12
 a1e:	00009007          	.insn	4, 0x9007
 a22:	0000                	unimp
 a24:	039f 0000 0005      	.insn	6, 0x00050000039f
 a2a:	0801                	addi	a6,a6,0
 a2c:	03e6                	slli	t2,t2,0x19
 a2e:	0000                	unimp
 a30:	8b08                	.insn	2, 0x8b08
 a32:	0000                	unimp
 a34:	1d00                	addi	s0,sp,688
 a36:	0000010f          	.insn	4, 0x010f
 a3a:	0000                	unimp
 a3c:	0000                	unimp
 a3e:	10f8                	addi	a4,sp,108
 a40:	8000                	.insn	2, 0x8000
 a42:	0000                	unimp
 a44:	0000                	unimp
 a46:	04ba                	slli	s1,s1,0xe
 a48:	0000                	unimp
 a4a:	0000                	unimp
 a4c:	0000                	unimp
 a4e:	0f01                	addi	t5,t5,0 # 3000 <_start-0x7fffd000>
 a50:	0000                	unimp
 a52:	0804                	addi	s1,sp,16
 a54:	2005                	.insn	2, 0x2005
 a56:	0001                	nop
 a58:	0900                	addi	s0,sp,144
 a5a:	0205                	addi	tp,tp,1 # 1 <_start-0x7fffffff>
 a5c:	0000                	unimp
 a5e:	d602                	sw	zero,44(sp)
 a60:	00004117          	auipc	sp,0x4
 a64:	0400                	addi	s0,sp,512
 a66:	0708                	addi	a0,sp,896
 a68:	003e                	c.slli	zero,0xf
 a6a:	0000                	unimp
 a6c:	040a                	slli	s0,s0,0x2
 a6e:	6905                	lui	s2,0x1
 a70:	746e                	ld	s0,248(sp)
 a72:	0400                	addi	s0,sp,512
 a74:	0508                	addi	a0,sp,640
 a76:	0000011b          	sext.w	sp,zero
 a7a:	1004                	addi	s1,sp,32
 a7c:	c104                	sw	s1,0(a0)
 a7e:	0001                	nop
 a80:	0700                	addi	s0,sp,896
 a82:	00000163          	beqz	zero,a84 <_start-0x7ffff57c>
 a86:	a67c                	fsd	fa5,200(a2)
 a88:	0000                	unimp
 a8a:	8200                	.insn	2, 0x8200
 a8c:	0015                	c.nop	5
 a8e:	0080                	addi	s0,sp,64
 a90:	0000                	unimp
 a92:	3000                	fld	fs0,32(s0)
 a94:	0000                	unimp
 a96:	0000                	unimp
 a98:	0000                	unimp
 a9a:	0100                	addi	s0,sp,128
 a9c:	a69c                	fsd	fa5,8(a3)
 a9e:	0000                	unimp
 aa0:	0100                	addi	s0,sp,128
 aa2:	7364                	ld	s1,224(a4)
 aa4:	0074                	addi	a3,sp,12
 aa6:	0e7c                	addi	a5,sp,796
 aa8:	00a6                	slli	ra,ra,0x9
 aaa:	0000                	unimp
 aac:	9102                	jalr	sp
 aae:	0168                	addi	a0,sp,140
 ab0:	00637273          	csrrci	tp,0x6,6
 ab4:	1f7c                	addi	a5,sp,956
 ab6:	00a8                	addi	a0,sp,72
 ab8:	0000                	unimp
 aba:	9102                	jalr	sp
 abc:	0160                	addi	s0,sp,140
 abe:	006e                	c.slli	zero,0x1b
 ac0:	2b7c                	fld	fa5,208(a4)
 ac2:	0035                	c.nop	13
 ac4:	0000                	unimp
 ac6:	9102                	jalr	sp
 ac8:	0058                	addi	a4,sp,4
 aca:	ad05080b          	.insn	4, 0xad05080b
 ace:	0000                	unimp
 ad0:	0c00                	addi	s0,sp,528
 ad2:	00014a03          	lbu	s4,0(sp) # 4a60 <_start-0x7fffb5a0>
 ad6:	6400                	ld	s0,8(s0)
 ad8:	00a6                	slli	ra,ra,0x9
 ada:	0000                	unimp
 adc:	14a6                	slli	s1,s1,0x29
 ade:	8000                	.insn	2, 0x8000
 ae0:	0000                	unimp
 ae2:	0000                	unimp
 ae4:	00dc                	addi	a5,sp,68
 ae6:	0000                	unimp
 ae8:	0000                	unimp
 aea:	0000                	unimp
 aec:	9c01                	subw	s0,s0,s0
 aee:	0000010f          	.insn	4, 0x010f
 af2:	6401                	.insn	2, 0x6401
 af4:	64007473          	csrrci	s0,0x640,0
 af8:	0000a60f          	.insn	4, 0xa60f
 afc:	0200                	addi	s0,sp,256
 afe:	5891                	li	a7,-28
 b00:	7301                	lui	t1,0xfffe0
 b02:	6372                	ld	t1,280(sp)
 b04:	6400                	ld	s0,8(s0)
 b06:	a820                	fsd	fs0,80(s0)
 b08:	0000                	unimp
 b0a:	0200                	addi	s0,sp,256
 b0c:	5091                	li	ra,-28
 b0e:	6e01                	.insn	2, 0x6e01
 b10:	6400                	ld	s0,8(s0)
 b12:	352c                	fld	fa1,104(a0)
 b14:	0000                	unimp
 b16:	0200                	addi	s0,sp,256
 b18:	4891                	li	a7,4
 b1a:	7302                	ld	t1,32(sp)
 b1c:	6600                	ld	s0,8(a2)
 b1e:	0f11                	addi	t5,t5,4
 b20:	0001                	nop
 b22:	0200                	addi	s0,sp,256
 b24:	6891                	lui	a7,0x4
 b26:	6402                	ld	s0,0(sp)
 b28:	6700                	ld	s0,8(a4)
 b2a:	0001200b          	.insn	4, 0x0001200b
 b2e:	0200                	addi	s0,sp,256
 b30:	6091                	lui	ra,0x4
 b32:	0500                	addi	s0,sp,640
 b34:	0000011b          	sext.w	sp,zero
 b38:	0104                	addi	s1,sp,128
 b3a:	5908                	lw	a0,48(a0)
 b3c:	0000                	unimp
 b3e:	0d00                	addi	s0,sp,656
 b40:	0114                	addi	a3,sp,128
 b42:	0000                	unimp
 b44:	1405                	addi	s0,s0,-31
 b46:	0001                	nop
 b48:	0300                	addi	s0,sp,384
 b4a:	00000157          	.insn	4, 0x0157
 b4e:	00004853          	fadd.s	fa6,ft0,ft0,rmm
 b52:	2000                	fld	fs0,0(s0)
 b54:	0014                	.insn	2, 0x0014
 b56:	0080                	addi	s0,sp,64
 b58:	0000                	unimp
 b5a:	8600                	.insn	2, 0x8600
 b5c:	0000                	unimp
 b5e:	0000                	unimp
 b60:	0000                	unimp
 b62:	0100                	addi	s0,sp,128
 b64:	869c                	.insn	2, 0x869c
 b66:	0001                	nop
 b68:	0100                	addi	s0,sp,128
 b6a:	3176                	fld	ft2,376(sp)
 b6c:	5300                	lw	s0,32(a4)
 b6e:	a814                	fsd	fa3,16(s0)
 b70:	0000                	unimp
 b72:	0200                	addi	s0,sp,256
 b74:	5891                	li	a7,-28
 b76:	7601                	lui	a2,0xfffe0
 b78:	0032                	c.slli	zero,0xc
 b7a:	00a82453          	fadd.s	fs0,fa6,fa0,rdn
 b7e:	0000                	unimp
 b80:	9102                	jalr	sp
 b82:	0150                	addi	a2,sp,132
 b84:	006e                	c.slli	zero,0x1b
 b86:	00352f53          	fadd.s	ft10,fa0,ft3,rdn
 b8a:	0000                	unimp
 b8c:	9102                	jalr	sp
 b8e:	0248                	addi	a0,sp,260
 b90:	55003173          	csrrc	sp,0x550,zero
 b94:	0f11                	addi	t5,t5,4
 b96:	0001                	nop
 b98:	0200                	addi	s0,sp,256
 b9a:	6891                	lui	a7,0x4
 b9c:	7302                	ld	t1,32(sp)
 b9e:	0032                	c.slli	zero,0xc
 ba0:	1655                	addi	a2,a2,-11 # fffffffffffdfff5 <__BSS_END__+0xffffffff7ffdbff5>
 ba2:	0000010f          	.insn	4, 0x010f
 ba6:	9102                	jalr	sp
 ba8:	0060                	addi	s0,sp,12
 baa:	00016f03          	lwu	t5,0(sp)
 bae:	4700                	lw	s0,8(a4)
 bb0:	00a6                	slli	ra,ra,0x9
 bb2:	0000                	unimp
 bb4:	13c2                	slli	t2,t2,0x30
 bb6:	8000                	.insn	2, 0x8000
 bb8:	0000                	unimp
 bba:	0000                	unimp
 bbc:	005e                	c.slli	zero,0x17
 bbe:	0000                	unimp
 bc0:	0000                	unimp
 bc2:	0000                	unimp
 bc4:	9c01                	subw	s0,s0,s0
 bc6:	01e6                	slli	gp,gp,0x19
 bc8:	0000                	unimp
 bca:	6401                	.insn	2, 0x6401
 bcc:	47007473          	csrrci	s0,0x470,0
 bd0:	a60e                	fsd	ft3,264(sp)
 bd2:	0000                	unimp
 bd4:	0200                	addi	s0,sp,256
 bd6:	5891                	li	a7,-28
 bd8:	6301                	.insn	2, 0x6301
 bda:	4700                	lw	s0,8(a4)
 bdc:	00004817          	auipc	a6,0x4
 be0:	0200                	addi	s0,sp,256
 be2:	5491                	li	s1,-28
 be4:	6e01                	.insn	2, 0x6e01
 be6:	4700                	lw	s0,8(a4)
 be8:	3521                	addiw	a0,a0,-24
 bea:	0000                	unimp
 bec:	0200                	addi	s0,sp,256
 bee:	4891                	li	a7,4
 bf0:	c506                	sw	ra,136(sp)
 bf2:	0002                	c.slli64	zero
 bf4:	4900                	lw	s0,16(a0)
 bf6:	0120                	addi	s0,sp,136
 bf8:	0000                	unimp
 bfa:	9102                	jalr	sp
 bfc:	0260                	addi	s0,sp,268
 bfe:	0069                	c.nop	26
 c00:	0d4a                	slli	s10,s10,0x12
 c02:	0048                	addi	a0,sp,4
 c04:	0000                	unimp
 c06:	9102                	jalr	sp
 c08:	006c                	addi	a1,sp,12
 c0a:	0001a603          	lw	a2,0(gp) # 800030f0 <__global_pointer$>
 c0e:	3b00                	fld	fs0,48(a4)
 c10:	0048                	addi	a0,sp,4
 c12:	0000                	unimp
 c14:	1312                	slli	t1,t1,0x24
 c16:	8000                	.insn	2, 0x8000
 c18:	0000                	unimp
 c1a:	0000                	unimp
 c1c:	00b0                	addi	a2,sp,72
 c1e:	0000                	unimp
 c20:	0000                	unimp
 c22:	0000                	unimp
 c24:	9c01                	subw	s0,s0,s0
 c26:	022d                	addi	tp,tp,11 # b <_start-0x7ffffff5>
 c28:	0000                	unimp
 c2a:	7301                	lui	t1,0xfffe0
 c2c:	0031                	c.nop	12
 c2e:	010f143b          	sllw	s0,t5,a6
 c32:	0000                	unimp
 c34:	9102                	jalr	sp
 c36:	0158                	addi	a4,sp,132
 c38:	3b003273          	csrrc	tp,pmpaddr0,zero
 c3c:	0f24                	addi	s1,sp,920
 c3e:	0001                	nop
 c40:	0200                	addi	s0,sp,256
 c42:	5091                	li	ra,-28
 c44:	6902                	ld	s2,0(sp)
 c46:	3d00                	fld	fs0,56(a0)
 c48:	4809                	li	a6,2
 c4a:	0000                	unimp
 c4c:	0200                	addi	s0,sp,256
 c4e:	6c91                	lui	s9,0x4
 c50:	0700                	addi	s0,sp,896
 c52:	02be                	slli	t0,t0,0xf
 c54:	0000                	unimp
 c56:	0001202f          	amoadd.w	zero,zero,(sp)
 c5a:	8400                	.insn	2, 0x8400
 c5c:	0012                	c.slli	zero,0x4
 c5e:	0080                	addi	s0,sp,64
 c60:	0000                	unimp
 c62:	8e00                	.insn	2, 0x8e00
 c64:	0000                	unimp
 c66:	0000                	unimp
 c68:	0000                	unimp
 c6a:	0100                	addi	s0,sp,128
 c6c:	849c                	.insn	2, 0x849c
 c6e:	0002                	c.slli64	zero
 c70:	0100                	addi	s0,sp,128
 c72:	7364                	ld	s1,224(a4)
 c74:	0074                	addi	a3,sp,12
 c76:	01200e2f          	.insn	4, 0x01200e2f
 c7a:	0000                	unimp
 c7c:	9102                	jalr	sp
 c7e:	0158                	addi	a4,sp,132
 c80:	00637273          	csrrci	tp,0x6,6
 c84:	010f1f2f          	.insn	4, 0x010f1f2f
 c88:	0000                	unimp
 c8a:	9102                	jalr	sp
 c8c:	0250                	addi	a2,sp,260
 c8e:	656c                	ld	a1,200(a0)
 c90:	006e                	c.slli	zero,0x1b
 c92:	0931                	addi	s2,s2,12 # 100c <_start-0x7fffeff4>
 c94:	0048                	addi	a0,sp,4
 c96:	0000                	unimp
 c98:	9102                	jalr	sp
 c9a:	0268                	addi	a0,sp,268
 c9c:	0069                	c.nop	26
 c9e:	1c31                	addi	s8,s8,-20
 ca0:	0048                	addi	a0,sp,4
 ca2:	0000                	unimp
 ca4:	9102                	jalr	sp
 ca6:	006c                	addi	a1,sp,12
 ca8:	0001d203          	lhu	tp,0(gp) # 800030f0 <__global_pointer$>
 cac:	2500                	fld	fs0,8(a0)
 cae:	0048                	addi	a0,sp,4
 cb0:	0000                	unimp
 cb2:	11fc                	addi	a5,sp,236
 cb4:	8000                	.insn	2, 0x8000
 cb6:	0000                	unimp
 cb8:	0000                	unimp
 cba:	0088                	addi	a0,sp,64
 cbc:	0000                	unimp
 cbe:	0000                	unimp
 cc0:	0000                	unimp
 cc2:	9c01                	subw	s0,s0,s0
 cc4:	000002cb          	fnmsub.s	ft5,ft0,ft0,ft0,rne
 cc8:	7301                	lui	t1,0xfffe0
 cca:	0031                	c.nop	12
 ccc:	1525                	addi	a0,a0,-23
 cce:	0000010f          	.insn	4, 0x010f
 cd2:	9102                	jalr	sp
 cd4:	0168                	addi	a0,sp,140
 cd6:	25003273          	csrrc	tp,vsiselect,zero
 cda:	0f25                	addi	t5,t5,9
 cdc:	0001                	nop
 cde:	0200                	addi	s0,sp,256
 ce0:	6091                	lui	ra,0x4
 ce2:	6e01                	.insn	2, 0x6e01
 ce4:	2500                	fld	fs0,8(a0)
 ce6:	3530                	fld	fa2,104(a0)
 ce8:	0000                	unimp
 cea:	0200                	addi	s0,sp,256
 cec:	5891                	li	a7,-28
 cee:	0300                	addi	s0,sp,384
 cf0:	0180                	addi	s0,sp,192
 cf2:	0000                	unimp
 cf4:	201a                	fld	ft0,384(sp)
 cf6:	0001                	nop
 cf8:	a200                	fsd	fs0,0(a2)
 cfa:	0011                	c.nop	4
 cfc:	0080                	addi	s0,sp,64
 cfe:	0000                	unimp
 d00:	5a00                	lw	s0,48(a2)
 d02:	0000                	unimp
 d04:	0000                	unimp
 d06:	0000                	unimp
 d08:	0100                	addi	s0,sp,128
 d0a:	159c                	addi	a5,sp,736
 d0c:	01000003          	lb	zero,16(zero) # 10 <_start-0x7ffffff0>
 d10:	7364                	ld	s1,224(a4)
 d12:	0074                	addi	a3,sp,12
 d14:	0e1a                	slli	t3,t3,0x6
 d16:	0120                	addi	s0,sp,136
 d18:	0000                	unimp
 d1a:	9102                	jalr	sp
 d1c:	0158                	addi	a4,sp,132
 d1e:	00637273          	csrrci	tp,0x6,6
 d22:	1f1a                	slli	t5,t5,0x26
 d24:	0000010f          	.insn	4, 0x010f
 d28:	9102                	jalr	sp
 d2a:	0650                	addi	a2,sp,772
 d2c:	000002b3          	add	t0,zero,zero
 d30:	201c                	fld	fa5,0(s0)
 d32:	0001                	nop
 d34:	0200                	addi	s0,sp,256
 d36:	6891                	lui	a7,0x4
 d38:	0300                	addi	s0,sp,384
 d3a:	019e                	slli	gp,gp,0x7
 d3c:	0000                	unimp
 d3e:	200e                	fld	ft0,192(sp)
 d40:	0001                	nop
 d42:	3200                	fld	fs0,32(a2)
 d44:	0011                	c.nop	4
 d46:	0080                	addi	s0,sp,64
 d48:	0000                	unimp
 d4a:	7000                	ld	s0,32(s0)
 d4c:	0000                	unimp
 d4e:	0000                	unimp
 d50:	0000                	unimp
 d52:	0100                	addi	s0,sp,128
 d54:	6b9c                	ld	a5,16(a5)
 d56:	01000003          	lb	zero,16(zero) # 10 <_start-0x7ffffff0>
 d5a:	7364                	ld	s1,224(a4)
 d5c:	0074                	addi	a3,sp,12
 d5e:	0f0e                	slli	t5,t5,0x3
 d60:	0120                	addi	s0,sp,136
 d62:	0000                	unimp
 d64:	9102                	jalr	sp
 d66:	0158                	addi	a4,sp,132
 d68:	00637273          	csrrci	tp,0x6,6
 d6c:	200e                	fld	ft0,192(sp)
 d6e:	0000010f          	.insn	4, 0x010f
 d72:	9102                	jalr	sp
 d74:	0150                	addi	a2,sp,132
 d76:	006e                	c.slli	zero,0x1b
 d78:	2c0e                	fld	fs8,192(sp)
 d7a:	0035                	c.nop	13
 d7c:	0000                	unimp
 d7e:	9102                	jalr	sp
 d80:	0648                	addi	a0,sp,772
 d82:	000002b3          	add	t0,zero,zero
 d86:	2010                	fld	fa2,0(s0)
 d88:	0001                	nop
 d8a:	0200                	addi	s0,sp,256
 d8c:	6891                	lui	a7,0x4
 d8e:	0e00                	addi	s0,sp,784
 d90:	0000026f          	jal	tp,d90 <_start-0x7ffff270>
 d94:	0401                	addi	s0,s0,0
 d96:	3501                	addiw	a0,a0,-32
 d98:	0000                	unimp
 d9a:	f800                	sd	s0,48(s0)
 d9c:	0010                	.insn	2, 0x0010
 d9e:	0080                	addi	s0,sp,64
 da0:	0000                	unimp
 da2:	3a00                	fld	fs0,48(a2)
 da4:	0000                	unimp
 da6:	0000                	unimp
 da8:	0000                	unimp
 daa:	0100                	addi	s0,sp,128
 dac:	019c                	addi	a5,sp,192
 dae:	14040073          	.insn	4, 0x14040073
 db2:	0000010f          	.insn	4, 0x010f
 db6:	9102                	jalr	sp
 db8:	0258                	addi	a4,sp,260
 dba:	0069                	c.nop	26
 dbc:	0906                	slli	s2,s2,0x1
 dbe:	0048                	addi	a0,sp,4
 dc0:	0000                	unimp
 dc2:	9102                	jalr	sp
 dc4:	006c                	addi	a1,sp,12
	...

Disassembly of section .debug_abbrev:

0000000000000000 <.debug_abbrev>:
   0:	1101                	addi	sp,sp,-32
   2:	1000                	addi	s0,sp,32
   4:	12011117          	auipc	sp,0x12011
   8:	1b0e030f          	.insn	4, 0x1b0e030f
   c:	250e                	fld	fa0,192(sp)
   e:	130e                	slli	t1,t1,0x23
  10:	0005                	c.nop	1
  12:	0000                	unimp
  14:	2401                	sext.w	s0,s0
  16:	0b00                	addi	s0,sp,400
  18:	030b3e0b          	.insn	4, 0x030b3e0b
  1c:	000e                	c.slli	zero,0x3
  1e:	0200                	addi	s0,sp,256
  20:	0111                	addi	sp,sp,4 # 12011008 <_start-0x6dfeeff8>
  22:	0e25                	addi	t3,t3,9 # 19009 <_start-0x7ffe6ff7>
  24:	1f030b13          	addi	s6,t1,496 # fffffffffffe01f0 <__BSS_END__+0xffffffff7ffdc1f0>
  28:	01111f1b          	slliw	t5,sp,0x11
  2c:	0712                	slli	a4,a4,0x4
  2e:	1710                	addi	a2,sp,928
  30:	0000                	unimp
  32:	03001603          	lh	a2,48(zero) # 30 <_start-0x7fffffd0>
  36:	3a0e                	fld	fs4,224(sp)
  38:	390b3b0b          	.insn	4, 0x390b3b0b
  3c:	0013490b          	.insn	4, 0x0013490b
  40:	0400                	addi	s0,sp,512
  42:	012e                	slli	sp,sp,0xb
  44:	0e03193f 0b3b0b3a 	.insn	8, 0x0b3b0b3a0e03193f
  4c:	0b39                	addi	s6,s6,14
  4e:	13491927          	.insn	4, 0x13491927
  52:	0111                	addi	sp,sp,4
  54:	0712                	slli	a4,a4,0x4
  56:	1840                	addi	s0,sp,52
  58:	197a                	slli	s2,s2,0x3e
  5a:	1301                	addi	t1,t1,-32
  5c:	0000                	unimp
  5e:	0505                	addi	a0,a0,1
  60:	0300                	addi	s0,sp,384
  62:	3a08                	fld	fa0,48(a2)
  64:	390b3b0b          	.insn	4, 0x390b3b0b
  68:	0213490b          	.insn	4, 0x0213490b
  6c:	0018                	.insn	2, 0x0018
  6e:	0600                	addi	s0,sp,768
  70:	002e                	c.slli	zero,0xb
  72:	0e03193f 0b3b0b3a 	.insn	8, 0x0b3b0b3a0e03193f
  7a:	0b39                	addi	s6,s6,14
  7c:	0111                	addi	sp,sp,4
  7e:	0712                	slli	a4,a4,0x4
  80:	1840                	addi	s0,sp,52
  82:	197a                	slli	s2,s2,0x3e
  84:	0000                	unimp
  86:	0100                	addi	s0,sp,128
  88:	0005                	c.nop	1
  8a:	1349                	addi	t1,t1,-14
  8c:	0000                	unimp
  8e:	2e02                	fld	ft8,0(sp)
  90:	3f01                	addiw	t5,t5,-32
  92:	0319                	addi	t1,t1,6
  94:	3a0e                	fld	fs4,224(sp)
  96:	0221                	addi	tp,tp,8 # 8 <_start-0x7ffffff8>
  98:	21390b3b          	.insn	4, 0x21390b3b
  9c:	2711                	addiw	a4,a4,4 # 257fc <_start-0x7ffda804>
  9e:	4919                	li	s2,6
  a0:	01193c13          	sltiu	s8,s2,17
  a4:	03000013          	li	zero,48
  a8:	0034                	addi	a3,sp,8
  aa:	213a0803          	lb	a6,531(s4)
  ae:	3b01                	addiw	s6,s6,-32
  b0:	0a21390b          	.insn	4, 0x0a21390b
  b4:	1349                	addi	t1,t1,-14
  b6:	1802                	slli	a6,a6,0x20
  b8:	0000                	unimp
  ba:	0104                	addi	s1,sp,128
  bc:	4901                	li	s2,0
  be:	00130113          	addi	sp,t1,1
  c2:	0500                	addi	s0,sp,640
  c4:	0021                	c.nop	8
  c6:	1349                	addi	t1,t1,-14
  c8:	00000b2f          	.insn	4, 0x0b2f
  cc:	3406                	fld	fs0,96(sp)
  ce:	0300                	addi	s0,sp,384
  d0:	3a0e                	fld	fs4,224(sp)
  d2:	0121                	addi	sp,sp,8
  d4:	21390b3b          	.insn	4, 0x21390b3b
  d8:	490a                	lw	s2,128(sp)
  da:	00180213          	addi	tp,a6,1 # 4bdd <_start-0x7fffb423>
  de:	0700                	addi	s0,sp,896
  e0:	012e                	slli	sp,sp,0xb
  e2:	213a0e03          	lb	t3,531(s4)
  e6:	3b01                	addiw	s6,s6,-32
  e8:	0121390b          	.insn	4, 0x0121390b
  ec:	0111                	addi	sp,sp,4
  ee:	0712                	slli	a4,a4,0x4
  f0:	1840                	addi	s0,sp,52
  f2:	197c                	addi	a5,sp,188
  f4:	1301                	addi	t1,t1,-32
  f6:	0000                	unimp
  f8:	3408                	fld	fa0,40(s0)
  fa:	0300                	addi	s0,sp,384
  fc:	490e                	lw	s2,192(sp)
  fe:	02193413          	sltiu	s0,s2,33
 102:	0018                	.insn	2, 0x0018
 104:	0900                	addi	s0,sp,144
 106:	0024                	addi	s1,sp,8
 108:	0b3e0b0b          	.insn	4, 0x0b3e0b0b
 10c:	00000e03          	lb	t3,0(zero) # 0 <_start-0x80000000>
 110:	0f0a                	slli	t5,t5,0x2
 112:	0b00                	addi	s0,sp,400
 114:	0821                	addi	a6,a6,8
 116:	1349                	addi	t1,t1,-14
 118:	0000                	unimp
 11a:	4900260b          	.insn	4, 0x4900260b
 11e:	0c000013          	li	zero,192
 122:	002e                	c.slli	zero,0xb
 124:	0e03193f 3b01213a 	.insn	8, 0x3b01213a0e03193f
 12c:	0121390b          	.insn	4, 0x0121390b
 130:	0111                	addi	sp,sp,4
 132:	0712                	slli	a4,a4,0x4
 134:	1840                	addi	s0,sp,52
 136:	197c                	addi	a5,sp,188
 138:	0000                	unimp
 13a:	110d                	addi	sp,sp,-29
 13c:	2501                	sext.w	a0,a0
 13e:	130e                	slli	t1,t1,0x23
 140:	1b1f030b          	.insn	4, 0x1b1f030b
 144:	111f 1201 1007      	.insn	6, 0x10071201111f
 14a:	0e000017          	auipc	zero,0xe000
 14e:	0024                	addi	s1,sp,8
 150:	0b3e0b0b          	.insn	4, 0x0b3e0b0b
 154:	00000803          	lb	a6,0(zero) # 0 <_start-0x80000000>
 158:	0b000f0f          	.insn	4, 0x0b000f0f
 15c:	1000000b          	.insn	4, 0x1000000b
 160:	0026                	c.slli	zero,0x9
 162:	0000                	unimp
 164:	1811                	addi	a6,a6,-28
 166:	0000                	unimp
 168:	1200                	addi	s0,sp,288
 16a:	012e                	slli	sp,sp,0xb
 16c:	0b3a0e03          	lb	t3,179(s4)
 170:	0b390b3b          	.insn	4, 0x0b390b3b
 174:	0111                	addi	sp,sp,4
 176:	0712                	slli	a4,a4,0x4
 178:	1840                	addi	s0,sp,52
 17a:	197a                	slli	s2,s2,0x3e
 17c:	1301                	addi	t1,t1,-32
 17e:	0000                	unimp
 180:	03003413          	sltiu	s0,zero,48
 184:	490e                	lw	s2,192(sp)
 186:	00193413          	seqz	s0,s2
 18a:	0000                	unimp
 18c:	2401                	sext.w	s0,s0
 18e:	0b00                	addi	s0,sp,400
 190:	030b3e0b          	.insn	4, 0x030b3e0b
 194:	000e                	c.slli	zero,0x3
 196:	0200                	addi	s0,sp,256
 198:	012e                	slli	sp,sp,0xb
 19a:	0e03193f 3b02213a 	.insn	8, 0x3b02213a0e03193f
 1a2:	0d21390b          	.insn	4, 0x0d21390b
 1a6:	193c                	addi	a5,sp,184
 1a8:	1301                	addi	t1,t1,-32
 1aa:	0000                	unimp
 1ac:	00001803          	lh	a6,0(zero) # 0 <_start-0x80000000>
 1b0:	0400                	addi	s0,sp,512
 1b2:	0111                	addi	sp,sp,4
 1b4:	0e25                	addi	t3,t3,9
 1b6:	1f030b13          	addi	s6,t1,496
 1ba:	01111f1b          	slliw	t5,sp,0x11
 1be:	0712                	slli	a4,a4,0x4
 1c0:	1710                	addi	a2,sp,928
 1c2:	0000                	unimp
 1c4:	2405                	addiw	s0,s0,1
 1c6:	0b00                	addi	s0,sp,400
 1c8:	030b3e0b          	.insn	4, 0x030b3e0b
 1cc:	0008                	.insn	2, 0x0008
 1ce:	0600                	addi	s0,sp,768
 1d0:	0101                	addi	sp,sp,0
 1d2:	1349                	addi	t1,t1,-14
 1d4:	1301                	addi	t1,t1,-32
 1d6:	0000                	unimp
 1d8:	49002107          	flw	ft2,1168(zero) # 490 <_start-0x7ffffb70>
 1dc:	00052f13          	slti	t5,a0,0
 1e0:	0800                	addi	s0,sp,16
 1e2:	0034                	addi	a3,sp,8
 1e4:	0b3a0e03          	lb	t3,179(s4)
 1e8:	0b390b3b          	.insn	4, 0x0b390b3b
 1ec:	1349                	addi	t1,t1,-14
 1ee:	0188193f 00180205 	.insn	8, 0x001802050188193f
 1f6:	0900                	addi	s0,sp,144
 1f8:	0034                	addi	a3,sp,8
 1fa:	0b3a0e03          	lb	t3,179(s4)
 1fe:	0b390b3b          	.insn	4, 0x0b390b3b
 202:	1349                	addi	t1,t1,-14
 204:	1802193f 0f0a0000 	.insn	8, 0x0f0a00001802193f
 20c:	0b00                	addi	s0,sp,400
 20e:	0013490b          	.insn	4, 0x0013490b
 212:	0b00                	addi	s0,sp,400
 214:	012e                	slli	sp,sp,0xb
 216:	0e03193f 0b3b0b3a 	.insn	8, 0x0b3b0b3a0e03193f
 21e:	0b39                	addi	s6,s6,14
 220:	13491927          	.insn	4, 0x13491927
 224:	193c                	addi	a5,sp,184
 226:	1301                	addi	t1,t1,-32
 228:	0000                	unimp
 22a:	050c                	addi	a1,sp,640
 22c:	4900                	lw	s0,16(a0)
 22e:	0d000013          	li	zero,208
 232:	002e                	c.slli	zero,0xb
 234:	0e03193f 0b3b0b3a 	.insn	8, 0x0b3b0b3a0e03193f
 23c:	0b39                	addi	s6,s6,14
 23e:	193c1927          	.insn	4, 0x193c1927
 242:	0000                	unimp
 244:	2e0e                	fld	ft8,192(sp)
 246:	3f00                	fld	fs0,56(a4)
 248:	0319                	addi	t1,t1,6
 24a:	3a0e                	fld	fs4,224(sp)
 24c:	390b3b0b          	.insn	4, 0x390b3b0b
 250:	1113490b          	.insn	4, 0x1113490b
 254:	1201                	addi	tp,tp,-32 # ffffffffffffffe0 <__BSS_END__+0xffffffff7fffbfe0>
 256:	7c184007          	.insn	4, 0x7c184007
 25a:	0019                	c.nop	6
 25c:	0000                	unimp
 25e:	3401                	addiw	s0,s0,-32
 260:	0300                	addi	s0,sp,384
 262:	3a08                	fld	fa0,48(a2)
 264:	0121                	addi	sp,sp,8
 266:	0b390b3b          	.insn	4, 0x0b390b3b
 26a:	1349                	addi	t1,t1,-14
 26c:	1802                	slli	a6,a6,0x20
 26e:	0000                	unimp
 270:	3402                	fld	fs0,32(sp)
 272:	0300                	addi	s0,sp,384
 274:	3a0e                	fld	fs4,224(sp)
 276:	0121                	addi	sp,sp,8
 278:	0b390b3b          	.insn	4, 0x0b390b3b
 27c:	1349                	addi	t1,t1,-14
 27e:	1802                	slli	a6,a6,0x20
 280:	0000                	unimp
 282:	03000503          	lb	a0,48(zero) # 30 <_start-0x7fffffd0>
 286:	3a08                	fld	fa0,48(a2)
 288:	0121                	addi	sp,sp,8
 28a:	0b390b3b          	.insn	4, 0x0b390b3b
 28e:	1349                	addi	t1,t1,-14
 290:	1802                	slli	a6,a6,0x20
 292:	0000                	unimp
 294:	2404                	fld	fs1,8(s0)
 296:	0b00                	addi	s0,sp,400
 298:	030b3e0b          	.insn	4, 0x030b3e0b
 29c:	000e                	c.slli	zero,0x3
 29e:	0500                	addi	s0,sp,640
 2a0:	0111010b          	.insn	4, 0x0111010b
 2a4:	0712                	slli	a4,a4,0x4
 2a6:	0000                	unimp
 2a8:	1606                	slli	a2,a2,0x21
 2aa:	0300                	addi	s0,sp,384
 2ac:	3a0e                	fld	fs4,224(sp)
 2ae:	390b3b0b          	.insn	4, 0x390b3b0b
 2b2:	0013490b          	.insn	4, 0x0013490b
 2b6:	0700                	addi	s0,sp,896
 2b8:	210b000f          	.insn	4, 0x210b000f
 2bc:	4908                	lw	a0,16(a0)
 2be:	08000013          	li	zero,128
 2c2:	0005                	c.nop	1
 2c4:	213a0e03          	lb	t3,531(s4)
 2c8:	3b01                	addiw	s6,s6,-32
 2ca:	2b21                	addiw	s6,s6,8
 2cc:	0b39                	addi	s6,s6,14
 2ce:	1349                	addi	t1,t1,-14
 2d0:	1802                	slli	a6,a6,0x20
 2d2:	0000                	unimp
 2d4:	2e09                	addiw	t3,t3,2
 2d6:	3f01                	addiw	t5,t5,-32
 2d8:	0319                	addi	t1,t1,6
 2da:	3a0e                	fld	fs4,224(sp)
 2dc:	0421                	addi	s0,s0,8
 2de:	21390b3b          	.insn	4, 0x21390b3b
 2e2:	2711                	addiw	a4,a4,4
 2e4:	4919                	li	s2,6
 2e6:	01193c13          	sltiu	s8,s2,17
 2ea:	0a000013          	li	zero,160
 2ee:	0005                	c.nop	1
 2f0:	1349                	addi	t1,t1,-14
 2f2:	0000                	unimp
 2f4:	3f012e0b          	.insn	4, 0x3f012e0b
 2f8:	0319                	addi	t1,t1,6
 2fa:	3a0e                	fld	fs4,224(sp)
 2fc:	0121                	addi	sp,sp,8
 2fe:	21390b3b          	.insn	4, 0x21390b3b
 302:	2701                	sext.w	a4,a4
 304:	4919                	li	s2,6
 306:	12011113          	.insn	4, 0x12011113
 30a:	7c184007          	.insn	4, 0x7c184007
 30e:	0119                	addi	sp,sp,6
 310:	0c000013          	li	zero,192
 314:	0101                	addi	sp,sp,0
 316:	1349                	addi	t1,t1,-14
 318:	1301                	addi	t1,t1,-32
 31a:	0000                	unimp
 31c:	2e0d                	addiw	t3,t3,3
 31e:	0301                	addi	t1,t1,0
 320:	3a0e                	fld	fs4,224(sp)
 322:	0121                	addi	sp,sp,8
 324:	21390b3b          	.insn	4, 0x21390b3b
 328:	2701                	sext.w	a4,a4
 32a:	4919                	li	s2,6
 32c:	12011113          	.insn	4, 0x12011113
 330:	7a184007          	.insn	4, 0x7a184007
 334:	0119                	addi	sp,sp,6
 336:	0e000013          	li	zero,224
 33a:	0111                	addi	sp,sp,4
 33c:	0e25                	addi	t3,t3,9
 33e:	1f030b13          	addi	s6,t1,496
 342:	01111f1b          	slliw	t5,sp,0x11
 346:	0712                	slli	a4,a4,0x4
 348:	1710                	addi	a2,sp,928
 34a:	0000                	unimp
 34c:	0b00240f          	.insn	4, 0x0b00240f
 350:	030b3e0b          	.insn	4, 0x030b3e0b
 354:	0008                	.insn	2, 0x0008
 356:	1000                	addi	s0,sp,32
 358:	0b0b000f          	.insn	4, 0x0b0b000f
 35c:	00000e03          	lb	t3,0(zero) # 0 <_start-0x80000000>
 360:	2611                	addiw	a2,a2,4
 362:	4900                	lw	s0,16(a0)
 364:	12000013          	li	zero,288
 368:	012e                	slli	sp,sp,0xb
 36a:	0e03193f 053b0b3a 	.insn	8, 0x053b0b3a0e03193f
 372:	0b39                	addi	s6,s6,14
 374:	13491927          	.insn	4, 0x13491927
 378:	0111                	addi	sp,sp,4
 37a:	0712                	slli	a4,a4,0x4
 37c:	1840                	addi	s0,sp,52
 37e:	197c                	addi	a5,sp,188
 380:	1301                	addi	t1,t1,-32
 382:	0000                	unimp
 384:	03000513          	li	a0,48
 388:	3a08                	fld	fa0,48(a2)
 38a:	39053b0b          	.insn	4, 0x39053b0b
 38e:	0213490b          	.insn	4, 0x0213490b
 392:	0018                	.insn	2, 0x0018
 394:	1400                	addi	s0,sp,544
 396:	0034                	addi	a3,sp,8
 398:	0b3a0803          	lb	a6,179(s4)
 39c:	0b39053b          	.insn	4, 0x0b39053b
 3a0:	1349                	addi	t1,t1,-14
 3a2:	1802                	slli	a6,a6,0x20
 3a4:	0000                	unimp
 3a6:	1815                	addi	a6,a6,-27
 3a8:	0000                	unimp
 3aa:	1600                	addi	s0,sp,800
 3ac:	0021                	c.nop	8
 3ae:	1349                	addi	t1,t1,-14
 3b0:	0000052f          	.insn	4, 0x052f
 3b4:	03000a17          	auipc	s4,0x3000
 3b8:	3a0e                	fld	fs4,224(sp)
 3ba:	390b3b0b          	.insn	4, 0x390b3b0b
 3be:	0001110b          	.insn	4, 0x0001110b
 3c2:	1800                	addi	s0,sp,48
 3c4:	0021                	c.nop	8
 3c6:	1349                	addi	t1,t1,-14
 3c8:	00000b2f          	.insn	4, 0x0b2f
 3cc:	2e19                	addiw	t3,t3,6
 3ce:	0301                	addi	t1,t1,0
 3d0:	3a0e                	fld	fs4,224(sp)
 3d2:	390b3b0b          	.insn	4, 0x390b3b0b
 3d6:	1119270b          	.insn	4, 0x1119270b
 3da:	1201                	addi	tp,tp,-32 # ffffffffffffffe0 <__BSS_END__+0xffffffff7fffbfe0>
 3dc:	7c184007          	.insn	4, 0x7c184007
 3e0:	0119                	addi	sp,sp,6
 3e2:	00000013          	nop
 3e6:	0501                	addi	a0,a0,0
 3e8:	0300                	addi	s0,sp,384
 3ea:	3a08                	fld	fa0,48(a2)
 3ec:	0121                	addi	sp,sp,8
 3ee:	0b390b3b          	.insn	4, 0x0b390b3b
 3f2:	1349                	addi	t1,t1,-14
 3f4:	1802                	slli	a6,a6,0x20
 3f6:	0000                	unimp
 3f8:	3402                	fld	fs0,32(sp)
 3fa:	0300                	addi	s0,sp,384
 3fc:	3a08                	fld	fa0,48(a2)
 3fe:	0121                	addi	sp,sp,8
 400:	0b390b3b          	.insn	4, 0x0b390b3b
 404:	1349                	addi	t1,t1,-14
 406:	1802                	slli	a6,a6,0x20
 408:	0000                	unimp
 40a:	3f012e03          	lw	t3,1008(sp)
 40e:	0319                	addi	t1,t1,6
 410:	3a0e                	fld	fs4,224(sp)
 412:	0121                	addi	sp,sp,8
 414:	21390b3b          	.insn	4, 0x21390b3b
 418:	2701                	sext.w	a4,a4
 41a:	4919                	li	s2,6
 41c:	12011113          	.insn	4, 0x12011113
 420:	7a184007          	.insn	4, 0x7a184007
 424:	0119                	addi	sp,sp,6
 426:	04000013          	li	zero,64
 42a:	0024                	addi	s1,sp,8
 42c:	0b3e0b0b          	.insn	4, 0x0b3e0b0b
 430:	00000e03          	lb	t3,0(zero) # 0 <_start-0x80000000>
 434:	0f05                	addi	t5,t5,1
 436:	0b00                	addi	s0,sp,400
 438:	0821                	addi	a6,a6,8
 43a:	1349                	addi	t1,t1,-14
 43c:	0000                	unimp
 43e:	3406                	fld	fs0,96(sp)
 440:	0300                	addi	s0,sp,384
 442:	3a0e                	fld	fs4,224(sp)
 444:	0121                	addi	sp,sp,8
 446:	21390b3b          	.insn	4, 0x21390b3b
 44a:	0213490b          	.insn	4, 0x0213490b
 44e:	0018                	.insn	2, 0x0018
 450:	0700                	addi	s0,sp,896
 452:	012e                	slli	sp,sp,0xb
 454:	0e03193f 3b01213a 	.insn	8, 0x3b01213a0e03193f
 45c:	0121390b          	.insn	4, 0x0121390b
 460:	13491927          	.insn	4, 0x13491927
 464:	0111                	addi	sp,sp,4
 466:	0712                	slli	a4,a4,0x4
 468:	1840                	addi	s0,sp,52
 46a:	197c                	addi	a5,sp,188
 46c:	1301                	addi	t1,t1,-32
 46e:	0000                	unimp
 470:	1108                	addi	a0,sp,160
 472:	2501                	sext.w	a0,a0
 474:	130e                	slli	t1,t1,0x23
 476:	1b1f030b          	.insn	4, 0x1b1f030b
 47a:	111f 1201 1007      	.insn	6, 0x10071201111f
 480:	09000017          	auipc	zero,0x9000
 484:	0016                	c.slli	zero,0x5
 486:	0b3a0e03          	lb	t3,179(s4) # 3000467 <_start-0x7cfffb99>
 48a:	0b390b3b          	.insn	4, 0x0b390b3b
 48e:	1349                	addi	t1,t1,-14
 490:	0000                	unimp
 492:	240a                	fld	fs0,128(sp)
 494:	0b00                	addi	s0,sp,400
 496:	030b3e0b          	.insn	4, 0x030b3e0b
 49a:	0008                	.insn	2, 0x0008
 49c:	0b00                	addi	s0,sp,400
 49e:	0b0b000f          	.insn	4, 0x0b0b000f
 4a2:	0000                	unimp
 4a4:	260c                	fld	fa1,8(a2)
 4a6:	0000                	unimp
 4a8:	0d00                	addi	s0,sp,656
 4aa:	0026                	c.slli	zero,0x9
 4ac:	1349                	addi	t1,t1,-14
 4ae:	0000                	unimp
 4b0:	2e0e                	fld	ft8,192(sp)
 4b2:	3f01                	addiw	t5,t5,-32
 4b4:	0319                	addi	t1,t1,6
 4b6:	3a0e                	fld	fs4,224(sp)
 4b8:	390b3b0b          	.insn	4, 0x390b3b0b
 4bc:	4919270b          	.insn	4, 0x4919270b
 4c0:	12011113          	.insn	4, 0x12011113
 4c4:	7a184007          	.insn	4, 0x7a184007
 4c8:	0019                	c.nop	6
	...

Disassembly of section .debug_line:

0000000000000000 <.debug_line>:
       0:	00ae                	slli	ra,ra,0xb
       2:	0000                	unimp
       4:	0005                	c.nop	1
       6:	0008                	.insn	2, 0x0008
       8:	002e                	c.slli	zero,0xb
       a:	0000                	unimp
       c:	0101                	addi	sp,sp,0
       e:	fb01                	bnez	a4,ffffffffffffff1e <__BSS_END__+0xffffffff7fffbf1e>
      10:	0d0e                	slli	s10,s10,0x3
      12:	0100                	addi	s0,sp,128
      14:	0101                	addi	sp,sp,0
      16:	0001                	nop
      18:	0000                	unimp
      1a:	0001                	nop
      1c:	0100                	addi	s0,sp,128
      1e:	0101                	addi	sp,sp,0
      20:	021f 0000 0000      	.insn	6, 0x021f
      26:	0021                	c.nop	8
      28:	0000                	unimp
      2a:	0102                	c.slli64	sp
      2c:	021f 020f 0028      	.insn	6, 0x0028020f021f
      32:	0000                	unimp
      34:	2801                	sext.w	a6,a6
      36:	0000                	unimp
      38:	0100                	addi	s0,sp,128
      3a:	0900                	addi	s0,sp,144
      3c:	0002                	c.slli64	zero
      3e:	0000                	unimp
      40:	0080                	addi	s0,sp,64
      42:	0000                	unimp
      44:	1800                	addi	s0,sp,48
      46:	08090303          	lb	t1,128(s2)
      4a:	0100                	addi	s0,sp,128
      4c:	04090403          	lb	s0,64(s2)
      50:	0100                	addi	s0,sp,128
      52:	02090103          	lb	sp,32(s2)
      56:	0100                	addi	s0,sp,128
      58:	04090103          	lb	sp,64(s2)
      5c:	0100                	addi	s0,sp,128
      5e:	02090103          	lb	sp,32(s2)
      62:	0100                	addi	s0,sp,128
      64:	04090303          	lb	t1,64(s2)
      68:	0100                	addi	s0,sp,128
      6a:	08090103          	lb	sp,128(s2)
      6e:	0100                	addi	s0,sp,128
      70:	04090303          	lb	t1,64(s2)
      74:	0100                	addi	s0,sp,128
      76:	04090303          	lb	t1,64(s2)
      7a:	0100                	addi	s0,sp,128
      7c:	04090103          	lb	sp,64(s2)
      80:	0100                	addi	s0,sp,128
      82:	04090103          	lb	sp,64(s2)
      86:	0100                	addi	s0,sp,128
      88:	04090303          	lb	t1,64(s2)
      8c:	0100                	addi	s0,sp,128
      8e:	04090103          	lb	sp,64(s2)
      92:	0100                	addi	s0,sp,128
      94:	04090503          	lb	a0,64(s2)
      98:	0100                	addi	s0,sp,128
      9a:	04090103          	lb	sp,64(s2)
      9e:	0100                	addi	s0,sp,128
      a0:	08090103          	lb	sp,128(s2)
      a4:	0100                	addi	s0,sp,128
      a6:	04090303          	lb	t1,64(s2)
      aa:	0100                	addi	s0,sp,128
      ac:	0409                	addi	s0,s0,2
      ae:	0000                	unimp
      b0:	0101                	addi	sp,sp,0
      b2:	000000bf 00080005 	.insn	8, 0x00080005000000bf
      ba:	00000037          	lui	zero,0x0
      be:	0101                	addi	sp,sp,0
      c0:	fb01                	bnez	a4,ffffffffffffffd0 <__BSS_END__+0xffffffff7fffbfd0>
      c2:	0d0e                	slli	s10,s10,0x3
      c4:	0100                	addi	s0,sp,128
      c6:	0101                	addi	sp,sp,0
      c8:	0001                	nop
      ca:	0000                	unimp
      cc:	0001                	nop
      ce:	0100                	addi	s0,sp,128
      d0:	0101                	addi	sp,sp,0
      d2:	031f 0000 0000      	.insn	6, 0x031f
      d8:	0046                	c.slli	zero,0x11
      da:	0000                	unimp
      dc:	0055                	c.nop	21
      de:	0000                	unimp
      e0:	0102                	c.slli64	sp
      e2:	021f 030f 003f      	.insn	6, 0x003f030f021f
      e8:	0000                	unimp
      ea:	3f01                	addiw	t5,t5,-32
      ec:	0000                	unimp
      ee:	0100                	addi	s0,sp,128
      f0:	0064                	addi	s1,sp,12
      f2:	0000                	unimp
      f4:	0502                	c.slli64	a0
      f6:	0001                	nop
      f8:	0209                	addi	tp,tp,2 # 2 <_start-0x7ffffffe>
      fa:	0050                	addi	a2,sp,4
      fc:	8000                	.insn	2, 0x8000
      fe:	0000                	unimp
     100:	0000                	unimp
     102:	05011803          	lh	a6,80(sp)
     106:	0305                	addi	t1,t1,1
     108:	0902                	c.slli64	s2
     10a:	0008                	.insn	2, 0x0008
     10c:	0301                	addi	t1,t1,0
     10e:	000a0903          	lb	s2,0(s4)
     112:	0301                	addi	t1,t1,0
     114:	0902                	c.slli64	s2
     116:	0020                	addi	s0,sp,8
     118:	0301                	addi	t1,t1,0
     11a:	0901                	addi	s2,s2,0
     11c:	000a                	c.slli	zero,0x2
     11e:	0301                	addi	t1,t1,0
     120:	0904                	addi	s1,sp,144
     122:	000a                	c.slli	zero,0x2
     124:	0501                	addi	a0,a0,0
     126:	0301                	addi	t1,t1,0
     128:	0904                	addi	s1,sp,144
     12a:	000c                	.insn	2, 0x000c
     12c:	0301                	addi	t1,t1,0
     12e:	0905                	addi	s2,s2,1
     130:	000a                	c.slli	zero,0x2
     132:	0501                	addi	a0,a0,0
     134:	0901030b          	.insn	4, 0x0901030b
     138:	000e                	c.slli	zero,0x3
     13a:	0501                	addi	a0,a0,0
     13c:	000d                	c.nop	3
     13e:	0402                	c.slli64	s0
     140:	0301                	addi	t1,t1,0
     142:	0900                	addi	s0,sp,144
     144:	0002                	c.slli64	zero
     146:	0501                	addi	a0,a0,0
     148:	0020                	addi	s0,sp,8
     14a:	0402                	c.slli64	s0
     14c:	0301                	addi	t1,t1,0
     14e:	0900                	addi	s0,sp,144
     150:	000e                	c.slli	zero,0x3
     152:	0501                	addi	a0,a0,0
     154:	0402002f          	.insn	4, 0x0402002f
     158:	0301                	addi	t1,t1,0
     15a:	0900                	addi	s0,sp,144
     15c:	0008                	.insn	2, 0x0008
     15e:	0501                	addi	a0,a0,0
     160:	030c                	addi	a1,sp,384
     162:	0902                	c.slli64	s2
     164:	0002                	c.slli64	zero
     166:	0501                	addi	a0,a0,0
     168:	0301                	addi	t1,t1,0
     16a:	0901                	addi	s2,s2,0
     16c:	000c                	.insn	2, 0x000c
     16e:	0901                	addi	s2,s2,0
     170:	000a                	c.slli	zero,0x2
     172:	0100                	addi	s0,sp,128
     174:	a301                	j	674 <_start-0x7ffff98c>
     176:	0002                	c.slli64	zero
     178:	0500                	addi	s0,sp,640
     17a:	0800                	addi	s0,sp,16
     17c:	3700                	fld	fs0,40(a4)
     17e:	0000                	unimp
     180:	0100                	addi	s0,sp,128
     182:	0101                	addi	sp,sp,0
     184:	000d0efb          	.insn	4, 0x000d0efb
     188:	0101                	addi	sp,sp,0
     18a:	0101                	addi	sp,sp,0
     18c:	0000                	unimp
     18e:	0100                	addi	s0,sp,128
     190:	0000                	unimp
     192:	0101                	addi	sp,sp,0
     194:	1f01                	addi	t5,t5,-32
     196:	00000003          	lb	zero,0(zero) # 0 <_start-0x80000000>
     19a:	8300                	.insn	2, 0x8300
     19c:	0000                	unimp
     19e:	5500                	lw	s0,40(a0)
     1a0:	0000                	unimp
     1a2:	0200                	addi	s0,sp,256
     1a4:	1f01                	addi	t5,t5,-32
     1a6:	0f02                	c.slli64	t5
     1a8:	00007903          	.insn	4, 0x7903
     1ac:	0100                	addi	s0,sp,128
     1ae:	0079                	c.nop	30
     1b0:	0000                	unimp
     1b2:	a101                	j	5b2 <_start-0x7ffffa4e>
     1b4:	0000                	unimp
     1b6:	0200                	addi	s0,sp,256
     1b8:	0105                	addi	sp,sp,1
     1ba:	0900                	addi	s0,sp,144
     1bc:	ea02                	sd	zero,272(sp)
     1be:	0000                	unimp
     1c0:	0080                	addi	s0,sp,64
     1c2:	0000                	unimp
     1c4:	1700                	addi	s0,sp,928
     1c6:	0505                	addi	a0,a0,1
     1c8:	08090103          	lb	sp,128(s2)
     1cc:	0100                	addi	s0,sp,128
     1ce:	14090103          	lb	sp,320(s2)
     1d2:	0100                	addi	s0,sp,128
     1d4:	18090103          	lb	sp,384(s2)
     1d8:	0100                	addi	s0,sp,128
     1da:	12090103          	lb	sp,288(s2)
     1de:	0100                	addi	s0,sp,128
     1e0:	12090103          	lb	sp,288(s2)
     1e4:	0100                	addi	s0,sp,128
     1e6:	0105                	addi	sp,sp,1
     1e8:	1c090103          	lb	sp,448(s2)
     1ec:	0100                	addi	s0,sp,128
     1ee:	0a090403          	lb	s0,160(s2)
     1f2:	0100                	addi	s0,sp,128
     1f4:	0a05                	addi	s4,s4,1
     1f6:	08090103          	lb	sp,128(s2)
     1fa:	0100                	addi	s0,sp,128
     1fc:	0505                	addi	a0,a0,1
     1fe:	14090303          	lb	t1,320(s2)
     202:	0100                	addi	s0,sp,128
     204:	10090103          	lb	sp,256(s2)
     208:	0100                	addi	s0,sp,128
     20a:	0200                	addi	s0,sp,256
     20c:	0104                	addi	s1,sp,128
     20e:	0306                	slli	t1,t1,0x1
     210:	0900                	addi	s0,sp,144
     212:	0012                	c.slli	zero,0x4
     214:	0601                	addi	a2,a2,0
     216:	20090303          	lb	t1,512(s2)
     21a:	0100                	addi	s0,sp,128
     21c:	10090103          	lb	sp,256(s2)
     220:	0100                	addi	s0,sp,128
     222:	0200                	addi	s0,sp,256
     224:	0104                	addi	s1,sp,128
     226:	0306                	slli	t1,t1,0x1
     228:	0900                	addi	s0,sp,144
     22a:	0014                	.insn	2, 0x0014
     22c:	0501                	addi	a0,a0,0
     22e:	0601                	addi	a2,a2,0
     230:	20090103          	lb	sp,512(s2)
     234:	0100                	addi	s0,sp,128
     236:	0a090403          	lb	s0,160(s2)
     23a:	0100                	addi	s0,sp,128
     23c:	0a05                	addi	s4,s4,1
     23e:	08090103          	lb	sp,128(s2)
     242:	0100                	addi	s0,sp,128
     244:	0505                	addi	a0,a0,1
     246:	14090303          	lb	t1,320(s2)
     24a:	0100                	addi	s0,sp,128
     24c:	0d05                	addi	s10,s10,1
     24e:	12090103          	lb	sp,288(s2)
     252:	0100                	addi	s0,sp,128
     254:	0505                	addi	a0,a0,1
     256:	04090103          	lb	sp,64(s2)
     25a:	0100                	addi	s0,sp,128
     25c:	0200                	addi	s0,sp,256
     25e:	0104                	addi	s1,sp,128
     260:	0306                	slli	t1,t1,0x1
     262:	0900                	addi	s0,sp,144
     264:	0014                	.insn	2, 0x0014
     266:	0601                	addi	a2,a2,0
     268:	22090303          	lb	t1,544(s2)
     26c:	0100                	addi	s0,sp,128
     26e:	12090103          	lb	sp,288(s2)
     272:	0100                	addi	s0,sp,128
     274:	0200                	addi	s0,sp,256
     276:	0104                	addi	s1,sp,128
     278:	0306                	slli	t1,t1,0x1
     27a:	0900                	addi	s0,sp,144
     27c:	0016                	c.slli	zero,0x5
     27e:	0501                	addi	a0,a0,0
     280:	0601                	addi	a2,a2,0
     282:	22090103          	lb	sp,544(s2)
     286:	0100                	addi	s0,sp,128
     288:	2305                	addiw	t1,t1,1
     28a:	0a090303          	lb	t1,160(s2)
     28e:	0100                	addi	s0,sp,128
     290:	0105                	addi	sp,sp,1
     292:	08090403          	lb	s0,128(s2)
     296:	0100                	addi	s0,sp,128
     298:	0a090403          	lb	s0,160(s2)
     29c:	0100                	addi	s0,sp,128
     29e:	0505                	addi	a0,a0,1
     2a0:	08090203          	lb	tp,128(s2)
     2a4:	0100                	addi	s0,sp,128
     2a6:	0c05                	addi	s8,s8,1
     2a8:	10090103          	lb	sp,256(s2)
     2ac:	0100                	addi	s0,sp,128
     2ae:	0505                	addi	a0,a0,1
     2b0:	04090103          	lb	sp,64(s2)
     2b4:	0100                	addi	s0,sp,128
     2b6:	0200                	addi	s0,sp,256
     2b8:	0104                	addi	s1,sp,128
     2ba:	0306                	slli	t1,t1,0x1
     2bc:	0900                	addi	s0,sp,144
     2be:	0014                	.insn	2, 0x0014
     2c0:	0601                	addi	a2,a2,0
     2c2:	22090203          	lb	tp,544(s2)
     2c6:	0100                	addi	s0,sp,128
     2c8:	12090103          	lb	sp,288(s2)
     2cc:	0100                	addi	s0,sp,128
     2ce:	0200                	addi	s0,sp,256
     2d0:	0104                	addi	s1,sp,128
     2d2:	0306                	slli	t1,t1,0x1
     2d4:	0900                	addi	s0,sp,144
     2d6:	0016                	c.slli	zero,0x5
     2d8:	0501                	addi	a0,a0,0
     2da:	0601                	addi	a2,a2,0
     2dc:	22090103          	lb	sp,544(s2)
     2e0:	0100                	addi	s0,sp,128
     2e2:	0a090403          	lb	s0,160(s2)
     2e6:	0100                	addi	s0,sp,128
     2e8:	0a05                	addi	s4,s4,1
     2ea:	08090103          	lb	sp,128(s2)
     2ee:	0100                	addi	s0,sp,128
     2f0:	0505                	addi	a0,a0,1
     2f2:	16090303          	lb	t1,352(s2)
     2f6:	0100                	addi	s0,sp,128
     2f8:	12090103          	lb	sp,288(s2)
     2fc:	0100                	addi	s0,sp,128
     2fe:	0200                	addi	s0,sp,256
     300:	0104                	addi	s1,sp,128
     302:	0306                	slli	t1,t1,0x1
     304:	0900                	addi	s0,sp,144
     306:	0016                	c.slli	zero,0x5
     308:	0501                	addi	a0,a0,0
     30a:	060a                	slli	a2,a2,0x2
     30c:	22090203          	lb	tp,544(s2)
     310:	0100                	addi	s0,sp,128
     312:	0505                	addi	a0,a0,1
     314:	16090103          	lb	sp,352(s2)
     318:	0100                	addi	s0,sp,128
     31a:	0a05                	addi	s4,s4,1
     31c:	14090103          	lb	sp,320(s2)
     320:	0100                	addi	s0,sp,128
     322:	0505                	addi	a0,a0,1
     324:	16090103          	lb	sp,352(s2)
     328:	0100                	addi	s0,sp,128
     32a:	0200                	addi	s0,sp,256
     32c:	0104                	addi	s1,sp,128
     32e:	0306                	slli	t1,t1,0x1
     330:	0900                	addi	s0,sp,144
     332:	0014                	.insn	2, 0x0014
     334:	0501                	addi	a0,a0,0
     336:	0601                	addi	a2,a2,0
     338:	22090103          	lb	sp,544(s2)
     33c:	0100                	addi	s0,sp,128
     33e:	0a090403          	lb	s0,160(s2)
     342:	0100                	addi	s0,sp,128
     344:	0a05                	addi	s4,s4,1
     346:	08090103          	lb	sp,128(s2)
     34a:	0100                	addi	s0,sp,128
     34c:	0505                	addi	a0,a0,1
     34e:	16090203          	lb	tp,352(s2)
     352:	0100                	addi	s0,sp,128
     354:	14090103          	lb	sp,320(s2)
     358:	0100                	addi	s0,sp,128
     35a:	0200                	addi	s0,sp,256
     35c:	0104                	addi	s1,sp,128
     35e:	0306                	slli	t1,t1,0x1
     360:	0900                	addi	s0,sp,144
     362:	0014                	.insn	2, 0x0014
     364:	0501                	addi	a0,a0,0
     366:	060a                	slli	a2,a2,0x2
     368:	22090203          	lb	tp,544(s2)
     36c:	0100                	addi	s0,sp,128
     36e:	0505                	addi	a0,a0,1
     370:	16090103          	lb	sp,352(s2)
     374:	0100                	addi	s0,sp,128
     376:	14090103          	lb	sp,320(s2)
     37a:	0100                	addi	s0,sp,128
     37c:	0200                	addi	s0,sp,256
     37e:	0104                	addi	s1,sp,128
     380:	0306                	slli	t1,t1,0x1
     382:	0900                	addi	s0,sp,144
     384:	0016                	c.slli	zero,0x5
     386:	0501                	addi	a0,a0,0
     388:	0601                	addi	a2,a2,0
     38a:	22090103          	lb	sp,544(s2)
     38e:	0100                	addi	s0,sp,128
     390:	0a090403          	lb	s0,160(s2)
     394:	0100                	addi	s0,sp,128
     396:	0a05                	addi	s4,s4,1
     398:	08090103          	lb	sp,128(s2)
     39c:	0100                	addi	s0,sp,128
     39e:	12090103          	lb	sp,288(s2)
     3a2:	0100                	addi	s0,sp,128
     3a4:	0505                	addi	a0,a0,1
     3a6:	12090103          	lb	sp,288(s2)
     3aa:	0100                	addi	s0,sp,128
     3ac:	0200                	addi	s0,sp,256
     3ae:	0104                	addi	s1,sp,128
     3b0:	0306                	slli	t1,t1,0x1
     3b2:	0900                	addi	s0,sp,144
     3b4:	0014                	.insn	2, 0x0014
     3b6:	0501                	addi	a0,a0,0
     3b8:	060a                	slli	a2,a2,0x2
     3ba:	22090203          	lb	tp,544(s2)
     3be:	0100                	addi	s0,sp,128
     3c0:	0505                	addi	a0,a0,1
     3c2:	12090103          	lb	sp,288(s2)
     3c6:	0100                	addi	s0,sp,128
     3c8:	0200                	addi	s0,sp,256
     3ca:	0104                	addi	s1,sp,128
     3cc:	0306                	slli	t1,t1,0x1
     3ce:	0900                	addi	s0,sp,144
     3d0:	0014                	.insn	2, 0x0014
     3d2:	0501                	addi	a0,a0,0
     3d4:	0601                	addi	a2,a2,0
     3d6:	24090303          	lb	t1,576(s2)
     3da:	0100                	addi	s0,sp,128
     3dc:	0a090403          	lb	s0,160(s2)
     3e0:	0100                	addi	s0,sp,128
     3e2:	0505                	addi	a0,a0,1
     3e4:	08090103          	lb	sp,128(s2)
     3e8:	0100                	addi	s0,sp,128
     3ea:	04090203          	lb	tp,64(s2)
     3ee:	0100                	addi	s0,sp,128
     3f0:	04090203          	lb	tp,64(s2)
     3f4:	0100                	addi	s0,sp,128
     3f6:	04090203          	lb	tp,64(s2)
     3fa:	0100                	addi	s0,sp,128
     3fc:	04090203          	lb	tp,64(s2)
     400:	0100                	addi	s0,sp,128
     402:	04090203          	lb	tp,64(s2)
     406:	0100                	addi	s0,sp,128
     408:	04090203          	lb	tp,64(s2)
     40c:	0100                	addi	s0,sp,128
     40e:	0105                	addi	sp,sp,1
     410:	04090203          	lb	tp,64(s2)
     414:	0100                	addi	s0,sp,128
     416:	0a09                	addi	s4,s4,2
     418:	0000                	unimp
     41a:	0101                	addi	sp,sp,0
     41c:	0084                	addi	s1,sp,64
     41e:	0000                	unimp
     420:	0005                	c.nop	1
     422:	0008                	.insn	2, 0x0008
     424:	003c                	addi	a5,sp,8
     426:	0000                	unimp
     428:	0101                	addi	sp,sp,0
     42a:	fb01                	bnez	a4,33a <_start-0x7ffffcc6>
     42c:	0d0e                	slli	s10,s10,0x3
     42e:	0100                	addi	s0,sp,128
     430:	0101                	addi	sp,sp,0
     432:	0001                	nop
     434:	0000                	unimp
     436:	0001                	nop
     438:	0100                	addi	s0,sp,128
     43a:	0101                	addi	sp,sp,0
     43c:	031f 0000 0000      	.insn	6, 0x031f
     442:	0021                	c.nop	8
     444:	0000                	unimp
     446:	0055                	c.nop	21
     448:	0000                	unimp
     44a:	0102                	c.slli64	sp
     44c:	021f 040f 0096      	.insn	6, 0x0096040f021f
     452:	0000                	unimp
     454:	9601                	srai	a2,a2,0x20
     456:	0000                	unimp
     458:	0100                	addi	s0,sp,128
     45a:	009d                	addi	ra,ra,7 # 4007 <_start-0x7fffbff9>
     45c:	0000                	unimp
     45e:	a102                	fsd	ft0,128(sp)
     460:	0000                	unimp
     462:	0200                	addi	s0,sp,256
     464:	0105                	addi	sp,sp,1
     466:	0900                	addi	s0,sp,144
     468:	2802                	fld	fa6,0(sp)
     46a:	0006                	c.slli	zero,0x1
     46c:	0080                	addi	s0,sp,64
     46e:	0000                	unimp
     470:	0300                	addi	s0,sp,384
     472:	010e                	slli	sp,sp,0x3
     474:	0505                	addi	a0,a0,1
     476:	08090103          	lb	sp,128(s2)
     47a:	0100                	addi	s0,sp,128
     47c:	04090103          	lb	sp,64(s2)
     480:	0100                	addi	s0,sp,128
     482:	0c090103          	lb	sp,192(s2)
     486:	0100                	addi	s0,sp,128
     488:	04090103          	lb	sp,64(s2)
     48c:	0100                	addi	s0,sp,128
     48e:	0c05                	addi	s8,s8,1
     490:	04090103          	lb	sp,64(s2)
     494:	0100                	addi	s0,sp,128
     496:	0105                	addi	sp,sp,1
     498:	02090103          	lb	sp,32(s2)
     49c:	0100                	addi	s0,sp,128
     49e:	0a09                	addi	s4,s4,2
     4a0:	0000                	unimp
     4a2:	0101                	addi	sp,sp,0
     4a4:	0a59                	addi	s4,s4,22
     4a6:	0000                	unimp
     4a8:	0005                	c.nop	1
     4aa:	0008                	.insn	2, 0x0008
     4ac:	0045                	c.nop	17
     4ae:	0000                	unimp
     4b0:	0101                	addi	sp,sp,0
     4b2:	fb01                	bnez	a4,3c2 <_start-0x7ffffc3e>
     4b4:	0d0e                	slli	s10,s10,0x3
     4b6:	0100                	addi	s0,sp,128
     4b8:	0101                	addi	sp,sp,0
     4ba:	0001                	nop
     4bc:	0000                	unimp
     4be:	0001                	nop
     4c0:	0100                	addi	s0,sp,128
     4c2:	0101                	addi	sp,sp,0
     4c4:	041f 0000 0000      	.insn	6, 0x041f
     4ca:	00bc                	addi	a5,sp,72
     4cc:	0000                	unimp
     4ce:	000000c7          	fmsub.s	ft1,ft0,ft0,ft0,rne
     4d2:	0055                	c.nop	21
     4d4:	0000                	unimp
     4d6:	0102                	c.slli64	sp
     4d8:	021f 050f 00b3      	.insn	6, 0x00b3050f021f
     4de:	0000                	unimp
     4e0:	b301                	j	1e0 <_start-0x7ffffe20>
     4e2:	0000                	unimp
     4e4:	0100                	addi	s0,sp,128
     4e6:	00fd                	addi	ra,ra,31
     4e8:	0000                	unimp
     4ea:	0602                	c.slli64	a2
     4ec:	0001                	nop
     4ee:	0200                	addi	s0,sp,256
     4f0:	00a1                	addi	ra,ra,8
     4f2:	0000                	unimp
     4f4:	00010503          	lb	a0,0(sp)
     4f8:	0209                	addi	tp,tp,2 # 2 <_start-0x7ffffffe>
     4fa:	0654                	addi	a3,sp,772
     4fc:	8000                	.insn	2, 0x8000
     4fe:	0000                	unimp
     500:	0000                	unimp
     502:	05011903          	lh	s2,80(sp)
     506:	0309                	addi	t1,t1,2
     508:	0901                	addi	s2,s2,0
     50a:	000c                	.insn	2, 0x000c
     50c:	0501                	addi	a0,a0,0
     50e:	0901030b          	.insn	4, 0x0901030b
     512:	0004                	.insn	2, 0x0004
     514:	0501                	addi	a0,a0,0
     516:	0901030f          	.insn	4, 0x0901030f
     51a:	0002                	c.slli64	zero
     51c:	0501                	addi	a0,a0,0
     51e:	0319                	addi	t1,t1,6
     520:	0900                	addi	s0,sp,144
     522:	0016                	c.slli	zero,0x5
     524:	0501                	addi	a0,a0,0
     526:	031c                	addi	a5,sp,384
     528:	0900                	addi	s0,sp,144
     52a:	0006                	c.slli	zero,0x1
     52c:	0501                	addi	a0,a0,0
     52e:	0316                	slli	t1,t1,0x5
     530:	0900                	addi	s0,sp,144
     532:	000a                	c.slli	zero,0x2
     534:	0501                	addi	a0,a0,0
     536:	0314                	addi	a3,sp,384
     538:	0900                	addi	s0,sp,144
     53a:	0006                	c.slli	zero,0x1
     53c:	0501                	addi	a0,a0,0
     53e:	0900030b          	.insn	4, 0x0900030b
     542:	0004                	.insn	2, 0x0004
     544:	0501                	addi	a0,a0,0
     546:	030c                	addi	a1,sp,384
     548:	097f 0008 0001 0402 	.insn	10, 0x0601040200010008097f
     550:	0601 
     552:	14090003          	lb	zero,320(s2)
     556:	0100                	addi	s0,sp,128
     558:	0306                	slli	t1,t1,0x1
     55a:	0902                	c.slli64	s2
     55c:	0014                	.insn	2, 0x0014
     55e:	0501                	addi	a0,a0,0
     560:	0301                	addi	t1,t1,0
     562:	0901                	addi	s2,s2,0
     564:	0004                	.insn	2, 0x0004
     566:	0301                	addi	t1,t1,0
     568:	0904                	addi	s1,sp,144
     56a:	000a                	c.slli	zero,0x2
     56c:	0501                	addi	a0,a0,0
     56e:	030e                	slli	t1,t1,0x3
     570:	0901                	addi	s2,s2,0
     572:	0010                	.insn	2, 0x0010
     574:	0501                	addi	a0,a0,0
     576:	0305                	addi	t1,t1,1
     578:	0900                	addi	s0,sp,144
     57a:	0004                	.insn	2, 0x0004
     57c:	0501                	addi	a0,a0,0
     57e:	0316                	slli	t1,t1,0x5
     580:	0901                	addi	s2,s2,0
     582:	0002                	c.slli64	zero
     584:	0501                	addi	a0,a0,0
     586:	0309                	addi	t1,t1,2
     588:	0900                	addi	s0,sp,144
     58a:	000a                	c.slli	zero,0x2
     58c:	0501                	addi	a0,a0,0
     58e:	001d                	c.nop	7
     590:	0402                	c.slli64	s0
     592:	097f0303          	lb	t1,151(t5)
     596:	000a                	c.slli	zero,0x2
     598:	0501                	addi	a0,a0,0
     59a:	04020017          	auipc	zero,0x4020
     59e:	0301                	addi	t1,t1,0
     5a0:	0900                	addi	s0,sp,144
     5a2:	000a                	c.slli	zero,0x2
     5a4:	0501                	addi	a0,a0,0
     5a6:	0301                	addi	t1,t1,0
     5a8:	0902                	c.slli64	s2
     5aa:	000c                	.insn	2, 0x000c
     5ac:	0301                	addi	t1,t1,0
     5ae:	0906                	slli	s2,s2,0x1
     5b0:	000c                	.insn	2, 0x000c
     5b2:	0501                	addi	a0,a0,0
     5b4:	030a                	slli	t1,t1,0x2
     5b6:	0901                	addi	s2,s2,0
     5b8:	0024                	addi	s1,sp,8
     5ba:	0501                	addi	a0,a0,0
     5bc:	0311                	addi	t1,t1,4
     5be:	0900                	addi	s0,sp,144
     5c0:	0004                	.insn	2, 0x0004
     5c2:	0501                	addi	a0,a0,0
     5c4:	0309                	addi	t1,t1,2
     5c6:	0901                	addi	s2,s2,0
     5c8:	0004                	.insn	2, 0x0004
     5ca:	0501                	addi	a0,a0,0
     5cc:	031c                	addi	a5,sp,384
     5ce:	0901                	addi	s2,s2,0
     5d0:	0004                	.insn	2, 0x0004
     5d2:	0501                	addi	a0,a0,0
     5d4:	0329                	addi	t1,t1,10
     5d6:	0900                	addi	s0,sp,144
     5d8:	0008                	.insn	2, 0x0008
     5da:	0501                	addi	a0,a0,0
     5dc:	0032                	c.slli	zero,0xc
     5de:	0402                	c.slli64	s0
     5e0:	0301                	addi	t1,t1,0
     5e2:	0900                	addi	s0,sp,144
     5e4:	0002                	c.slli64	zero
     5e6:	0501                	addi	a0,a0,0
     5e8:	0029                	c.nop	10
     5ea:	0402                	c.slli64	s0
     5ec:	0301                	addi	t1,t1,0
     5ee:	0900                	addi	s0,sp,144
     5f0:	0008                	.insn	2, 0x0008
     5f2:	0501                	addi	a0,a0,0
     5f4:	0048                	addi	a0,sp,4
     5f6:	0402                	c.slli64	s0
     5f8:	09000303          	lb	t1,144(zero) # 90 <_start-0x7fffff70>
     5fc:	0002                	c.slli64	zero
     5fe:	0501                	addi	a0,a0,0
     600:	0029                	c.nop	10
     602:	0402                	c.slli64	s0
     604:	09000303          	lb	t1,144(zero) # 90 <_start-0x7fffff70>
     608:	0008                	.insn	2, 0x0008
     60a:	0001                	nop
     60c:	0402                	c.slli64	s0
     60e:	0605                	addi	a2,a2,1
     610:	02090003          	lb	zero,32(s2)
     614:	0100                	addi	s0,sp,128
     616:	0200                	addi	s0,sp,256
     618:	0604                	addi	s1,sp,768
     61a:	04090003          	lb	zero,64(s2)
     61e:	0100                	addi	s0,sp,128
     620:	0200                	addi	s0,sp,256
     622:	0404                	addi	s1,sp,512
     624:	04090003          	lb	zero,64(s2)
     628:	0100                	addi	s0,sp,128
     62a:	0200                	addi	s0,sp,256
     62c:	0204                	addi	s1,sp,256
     62e:	04090003          	lb	zero,64(s2)
     632:	0100                	addi	s0,sp,128
     634:	0e05                	addi	t3,t3,1
     636:	0200                	addi	s0,sp,256
     638:	0c04                	addi	s1,sp,528
     63a:	0306                	slli	t1,t1,0x1
     63c:	0900                	addi	s0,sp,144
     63e:	0002                	c.slli64	zero
     640:	0501                	addi	a0,a0,0
     642:	0320                	addi	s0,sp,392
     644:	0901                	addi	s2,s2,0
     646:	0004                	.insn	2, 0x0004
     648:	0501                	addi	a0,a0,0
     64a:	0336                	slli	t1,t1,0xd
     64c:	0900                	addi	s0,sp,144
     64e:	000a                	c.slli	zero,0x2
     650:	0001                	nop
     652:	0402                	c.slli64	s0
     654:	0601                	addi	a2,a2,0
     656:	02090003          	lb	zero,32(s2)
     65a:	0100                	addi	s0,sp,128
     65c:	0200                	addi	s0,sp,256
     65e:	0204                	addi	s1,sp,256
     660:	0c090003          	lb	zero,192(s2)
     664:	0100                	addi	s0,sp,128
     666:	1105                	addi	sp,sp,-31
     668:	0200                	addi	s0,sp,256
     66a:	0404                	addi	s1,sp,512
     66c:	0306                	slli	t1,t1,0x1
     66e:	0900                	addi	s0,sp,144
     670:	000a                	c.slli	zero,0x2
     672:	0501                	addi	a0,a0,0
     674:	030e                	slli	t1,t1,0x3
     676:	00040903          	lb	s2,0(s0)
     67a:	0501                	addi	a0,a0,0
     67c:	0308                	addi	a0,sp,384
     67e:	0900                	addi	s0,sp,144
     680:	000a                	c.slli	zero,0x2
     682:	0501                	addi	a0,a0,0
     684:	0402001b          	addiw	zero,tp,64 # 40 <_start-0x7fffffc0>
     688:	0301                	addi	t1,t1,0
     68a:	0900                	addi	s0,sp,144
     68c:	0002                	c.slli64	zero
     68e:	0501                	addi	a0,a0,0
     690:	0902030f          	.insn	4, 0x0902030f
     694:	000a                	c.slli	zero,0x2
     696:	0501                	addi	a0,a0,0
     698:	09000307          	.insn	4, 0x09000307
     69c:	0008                	.insn	2, 0x0008
     69e:	0001                	nop
     6a0:	0402                	c.slli64	s0
     6a2:	0601                	addi	a2,a2,0
     6a4:	02090003          	lb	zero,32(s2)
     6a8:	0100                	addi	s0,sp,128
     6aa:	0200                	addi	s0,sp,256
     6ac:	0204                	addi	s1,sp,256
     6ae:	06090003          	lb	zero,96(s2)
     6b2:	0100                	addi	s0,sp,128
     6b4:	0200                	addi	s0,sp,256
     6b6:	0404                	addi	s1,sp,512
     6b8:	04090003          	lb	zero,64(s2)
     6bc:	0100                	addi	s0,sp,128
     6be:	0f05                	addi	t5,t5,1
     6c0:	0306                	slli	t1,t1,0x1
     6c2:	0902                	c.slli64	s2
     6c4:	0004                	.insn	2, 0x0004
     6c6:	0501                	addi	a0,a0,0
     6c8:	0308                	addi	a0,sp,384
     6ca:	0900                	addi	s0,sp,144
     6cc:	0008                	.insn	2, 0x0008
     6ce:	0501                	addi	a0,a0,0
     6d0:	04020017          	auipc	zero,0x4020
     6d4:	0301                	addi	t1,t1,0
     6d6:	0900                	addi	s0,sp,144
     6d8:	0002                	c.slli64	zero
     6da:	0501                	addi	a0,a0,0
     6dc:	030e                	slli	t1,t1,0x3
     6de:	0901                	addi	s2,s2,0
     6e0:	000a                	c.slli	zero,0x2
     6e2:	0501                	addi	a0,a0,0
     6e4:	0319                	addi	t1,t1,6
     6e6:	0900                	addi	s0,sp,144
     6e8:	0008                	.insn	2, 0x0008
     6ea:	0501                	addi	a0,a0,0
     6ec:	0318                	addi	a4,sp,384
     6ee:	0902                	c.slli64	s2
     6f0:	000c                	.insn	2, 0x000c
     6f2:	0501                	addi	a0,a0,0
     6f4:	030a                	slli	t1,t1,0x2
     6f6:	0900                	addi	s0,sp,144
     6f8:	0010                	.insn	2, 0x0010
     6fa:	0501                	addi	a0,a0,0
     6fc:	030e                	slli	t1,t1,0x3
     6fe:	0902                	c.slli64	s2
     700:	000c                	.insn	2, 0x000c
     702:	0501                	addi	a0,a0,0
     704:	0308                	addi	a0,sp,384
     706:	0900                	addi	s0,sp,144
     708:	000a                	c.slli	zero,0x2
     70a:	0501                	addi	a0,a0,0
     70c:	0319                	addi	t1,t1,6
     70e:	0901                	addi	s2,s2,0
     710:	0002                	c.slli64	zero
     712:	0501                	addi	a0,a0,0
     714:	0335                	addi	t1,t1,13
     716:	0900                	addi	s0,sp,144
     718:	0008                	.insn	2, 0x0008
     71a:	0501                	addi	a0,a0,0
     71c:	0029                	c.nop	10
     71e:	0402                	c.slli64	s0
     720:	0302                	c.slli64	t1
     722:	0900                	addi	s0,sp,144
     724:	0002                	c.slli64	zero
     726:	0501                	addi	a0,a0,0
     728:	0020                	addi	s0,sp,8
     72a:	0402                	c.slli64	s0
     72c:	0302                	c.slli64	t1
     72e:	0900                	addi	s0,sp,144
     730:	0008                	.insn	2, 0x0008
     732:	0501                	addi	a0,a0,0
     734:	0035                	c.nop	13
     736:	0402                	c.slli64	s0
     738:	09000303          	lb	t1,144(zero) # 90 <_start-0x7fffff70>
     73c:	0002                	c.slli64	zero
     73e:	0601                	addi	a2,a2,0
     740:	02090003          	lb	zero,32(s2)
     744:	0100                	addi	s0,sp,128
     746:	0200                	addi	s0,sp,256
     748:	0404                	addi	s1,sp,512
     74a:	02090003          	lb	zero,32(s2)
     74e:	0100                	addi	s0,sp,128
     750:	0e05                	addi	t3,t3,1
     752:	0200                	addi	s0,sp,256
     754:	0604                	addi	s1,sp,768
     756:	0306                	slli	t1,t1,0x1
     758:	0900                	addi	s0,sp,144
     75a:	0002                	c.slli64	zero
     75c:	0501                	addi	a0,a0,0
     75e:	09010323          	sb	a6,134(sp)
     762:	000c                	.insn	2, 0x000c
     764:	0501                	addi	a0,a0,0
     766:	030e                	slli	t1,t1,0x3
     768:	0900                	addi	s0,sp,144
     76a:	000e                	c.slli	zero,0x3
     76c:	0501                	addi	a0,a0,0
     76e:	0308                	addi	a0,sp,384
     770:	0904                	addi	s1,sp,144
     772:	000c                	.insn	2, 0x000c
     774:	0501                	addi	a0,a0,0
     776:	0312                	slli	t1,t1,0x4
     778:	0901                	addi	s2,s2,0
     77a:	0008                	.insn	2, 0x0008
     77c:	0501                	addi	a0,a0,0
     77e:	0316                	slli	t1,t1,0x5
     780:	0900                	addi	s0,sp,144
     782:	000c                	.insn	2, 0x000c
     784:	0501                	addi	a0,a0,0
     786:	0312                	slli	t1,t1,0x4
     788:	0902                	c.slli64	s2
     78a:	000e                	c.slli	zero,0x3
     78c:	0501                	addi	a0,a0,0
     78e:	0328                	addi	a0,sp,392
     790:	0902                	c.slli64	s2
     792:	0008                	.insn	2, 0x0008
     794:	0501                	addi	a0,a0,0
     796:	0322                	slli	t1,t1,0x8
     798:	0900                	addi	s0,sp,144
     79a:	0014                	.insn	2, 0x0014
     79c:	0501                	addi	a0,a0,0
     79e:	0316                	slli	t1,t1,0x5
     7a0:	0900                	addi	s0,sp,144
     7a2:	0006                	c.slli	zero,0x1
     7a4:	0501                	addi	a0,a0,0
     7a6:	0322                	slli	t1,t1,0x8
     7a8:	0900                	addi	s0,sp,144
     7aa:	000c                	.insn	2, 0x000c
     7ac:	0501                	addi	a0,a0,0
     7ae:	031a                	slli	t1,t1,0x6
     7b0:	0900                	addi	s0,sp,144
     7b2:	0004                	.insn	2, 0x0004
     7b4:	0501                	addi	a0,a0,0
     7b6:	0312                	slli	t1,t1,0x4
     7b8:	0901                	addi	s2,s2,0
     7ba:	0008                	.insn	2, 0x0008
     7bc:	0501                	addi	a0,a0,0
     7be:	04020017          	auipc	zero,0x4020
     7c2:	0301                	addi	t1,t1,0
     7c4:	0901                	addi	s2,s2,0
     7c6:	0012                	c.slli	zero,0x4
     7c8:	0501                	addi	a0,a0,0
     7ca:	0903030f          	.insn	4, 0x0903030f
     7ce:	0008                	.insn	2, 0x0008
     7d0:	0501                	addi	a0,a0,0
     7d2:	030a                	slli	t1,t1,0x2
     7d4:	0901                	addi	s2,s2,0
     7d6:	001c                	.insn	2, 0x001c
     7d8:	0501                	addi	a0,a0,0
     7da:	0310                	addi	a2,sp,384
     7dc:	0902                	c.slli64	s2
     7de:	0012                	c.slli	zero,0x4
     7e0:	0501                	addi	a0,a0,0
     7e2:	0308                	addi	a0,sp,384
     7e4:	0900                	addi	s0,sp,144
     7e6:	000a                	c.slli	zero,0x2
     7e8:	0501                	addi	a0,a0,0
     7ea:	0901030f          	.insn	4, 0x0901030f
     7ee:	0002                	c.slli64	zero
     7f0:	0501                	addi	a0,a0,0
     7f2:	0311                	addi	t1,t1,4
     7f4:	0901                	addi	s2,s2,0
     7f6:	0002                	c.slli64	zero
     7f8:	0501                	addi	a0,a0,0
     7fa:	0314                	addi	a3,sp,384
     7fc:	0900                	addi	s0,sp,144
     7fe:	000c                	.insn	2, 0x000c
     800:	0301                	addi	t1,t1,0
     802:	097f 0008 0501 0317 	.insn	10, 0x0900031705010008097f
     80a:	0900 
     80c:	000c                	.insn	2, 0x000c
     80e:	0501                	addi	a0,a0,0
     810:	0308                	addi	a0,sp,384
     812:	0904                	addi	s1,sp,144
     814:	0004                	.insn	2, 0x0004
     816:	0501                	addi	a0,a0,0
     818:	030d                	addi	t1,t1,3
     81a:	0901                	addi	s2,s2,0
     81c:	000a                	c.slli	zero,0x2
     81e:	0501                	addi	a0,a0,0
     820:	0310                	addi	a2,sp,384
     822:	0900                	addi	s0,sp,144
     824:	000c                	.insn	2, 0x000c
     826:	0501                	addi	a0,a0,0
     828:	030e                	slli	t1,t1,0x3
     82a:	0902                	c.slli64	s2
     82c:	0008                	.insn	2, 0x0008
     82e:	0501                	addi	a0,a0,0
     830:	0308                	addi	a0,sp,384
     832:	0900                	addi	s0,sp,144
     834:	000a                	c.slli	zero,0x2
     836:	0501                	addi	a0,a0,0
     838:	030d                	addi	t1,t1,3
     83a:	0901                	addi	s2,s2,0
     83c:	0002                	c.slli64	zero
     83e:	0501                	addi	a0,a0,0
     840:	0310                	addi	a2,sp,384
     842:	0900                	addi	s0,sp,144
     844:	000c                	.insn	2, 0x000c
     846:	0501                	addi	a0,a0,0
     848:	0312                	slli	t1,t1,0x4
     84a:	0901                	addi	s2,s2,0
     84c:	0008                	.insn	2, 0x0008
     84e:	0501                	addi	a0,a0,0
     850:	030c                	addi	a1,sp,384
     852:	0900                	addi	s0,sp,144
     854:	0008                	.insn	2, 0x0008
     856:	0501                	addi	a0,a0,0
     858:	031c                	addi	a5,sp,384
     85a:	0901                	addi	s2,s2,0
     85c:	0002                	c.slli64	zero
     85e:	0501                	addi	a0,a0,0
     860:	0311                	addi	t1,t1,4
     862:	0900                	addi	s0,sp,144
     864:	0008                	.insn	2, 0x0008
     866:	0501                	addi	a0,a0,0
     868:	031c                	addi	a5,sp,384
     86a:	0900                	addi	s0,sp,144
     86c:	000c                	.insn	2, 0x000c
     86e:	0501                	addi	a0,a0,0
     870:	0314                	addi	a3,sp,384
     872:	0900                	addi	s0,sp,144
     874:	0004                	.insn	2, 0x0004
     876:	0501                	addi	a0,a0,0
     878:	0312                	slli	t1,t1,0x4
     87a:	0901                	addi	s2,s2,0
     87c:	0004                	.insn	2, 0x0004
     87e:	0501                	addi	a0,a0,0
     880:	030c                	addi	a1,sp,384
     882:	0900                	addi	s0,sp,144
     884:	0008                	.insn	2, 0x0008
     886:	0501                	addi	a0,a0,0
     888:	031c                	addi	a5,sp,384
     88a:	0901                	addi	s2,s2,0
     88c:	0002                	c.slli64	zero
     88e:	0501                	addi	a0,a0,0
     890:	0311                	addi	t1,t1,4
     892:	0900                	addi	s0,sp,144
     894:	0008                	.insn	2, 0x0008
     896:	0501                	addi	a0,a0,0
     898:	031c                	addi	a5,sp,384
     89a:	0900                	addi	s0,sp,144
     89c:	000c                	.insn	2, 0x000c
     89e:	0501                	addi	a0,a0,0
     8a0:	0314                	addi	a3,sp,384
     8a2:	0900                	addi	s0,sp,144
     8a4:	0004                	.insn	2, 0x0004
     8a6:	0501                	addi	a0,a0,0
     8a8:	0310                	addi	a2,sp,384
     8aa:	00040903          	lb	s2,0(s0)
     8ae:	0501                	addi	a0,a0,0
     8b0:	0308                	addi	a0,sp,384
     8b2:	0900                	addi	s0,sp,144
     8b4:	000a                	c.slli	zero,0x2
     8b6:	0501                	addi	a0,a0,0
     8b8:	0901030f          	.insn	4, 0x0901030f
     8bc:	0002                	c.slli64	zero
     8be:	0501                	addi	a0,a0,0
     8c0:	0311                	addi	t1,t1,4
     8c2:	0901                	addi	s2,s2,0
     8c4:	0002                	c.slli64	zero
     8c6:	0501                	addi	a0,a0,0
     8c8:	0314                	addi	a3,sp,384
     8ca:	0900                	addi	s0,sp,144
     8cc:	000c                	.insn	2, 0x000c
     8ce:	0301                	addi	t1,t1,0
     8d0:	097f 0008 0501 0317 	.insn	10, 0x0900031705010008097f
     8d8:	0900 
     8da:	000c                	.insn	2, 0x000c
     8dc:	0501                	addi	a0,a0,0
     8de:	0904030b          	.insn	4, 0x0904030b
     8e2:	0004                	.insn	2, 0x0004
     8e4:	0501                	addi	a0,a0,0
     8e6:	0021                	c.nop	8
     8e8:	0402                	c.slli64	s0
     8ea:	0302                	c.slli64	t1
     8ec:	0900                	addi	s0,sp,144
     8ee:	0002                	c.slli64	zero
     8f0:	0501                	addi	a0,a0,0
     8f2:	0024                	addi	s1,sp,8
     8f4:	0402                	c.slli64	s0
     8f6:	0302                	c.slli64	t1
     8f8:	0900                	addi	s0,sp,144
     8fa:	000c                	.insn	2, 0x000c
     8fc:	0501                	addi	a0,a0,0
     8fe:	0019                	c.nop	6
     900:	0402                	c.slli64	s0
     902:	0301                	addi	t1,t1,0
     904:	0900                	addi	s0,sp,144
     906:	0008                	.insn	2, 0x0008
     908:	0501                	addi	a0,a0,0
     90a:	000e                	c.slli	zero,0x3
     90c:	0402                	c.slli64	s0
     90e:	0301                	addi	t1,t1,0
     910:	0900                	addi	s0,sp,144
     912:	000c                	.insn	2, 0x000c
     914:	0501                	addi	a0,a0,0
     916:	0901030b          	.insn	4, 0x0901030b
     91a:	000a                	c.slli	zero,0x2
     91c:	0501                	addi	a0,a0,0
     91e:	0019                	c.nop	6
     920:	0402                	c.slli64	s0
     922:	0302                	c.slli64	t1
     924:	0900                	addi	s0,sp,144
     926:	0002                	c.slli64	zero
     928:	0501                	addi	a0,a0,0
     92a:	0025                	c.nop	9
     92c:	0402                	c.slli64	s0
     92e:	0302                	c.slli64	t1
     930:	0900                	addi	s0,sp,144
     932:	000c                	.insn	2, 0x000c
     934:	0501                	addi	a0,a0,0
     936:	001c                	.insn	2, 0x001c
     938:	0402                	c.slli64	s0
     93a:	0302                	c.slli64	t1
     93c:	0900                	addi	s0,sp,144
     93e:	000c                	.insn	2, 0x000c
     940:	0501                	addi	a0,a0,0
     942:	000d                	c.nop	3
     944:	0402                	c.slli64	s0
     946:	0301                	addi	t1,t1,0
     948:	0900                	addi	s0,sp,144
     94a:	0004                	.insn	2, 0x0004
     94c:	0501                	addi	a0,a0,0
     94e:	0010                	.insn	2, 0x0010
     950:	0402                	c.slli64	s0
     952:	0301                	addi	t1,t1,0
     954:	0900                	addi	s0,sp,144
     956:	000c                	.insn	2, 0x000c
     958:	0501                	addi	a0,a0,0
     95a:	0901030b          	.insn	4, 0x0901030b
     95e:	0004                	.insn	2, 0x0004
     960:	0501                	addi	a0,a0,0
     962:	001c                	.insn	2, 0x001c
     964:	0402                	c.slli64	s0
     966:	0302                	c.slli64	t1
     968:	0900                	addi	s0,sp,144
     96a:	0002                	c.slli64	zero
     96c:	0501                	addi	a0,a0,0
     96e:	001f 0402 0302      	.insn	6, 0x03020402001f
     974:	0900                	addi	s0,sp,144
     976:	000c                	.insn	2, 0x000c
     978:	0501                	addi	a0,a0,0
     97a:	0010                	.insn	2, 0x0010
     97c:	0402                	c.slli64	s0
     97e:	0301                	addi	t1,t1,0
     980:	0900                	addi	s0,sp,144
     982:	0008                	.insn	2, 0x0008
     984:	0501                	addi	a0,a0,0
     986:	04020013          	addi	zero,tp,64 # 40 <_start-0x7fffffc0>
     98a:	0301                	addi	t1,t1,0
     98c:	0900                	addi	s0,sp,144
     98e:	000c                	.insn	2, 0x000c
     990:	0501                	addi	a0,a0,0
     992:	030c                	addi	a1,sp,384
     994:	0902                	c.slli64	s2
     996:	0004                	.insn	2, 0x0004
     998:	0501                	addi	a0,a0,0
     99a:	0301                	addi	t1,t1,0
     99c:	0901                	addi	s2,s2,0
     99e:	0004                	.insn	2, 0x0004
     9a0:	0301                	addi	t1,t1,0
     9a2:	0905                	addi	s2,s2,1
     9a4:	000a                	c.slli	zero,0x2
     9a6:	0501                	addi	a0,a0,0
     9a8:	0309                	addi	t1,t1,2
     9aa:	0901                	addi	s2,s2,0
     9ac:	0018                	.insn	2, 0x0018
     9ae:	0501                	addi	a0,a0,0
     9b0:	030e                	slli	t1,t1,0x3
     9b2:	00040903          	lb	s2,0(s0)
     9b6:	0501                	addi	a0,a0,0
     9b8:	0305                	addi	t1,t1,1
     9ba:	0900                	addi	s0,sp,144
     9bc:	0008                	.insn	2, 0x0008
     9be:	0501                	addi	a0,a0,0
     9c0:	030d                	addi	t1,t1,3
     9c2:	0902                	c.slli64	s2
     9c4:	0002                	c.slli64	zero
     9c6:	0501                	addi	a0,a0,0
     9c8:	030c                	addi	a1,sp,384
     9ca:	0900                	addi	s0,sp,144
     9cc:	0008                	.insn	2, 0x0008
     9ce:	0501                	addi	a0,a0,0
     9d0:	0316                	slli	t1,t1,0x5
     9d2:	0901                	addi	s2,s2,0
     9d4:	000a                	c.slli	zero,0x2
     9d6:	0501                	addi	a0,a0,0
     9d8:	0311                	addi	t1,t1,4
     9da:	0900                	addi	s0,sp,144
     9dc:	0004                	.insn	2, 0x0004
     9de:	0501                	addi	a0,a0,0
     9e0:	0316                	slli	t1,t1,0x5
     9e2:	0900                	addi	s0,sp,144
     9e4:	000c                	.insn	2, 0x000c
     9e6:	0501                	addi	a0,a0,0
     9e8:	0314                	addi	a3,sp,384
     9ea:	0900                	addi	s0,sp,144
     9ec:	0004                	.insn	2, 0x0004
     9ee:	0501                	addi	a0,a0,0
     9f0:	030d                	addi	t1,t1,3
     9f2:	0901                	addi	s2,s2,0
     9f4:	0004                	.insn	2, 0x0004
     9f6:	0301                	addi	t1,t1,0
     9f8:	00020903          	lb	s2,0(tp) # 0 <_start-0x80000000>
     9fc:	0501                	addi	a0,a0,0
     9fe:	0310                	addi	a2,sp,384
     a00:	0902                	c.slli64	s2
     a02:	0004                	.insn	2, 0x0004
     a04:	0501                	addi	a0,a0,0
     a06:	09000317          	auipc	t1,0x9000
     a0a:	000a                	c.slli	zero,0x2
     a0c:	0501                	addi	a0,a0,0
     a0e:	0314                	addi	a3,sp,384
     a10:	0901                	addi	s2,s2,0
     a12:	000a                	c.slli	zero,0x2
     a14:	0501                	addi	a0,a0,0
     a16:	030d                	addi	t1,t1,3 # 9000a09 <_start-0x76fff5f7>
     a18:	0900                	addi	s0,sp,144
     a1a:	000a                	c.slli	zero,0x2
     a1c:	0501                	addi	a0,a0,0
     a1e:	0321                	addi	t1,t1,8
     a20:	0901                	addi	s2,s2,0
     a22:	0020                	addi	s0,sp,8
     a24:	0501                	addi	a0,a0,0
     a26:	032a                	slli	t1,t1,0xa
     a28:	0900                	addi	s0,sp,144
     a2a:	000c                	.insn	2, 0x000c
     a2c:	0501                	addi	a0,a0,0
     a2e:	0321                	addi	t1,t1,8
     a30:	0901                	addi	s2,s2,0
     a32:	0002                	c.slli64	zero
     a34:	0501                	addi	a0,a0,0
     a36:	032c                	addi	a1,sp,392
     a38:	0900                	addi	s0,sp,144
     a3a:	000c                	.insn	2, 0x000c
     a3c:	0501                	addi	a0,a0,0
     a3e:	0321                	addi	t1,t1,8
     a40:	0901                	addi	s2,s2,0
     a42:	0002                	c.slli64	zero
     a44:	0501                	addi	a0,a0,0
     a46:	032d                	addi	t1,t1,11
     a48:	0900                	addi	s0,sp,144
     a4a:	000c                	.insn	2, 0x000c
     a4c:	0501                	addi	a0,a0,0
     a4e:	030d                	addi	t1,t1,3
     a50:	00020903          	lb	s2,0(tp) # 0 <_start-0x80000000>
     a54:	0301                	addi	t1,t1,0
     a56:	0901                	addi	s2,s2,0
     a58:	0006                	c.slli	zero,0x1
     a5a:	0501                	addi	a0,a0,0
     a5c:	030c                	addi	a1,sp,384
     a5e:	0900                	addi	s0,sp,144
     a60:	0008                	.insn	2, 0x0008
     a62:	0501                	addi	a0,a0,0
     a64:	000d                	c.nop	3
     a66:	0402                	c.slli64	s0
     a68:	0301                	addi	t1,t1,0
     a6a:	0900                	addi	s0,sp,144
     a6c:	000a                	c.slli	zero,0x2
     a6e:	0501                	addi	a0,a0,0
     a70:	0901031b          	addiw	t1,sp,144
     a74:	0012                	c.slli	zero,0x4
     a76:	0501                	addi	a0,a0,0
     a78:	0319                	addi	t1,t1,6
     a7a:	0900                	addi	s0,sp,144
     a7c:	0010                	.insn	2, 0x0010
     a7e:	0501                	addi	a0,a0,0
     a80:	0314                	addi	a3,sp,384
     a82:	0901                	addi	s2,s2,0
     a84:	0002                	c.slli64	zero
     a86:	0501                	addi	a0,a0,0
     a88:	09000313          	li	t1,144
     a8c:	0008                	.insn	2, 0x0008
     a8e:	0501                	addi	a0,a0,0
     a90:	0310                	addi	a2,sp,384
     a92:	0901                	addi	s2,s2,0
     a94:	000a                	c.slli	zero,0x2
     a96:	0501                	addi	a0,a0,0
     a98:	09000317          	auipc	t1,0x9000
     a9c:	000a                	c.slli	zero,0x2
     a9e:	0501                	addi	a0,a0,0
     aa0:	0319                	addi	t1,t1,6 # 9000a9e <_start-0x76fff562>
     aa2:	0901                	addi	s2,s2,0
     aa4:	000a                	c.slli	zero,0x2
     aa6:	0501                	addi	a0,a0,0
     aa8:	0310                	addi	a2,sp,384
     aaa:	0901                	addi	s2,s2,0
     aac:	0012                	c.slli	zero,0x4
     aae:	0501                	addi	a0,a0,0
     ab0:	031d                	addi	t1,t1,7
     ab2:	0901                	addi	s2,s2,0
     ab4:	000a                	c.slli	zero,0x2
     ab6:	0501                	addi	a0,a0,0
     ab8:	09010317          	auipc	t1,0x9010
     abc:	000c                	.insn	2, 0x000c
     abe:	0501                	addi	a0,a0,0
     ac0:	030d                	addi	t1,t1,3 # 9010abb <_start-0x76fef545>
     ac2:	0904                	addi	s1,sp,144
     ac4:	000c                	.insn	2, 0x000c
     ac6:	0301                	addi	t1,t1,0
     ac8:	0901                	addi	s2,s2,0
     aca:	0006                	c.slli	zero,0x1
     acc:	0501                	addi	a0,a0,0
     ace:	030c                	addi	a1,sp,384
     ad0:	0900                	addi	s0,sp,144
     ad2:	0008                	.insn	2, 0x0008
     ad4:	0501                	addi	a0,a0,0
     ad6:	0310                	addi	a2,sp,384
     ad8:	0901                	addi	s2,s2,0
     ada:	000a                	c.slli	zero,0x2
     adc:	0501                	addi	a0,a0,0
     ade:	09000317          	auipc	t1,0x9000
     ae2:	000a                	c.slli	zero,0x2
     ae4:	0501                	addi	a0,a0,0
     ae6:	0311                	addi	t1,t1,4 # 9000ae2 <_start-0x76fff51e>
     ae8:	0901                	addi	s2,s2,0
     aea:	000a                	c.slli	zero,0x2
     aec:	0501                	addi	a0,a0,0
     aee:	0310                	addi	a2,sp,384
     af0:	0900                	addi	s0,sp,144
     af2:	0008                	.insn	2, 0x0008
     af4:	0501                	addi	a0,a0,0
     af6:	0011                	c.nop	4
     af8:	0402                	c.slli64	s0
     afa:	0301                	addi	t1,t1,0
     afc:	0900                	addi	s0,sp,144
     afe:	000a                	c.slli	zero,0x2
     b00:	0501                	addi	a0,a0,0
     b02:	031d                	addi	t1,t1,7
     b04:	0901                	addi	s2,s2,0
     b06:	0012                	c.slli	zero,0x4
     b08:	0501                	addi	a0,a0,0
     b0a:	0900031b          	addiw	t1,zero,144
     b0e:	0010                	.insn	2, 0x0010
     b10:	0501                	addi	a0,a0,0
     b12:	0316                	slli	t1,t1,0x5
     b14:	0901                	addi	s2,s2,0
     b16:	0002                	c.slli64	zero
     b18:	0501                	addi	a0,a0,0
     b1a:	0315                	addi	t1,t1,5
     b1c:	0900                	addi	s0,sp,144
     b1e:	0008                	.insn	2, 0x0008
     b20:	0501                	addi	a0,a0,0
     b22:	0901031b          	addiw	t1,sp,144
     b26:	000a                	c.slli	zero,0x2
     b28:	0501                	addi	a0,a0,0
     b2a:	09010317          	auipc	t1,0x9010
     b2e:	0012                	c.slli	zero,0x4
     b30:	0501                	addi	a0,a0,0
     b32:	030d                	addi	t1,t1,3 # 9010b2d <_start-0x76fef4d3>
     b34:	00120903          	lb	s2,1(tp) # 1 <_start-0x7fffffff>
     b38:	0501                	addi	a0,a0,0
     b3a:	030c                	addi	a1,sp,384
     b3c:	0900                	addi	s0,sp,144
     b3e:	0008                	.insn	2, 0x0008
     b40:	0501                	addi	a0,a0,0
     b42:	001c                	.insn	2, 0x001c
     b44:	0402                	c.slli64	s0
     b46:	0301                	addi	t1,t1,0
     b48:	0900                	addi	s0,sp,144
     b4a:	000a                	c.slli	zero,0x2
     b4c:	0501                	addi	a0,a0,0
     b4e:	0019                	c.nop	6
     b50:	0402                	c.slli64	s0
     b52:	0301                	addi	t1,t1,0
     b54:	0900                	addi	s0,sp,144
     b56:	0008                	.insn	2, 0x0008
     b58:	0501                	addi	a0,a0,0
     b5a:	0402002b          	.insn	4, 0x0402002b
     b5e:	0302                	c.slli64	t1
     b60:	0900                	addi	s0,sp,144
     b62:	000a                	c.slli	zero,0x2
     b64:	0501                	addi	a0,a0,0
     b66:	0028                	addi	a0,sp,8
     b68:	0402                	c.slli64	s0
     b6a:	0302                	c.slli64	t1
     b6c:	0900                	addi	s0,sp,144
     b6e:	0008                	.insn	2, 0x0008
     b70:	0501                	addi	a0,a0,0
     b72:	0310                	addi	a2,sp,384
     b74:	0901                	addi	s2,s2,0
     b76:	000a                	c.slli	zero,0x2
     b78:	0501                	addi	a0,a0,0
     b7a:	09000317          	auipc	t1,0x9000
     b7e:	000a                	c.slli	zero,0x2
     b80:	0501                	addi	a0,a0,0
     b82:	0311                	addi	t1,t1,4 # 9000b7e <_start-0x76fff482>
     b84:	0902                	c.slli64	s2
     b86:	000a                	c.slli	zero,0x2
     b88:	0501                	addi	a0,a0,0
     b8a:	0309                	addi	t1,t1,2
     b8c:	0900                	addi	s0,sp,144
     b8e:	000a                	c.slli	zero,0x2
     b90:	0501                	addi	a0,a0,0
     b92:	0311                	addi	t1,t1,4
     b94:	0902                	c.slli64	s2
     b96:	0038                	addi	a4,sp,8
     b98:	0001                	nop
     b9a:	0402                	c.slli64	s0
     b9c:	0602                	c.slli64	a2
     b9e:	0e090003          	lb	zero,224(s2)
     ba2:	0100                	addi	s0,sp,128
     ba4:	0200                	addi	s0,sp,256
     ba6:	0104                	addi	s1,sp,128
     ba8:	14090003          	lb	zero,320(s2)
     bac:	0100                	addi	s0,sp,128
     bae:	2a05                	addiw	s4,s4,1
     bb0:	0306                	slli	t1,t1,0x1
     bb2:	0901                	addi	s2,s2,0
     bb4:	0010                	.insn	2, 0x0010
     bb6:	0501                	addi	a0,a0,0
     bb8:	0015                	c.nop	5
     bba:	0402                	c.slli64	s0
     bbc:	0301                	addi	t1,t1,0
     bbe:	0900                	addi	s0,sp,144
     bc0:	000e                	c.slli	zero,0x3
     bc2:	0501                	addi	a0,a0,0
     bc4:	001a                	c.slli	zero,0x6
     bc6:	0402                	c.slli64	s0
     bc8:	0301                	addi	t1,t1,0
     bca:	0900                	addi	s0,sp,144
     bcc:	000c                	.insn	2, 0x000c
     bce:	0501                	addi	a0,a0,0
     bd0:	0018                	.insn	2, 0x0018
     bd2:	0402                	c.slli64	s0
     bd4:	0301                	addi	t1,t1,0
     bd6:	0900                	addi	s0,sp,144
     bd8:	0004                	.insn	2, 0x0004
     bda:	0501                	addi	a0,a0,0
     bdc:	0311                	addi	t1,t1,4
     bde:	0901                	addi	s2,s2,0
     be0:	0004                	.insn	2, 0x0004
     be2:	0001                	nop
     be4:	0402                	c.slli64	s0
     be6:	0602                	c.slli64	a2
     be8:	02090003          	lb	zero,32(s2)
     bec:	0100                	addi	s0,sp,128
     bee:	0200                	addi	s0,sp,256
     bf0:	0104                	addi	s1,sp,128
     bf2:	14090003          	lb	zero,320(s2)
     bf6:	0100                	addi	s0,sp,128
     bf8:	0306                	slli	t1,t1,0x1
     bfa:	0901                	addi	s2,s2,0
     bfc:	0010                	.insn	2, 0x0010
     bfe:	0501                	addi	a0,a0,0
     c00:	09030317          	auipc	t1,0x9030
     c04:	0002                	c.slli64	zero
     c06:	0501                	addi	a0,a0,0
     c08:	031d                	addi	t1,t1,7 # 9030c07 <_start-0x76fcf3f9>
     c0a:	0901                	addi	s2,s2,0
     c0c:	0012                	c.slli	zero,0x4
     c0e:	0001                	nop
     c10:	0402                	c.slli64	s0
     c12:	0601                	addi	a2,a2,0
     c14:	06090003          	lb	zero,96(s2)
     c18:	0100                	addi	s0,sp,128
     c1a:	0200                	addi	s0,sp,256
     c1c:	0204                	addi	s1,sp,256
     c1e:	06090003          	lb	zero,96(s2)
     c22:	0100                	addi	s0,sp,128
     c24:	1305                	addi	t1,t1,-31
     c26:	0200                	addi	s0,sp,256
     c28:	0404                	addi	s1,sp,512
     c2a:	0306                	slli	t1,t1,0x1
     c2c:	0900                	addi	s0,sp,144
     c2e:	0008                	.insn	2, 0x0008
     c30:	0501                	addi	a0,a0,0
     c32:	0901031b          	addiw	t1,sp,144
     c36:	0004                	.insn	2, 0x0004
     c38:	0501                	addi	a0,a0,0
     c3a:	0015                	c.nop	5
     c3c:	0402                	c.slli64	s0
     c3e:	0301                	addi	t1,t1,0
     c40:	0900                	addi	s0,sp,144
     c42:	000a                	c.slli	zero,0x2
     c44:	0501                	addi	a0,a0,0
     c46:	0311                	addi	t1,t1,4
     c48:	0901                	addi	s2,s2,0
     c4a:	0004                	.insn	2, 0x0004
     c4c:	0001                	nop
     c4e:	0402                	c.slli64	s0
     c50:	0602                	c.slli64	a2
     c52:	0e090003          	lb	zero,224(s2)
     c56:	0100                	addi	s0,sp,128
     c58:	0200                	addi	s0,sp,256
     c5a:	0104                	addi	s1,sp,128
     c5c:	14090003          	lb	zero,320(s2)
     c60:	0100                	addi	s0,sp,128
     c62:	1a05                	addi	s4,s4,-31
     c64:	0306                	slli	t1,t1,0x1
     c66:	0901                	addi	s2,s2,0
     c68:	0010                	.insn	2, 0x0010
     c6a:	0501                	addi	a0,a0,0
     c6c:	0311                	addi	t1,t1,4
     c6e:	0900                	addi	s0,sp,144
     c70:	0004                	.insn	2, 0x0004
     c72:	0501                	addi	a0,a0,0
     c74:	0320                	addi	s0,sp,392
     c76:	0901                	addi	s2,s2,0
     c78:	0002                	c.slli64	zero
     c7a:	0501                	addi	a0,a0,0
     c7c:	0319                	addi	t1,t1,6
     c7e:	0900                	addi	s0,sp,144
     c80:	000c                	.insn	2, 0x000c
     c82:	0501                	addi	a0,a0,0
     c84:	031e                	slli	t1,t1,0x7
     c86:	0900                	addi	s0,sp,144
     c88:	000c                	.insn	2, 0x000c
     c8a:	0501                	addi	a0,a0,0
     c8c:	031c                	addi	a5,sp,384
     c8e:	0900                	addi	s0,sp,144
     c90:	0004                	.insn	2, 0x0004
     c92:	0501                	addi	a0,a0,0
     c94:	0402002b          	.insn	4, 0x0402002b
     c98:	097f0303          	lb	t1,151(t5)
     c9c:	0004                	.insn	2, 0x0004
     c9e:	0501                	addi	a0,a0,0
     ca0:	04020023          	sb	zero,64(tp) # 40 <_start-0x7fffffc0>
     ca4:	0301                	addi	t1,t1,0
     ca6:	0900                	addi	s0,sp,144
     ca8:	000a                	c.slli	zero,0x2
     caa:	0501                	addi	a0,a0,0
     cac:	0311                	addi	t1,t1,4
     cae:	0902                	c.slli64	s2
     cb0:	0012                	c.slli	zero,0x4
     cb2:	0001                	nop
     cb4:	0402                	c.slli64	s0
     cb6:	0602                	c.slli64	a2
     cb8:	02090003          	lb	zero,32(s2)
     cbc:	0100                	addi	s0,sp,128
     cbe:	0200                	addi	s0,sp,256
     cc0:	0104                	addi	s1,sp,128
     cc2:	14090003          	lb	zero,320(s2)
     cc6:	0100                	addi	s0,sp,128
     cc8:	0306                	slli	t1,t1,0x1
     cca:	0901                	addi	s2,s2,0
     ccc:	0010                	.insn	2, 0x0010
     cce:	0501                	addi	a0,a0,0
     cd0:	09030317          	auipc	t1,0x9030
     cd4:	0002                	c.slli64	zero
     cd6:	0501                	addi	a0,a0,0
     cd8:	09010323          	sb	a6,134(sp)
     cdc:	000c                	.insn	2, 0x000c
     cde:	0501                	addi	a0,a0,0
     ce0:	04020017          	auipc	zero,0x4020
     ce4:	0301                	addi	t1,t1,0 # 9030cd0 <_start-0x76fcf330>
     ce6:	0900                	addi	s0,sp,144
     ce8:	000e                	c.slli	zero,0x3
     cea:	0501                	addi	a0,a0,0
     cec:	0311                	addi	t1,t1,4
     cee:	0901                	addi	s2,s2,0
     cf0:	001c                	.insn	2, 0x001c
     cf2:	0501                	addi	a0,a0,0
     cf4:	0314                	addi	a3,sp,384
     cf6:	00020903          	lb	s2,0(tp) # 0 <_start-0x80000000>
     cfa:	0501                	addi	a0,a0,0
     cfc:	0321                	addi	t1,t1,8
     cfe:	0901                	addi	s2,s2,0
     d00:	000e                	c.slli	zero,0x3
     d02:	0501                	addi	a0,a0,0
     d04:	0901031b          	addiw	t1,sp,144
     d08:	0006                	c.slli	zero,0x1
     d0a:	0501                	addi	a0,a0,0
     d0c:	09020317          	auipc	t1,0x9020
     d10:	000c                	.insn	2, 0x000c
     d12:	0501                	addi	a0,a0,0
     d14:	09010323          	sb	a6,134(sp)
     d18:	000c                	.insn	2, 0x000c
     d1a:	0501                	addi	a0,a0,0
     d1c:	04020017          	auipc	zero,0x4020
     d20:	0301                	addi	t1,t1,0 # 9020d0c <_start-0x76fdf2f4>
     d22:	0900                	addi	s0,sp,144
     d24:	000e                	c.slli	zero,0x3
     d26:	0501                	addi	a0,a0,0
     d28:	0311                	addi	t1,t1,4
     d2a:	0901                	addi	s2,s2,0
     d2c:	001c                	.insn	2, 0x001c
     d2e:	0501                	addi	a0,a0,0
     d30:	09030317          	auipc	t1,0x9030
     d34:	0002                	c.slli64	zero
     d36:	0301                	addi	t1,t1,0 # 9030d30 <_start-0x76fcf2d0>
     d38:	0902                	c.slli64	s2
     d3a:	000c                	.insn	2, 0x000c
     d3c:	0501                	addi	a0,a0,0
     d3e:	09010323          	sb	a6,134(sp)
     d42:	000c                	.insn	2, 0x000c
     d44:	0501                	addi	a0,a0,0
     d46:	04020017          	auipc	zero,0x4020
     d4a:	0301                	addi	t1,t1,0
     d4c:	0900                	addi	s0,sp,144
     d4e:	000e                	c.slli	zero,0x3
     d50:	0501                	addi	a0,a0,0
     d52:	0311                	addi	t1,t1,4
     d54:	0901                	addi	s2,s2,0
     d56:	001c                	.insn	2, 0x001c
     d58:	0501                	addi	a0,a0,0
     d5a:	09030317          	auipc	t1,0x9030
     d5e:	0002                	c.slli64	zero
     d60:	0501                	addi	a0,a0,0
     d62:	09020323          	sb	a6,134(tp) # 86 <_start-0x7fffff7a>
     d66:	000c                	.insn	2, 0x000c
     d68:	0501                	addi	a0,a0,0
     d6a:	04020017          	auipc	zero,0x4020
     d6e:	0301                	addi	t1,t1,0 # 9030d5a <_start-0x76fcf2a6>
     d70:	0900                	addi	s0,sp,144
     d72:	000e                	c.slli	zero,0x3
     d74:	0501                	addi	a0,a0,0
     d76:	0311                	addi	t1,t1,4
     d78:	0901                	addi	s2,s2,0
     d7a:	001c                	.insn	2, 0x001c
     d7c:	0501                	addi	a0,a0,0
     d7e:	09030317          	auipc	t1,0x9030
     d82:	0002                	c.slli64	zero
     d84:	0501                	addi	a0,a0,0
     d86:	031c                	addi	a5,sp,384
     d88:	0901                	addi	s2,s2,0
     d8a:	0012                	c.slli	zero,0x4
     d8c:	0501                	addi	a0,a0,0
     d8e:	0315                	addi	t1,t1,5 # 9030d83 <_start-0x76fcf27d>
     d90:	0900                	addi	s0,sp,144
     d92:	000c                	.insn	2, 0x000c
     d94:	0501                	addi	a0,a0,0
     d96:	0311                	addi	t1,t1,4
     d98:	0901                	addi	s2,s2,0
     d9a:	000c                	.insn	2, 0x000c
     d9c:	0501                	addi	a0,a0,0
     d9e:	0315                	addi	t1,t1,5
     da0:	00020903          	lb	s2,0(tp) # 0 <_start-0x80000000>
     da4:	0501                	addi	a0,a0,0
     da6:	0314                	addi	a3,sp,384
     da8:	0900                	addi	s0,sp,144
     daa:	0008                	.insn	2, 0x0008
     dac:	0501                	addi	a0,a0,0
     dae:	0319                	addi	t1,t1,6
     db0:	0901                	addi	s2,s2,0
     db2:	000a                	c.slli	zero,0x2
     db4:	0501                	addi	a0,a0,0
     db6:	031c                	addi	a5,sp,384
     db8:	0900                	addi	s0,sp,144
     dba:	000c                	.insn	2, 0x000c
     dbc:	0501                	addi	a0,a0,0
     dbe:	0315                	addi	t1,t1,5
     dc0:	0901                	addi	s2,s2,0
     dc2:	0008                	.insn	2, 0x0008
     dc4:	0501                	addi	a0,a0,0
     dc6:	0314                	addi	a3,sp,384
     dc8:	0900                	addi	s0,sp,144
     dca:	0008                	.insn	2, 0x0008
     dcc:	0501                	addi	a0,a0,0
     dce:	031e                	slli	t1,t1,0x7
     dd0:	0901                	addi	s2,s2,0
     dd2:	0002                	c.slli64	zero
     dd4:	0501                	addi	a0,a0,0
     dd6:	0319                	addi	t1,t1,6
     dd8:	0900                	addi	s0,sp,144
     dda:	0004                	.insn	2, 0x0004
     ddc:	0501                	addi	a0,a0,0
     dde:	031e                	slli	t1,t1,0x7
     de0:	0900                	addi	s0,sp,144
     de2:	000c                	.insn	2, 0x000c
     de4:	0501                	addi	a0,a0,0
     de6:	031c                	addi	a5,sp,384
     de8:	0900                	addi	s0,sp,144
     dea:	0004                	.insn	2, 0x0004
     dec:	0501                	addi	a0,a0,0
     dee:	0311                	addi	t1,t1,4
     df0:	00040903          	lb	s2,0(s0)
     df4:	0501                	addi	a0,a0,0
     df6:	0318                	addi	a4,sp,384
     df8:	097f 0002 0501 031f 	.insn	10, 0x0900031f05010002097f
     e00:	0900 
     e02:	000a                	c.slli	zero,0x2
     e04:	0501                	addi	a0,a0,0
     e06:	0311                	addi	t1,t1,4
     e08:	0901                	addi	s2,s2,0
     e0a:	000a                	c.slli	zero,0x2
     e0c:	0501                	addi	a0,a0,0
     e0e:	0029                	c.nop	10
     e10:	0402                	c.slli64	s0
     e12:	0302                	c.slli64	t1
     e14:	7f9f 0209 0100      	.insn	6, 0x010002097f9f
     e1a:	3005                	.insn	2, 0x3005
     e1c:	0200                	addi	s0,sp,256
     e1e:	0204                	addi	s1,sp,256
     e20:	0a090003          	lb	zero,160(s2)
     e24:	0100                	addi	s0,sp,128
     e26:	1505                	addi	a0,a0,-31
     e28:	0200                	addi	s0,sp,256
     e2a:	0104                	addi	s1,sp,128
     e2c:	0a090003          	lb	zero,160(s2)
     e30:	0100                	addi	s0,sp,128
     e32:	1a05                	addi	s4,s4,-31
     e34:	0200                	addi	s0,sp,256
     e36:	0104                	addi	s1,sp,128
     e38:	08090003          	lb	zero,128(s2)
     e3c:	0100                	addi	s0,sp,128
     e3e:	2105                	addiw	sp,sp,1
     e40:	0200                	addi	s0,sp,256
     e42:	0304                	addi	s1,sp,384
     e44:	02090003          	lb	zero,32(s2)
     e48:	0100                	addi	s0,sp,128
     e4a:	1a05                	addi	s4,s4,-31
     e4c:	0200                	addi	s0,sp,256
     e4e:	0304                	addi	s1,sp,384
     e50:	04090003          	lb	zero,64(s2)
     e54:	0100                	addi	s0,sp,128
     e56:	0a05                	addi	s4,s4,1
     e58:	0900e403          	lwu	s0,144(ra)
     e5c:	0008                	.insn	2, 0x0008
     e5e:	0501                	addi	a0,a0,0
     e60:	0310                	addi	a2,sp,384
     e62:	0901                	addi	s2,s2,0
     e64:	0008                	.insn	2, 0x0008
     e66:	0501                	addi	a0,a0,0
     e68:	0301                	addi	t1,t1,0
     e6a:	0901                	addi	s2,s2,0
     e6c:	000e                	c.slli	zero,0x3
     e6e:	0301                	addi	t1,t1,0
     e70:	091e                	slli	s2,s2,0x7
     e72:	000a                	c.slli	zero,0x2
     e74:	0501                	addi	a0,a0,0
     e76:	0305                	addi	t1,t1,1
     e78:	0904                	addi	s1,sp,144
     e7a:	0026                	c.slli	zero,0x9
     e7c:	0501                	addi	a0,a0,0
     e7e:	0314                	addi	a3,sp,384
     e80:	0901                	addi	s2,s2,0
     e82:	0014                	.insn	2, 0x0014
     e84:	0501                	addi	a0,a0,0
     e86:	0005                	c.nop	1
     e88:	0402                	c.slli64	s0
     e8a:	0301                	addi	t1,t1,0
     e8c:	0900                	addi	s0,sp,144
     e8e:	001e                	c.slli	zero,0x7
     e90:	0501                	addi	a0,a0,0
     e92:	030c                	addi	a1,sp,384
     e94:	0902                	c.slli64	s2
     e96:	0010                	.insn	2, 0x0010
     e98:	0501                	addi	a0,a0,0
     e9a:	0301                	addi	t1,t1,0
     e9c:	0901                	addi	s2,s2,0
     e9e:	0004                	.insn	2, 0x0004
     ea0:	0301                	addi	t1,t1,0
     ea2:	0904                	addi	s1,sp,144
     ea4:	0010                	.insn	2, 0x0010
     ea6:	0501                	addi	a0,a0,0
     ea8:	030c                	addi	a1,sp,384
     eaa:	0902                	c.slli64	s2
     eac:	000c                	.insn	2, 0x000c
     eae:	0501                	addi	a0,a0,0
     eb0:	0305                	addi	t1,t1,1
     eb2:	0900                	addi	s0,sp,144
     eb4:	0004                	.insn	2, 0x0004
     eb6:	0501                	addi	a0,a0,0
     eb8:	0316                	slli	t1,t1,0x5
     eba:	0901                	addi	s2,s2,0
     ebc:	0002                	c.slli64	zero
     ebe:	0501                	addi	a0,a0,0
     ec0:	0309                	addi	t1,t1,2
     ec2:	0900                	addi	s0,sp,144
     ec4:	000a                	c.slli	zero,0x2
     ec6:	0501                	addi	a0,a0,0
     ec8:	0022                	c.slli	zero,0x8
     eca:	0402                	c.slli64	s0
     ecc:	097f0303          	lb	t1,151(t5)
     ed0:	000a                	c.slli	zero,0x2
     ed2:	0501                	addi	a0,a0,0
     ed4:	0014                	.insn	2, 0x0014
     ed6:	0402                	c.slli64	s0
     ed8:	0301                	addi	t1,t1,0
     eda:	0900                	addi	s0,sp,144
     edc:	000a                	c.slli	zero,0x2
     ede:	0501                	addi	a0,a0,0
     ee0:	0018                	.insn	2, 0x0018
     ee2:	0402                	c.slli64	s0
     ee4:	0301                	addi	t1,t1,0
     ee6:	0900                	addi	s0,sp,144
     ee8:	000e                	c.slli	zero,0x3
     eea:	0501                	addi	a0,a0,0
     eec:	030c                	addi	a1,sp,384
     eee:	0902                	c.slli64	s2
     ef0:	0002                	c.slli64	zero
     ef2:	0501                	addi	a0,a0,0
     ef4:	0301                	addi	t1,t1,0
     ef6:	0901                	addi	s2,s2,0
     ef8:	0004                	.insn	2, 0x0004
     efa:	0901                	addi	s2,s2,0
     efc:	000a                	c.slli	zero,0x2
     efe:	0100                	addi	s0,sp,128
     f00:	1101                	addi	sp,sp,-32
     f02:	0005                	c.nop	1
     f04:	0500                	addi	s0,sp,640
     f06:	0800                	addi	s0,sp,16
     f08:	3700                	fld	fs0,40(a4)
     f0a:	0000                	unimp
     f0c:	0100                	addi	s0,sp,128
     f0e:	0101                	addi	sp,sp,0
     f10:	000d0efb          	.insn	4, 0x000d0efb
     f14:	0101                	addi	sp,sp,0
     f16:	0101                	addi	sp,sp,0
     f18:	0000                	unimp
     f1a:	0100                	addi	s0,sp,128
     f1c:	0000                	unimp
     f1e:	0101                	addi	sp,sp,0
     f20:	1f01                	addi	t5,t5,-32
     f22:	00000003          	lb	zero,0(zero) # 0 <_start-0x80000000>
     f26:	bc00                	fsd	fs0,56(s0)
     f28:	0000                	unimp
     f2a:	c700                	sw	s0,8(a4)
     f2c:	0000                	unimp
     f2e:	0200                	addi	s0,sp,256
     f30:	1f01                	addi	t5,t5,-32
     f32:	0f02                	c.slli64	t5
     f34:	00011a03          	lh	s4,0(sp)
     f38:	0100                	addi	s0,sp,128
     f3a:	011a                	slli	sp,sp,0x6
     f3c:	0000                	unimp
     f3e:	fd01                	bnez	a0,e56 <_start-0x7ffff1aa>
     f40:	0000                	unimp
     f42:	0200                	addi	s0,sp,256
     f44:	0105                	addi	sp,sp,1
     f46:	0900                	addi	s0,sp,144
     f48:	f802                	sd	zero,48(sp)
     f4a:	0010                	.insn	2, 0x0010
     f4c:	0080                	addi	s0,sp,64
     f4e:	0000                	unimp
     f50:	1600                	addi	s0,sp,800
     f52:	0c05                	addi	s8,s8,1
     f54:	0c090203          	lb	tp,192(s2)
     f58:	0100                	addi	s0,sp,128
     f5a:	0505                	addi	a0,a0,1
     f5c:	04090003          	lb	zero,64(s2)
     f60:	0100                	addi	s0,sp,128
     f62:	2005                	.insn	2, 0x2005
     f64:	0200                	addi	s0,sp,256
     f66:	0304                	addi	s1,sp,384
     f68:	02090003          	lb	zero,32(s2)
     f6c:	0100                	addi	s0,sp,128
     f6e:	1205                	addi	tp,tp,-31 # ffffffffffffffe1 <__BSS_END__+0xffffffff7fffbfe1>
     f70:	0200                	addi	s0,sp,256
     f72:	0104                	addi	s1,sp,128
     f74:	0a090003          	lb	zero,160(s2)
     f78:	0100                	addi	s0,sp,128
     f7a:	1605                	addi	a2,a2,-31
     f7c:	0200                	addi	s0,sp,256
     f7e:	0104                	addi	s1,sp,128
     f80:	0e090003          	lb	zero,224(s2)
     f84:	0100                	addi	s0,sp,128
     f86:	0c05                	addi	s8,s8,1
     f88:	02090203          	lb	tp,32(s2)
     f8c:	0100                	addi	s0,sp,128
     f8e:	0105                	addi	sp,sp,1
     f90:	04090103          	lb	sp,64(s2)
     f94:	0100                	addi	s0,sp,128
     f96:	0a090503          	lb	a0,160(s2)
     f9a:	0100                	addi	s0,sp,128
     f9c:	0b05                	addi	s6,s6,1
     f9e:	14090103          	lb	sp,320(s2)
     fa2:	0100                	addi	s0,sp,128
     fa4:	08090103          	lb	sp,128(s2)
     fa8:	0100                	addi	s0,sp,128
     faa:	0d05                	addi	s10,s10,1
     fac:	0200                	addi	s0,sp,256
     fae:	0204                	addi	s1,sp,256
     fb0:	02090003          	lb	zero,32(s2)
     fb4:	0100                	addi	s0,sp,128
     fb6:	1405                	addi	s0,s0,-31
     fb8:	0200                	addi	s0,sp,256
     fba:	0204                	addi	s1,sp,256
     fbc:	0c090003          	lb	zero,192(s2)
     fc0:	0100                	addi	s0,sp,128
     fc2:	2505                	addiw	a0,a0,1
     fc4:	0200                	addi	s0,sp,256
     fc6:	0104                	addi	s1,sp,128
     fc8:	02090003          	lb	zero,32(s2)
     fcc:	0100                	addi	s0,sp,128
     fce:	1c05                	addi	s8,s8,-31
     fd0:	0200                	addi	s0,sp,256
     fd2:	0104                	addi	s1,sp,128
     fd4:	0c090003          	lb	zero,192(s2)
     fd8:	0100                	addi	s0,sp,128
     fda:	2105                	addiw	sp,sp,1
     fdc:	0200                	addi	s0,sp,256
     fde:	0104                	addi	s1,sp,128
     fe0:	0c090003          	lb	zero,192(s2)
     fe4:	0100                	addi	s0,sp,128
     fe6:	1f05                	addi	t5,t5,-31
     fe8:	0200                	addi	s0,sp,256
     fea:	0104                	addi	s1,sp,128
     fec:	04090003          	lb	zero,64(s2)
     ff0:	0100                	addi	s0,sp,128
     ff2:	1805                	addi	a6,a6,-31
     ff4:	0200                	addi	s0,sp,256
     ff6:	0104                	addi	s1,sp,128
     ff8:	04090003          	lb	zero,64(s2)
     ffc:	0100                	addi	s0,sp,128
     ffe:	1405                	addi	s0,s0,-31
    1000:	0200                	addi	s0,sp,256
    1002:	0104                	addi	s1,sp,128
    1004:	04090003          	lb	zero,64(s2)
    1008:	0100                	addi	s0,sp,128
    100a:	0905                	addi	s2,s2,1
    100c:	02090203          	lb	tp,32(s2)
    1010:	0100                	addi	s0,sp,128
    1012:	0c05                	addi	s8,s8,1
    1014:	0c090003          	lb	zero,192(s2)
    1018:	0100                	addi	s0,sp,128
    101a:	04090103          	lb	sp,64(s2)
    101e:	0100                	addi	s0,sp,128
    1020:	0105                	addi	sp,sp,1
    1022:	04090103          	lb	sp,64(s2)
    1026:	0100                	addi	s0,sp,128
    1028:	0a090603          	lb	a2,160(s2)
    102c:	0100                	addi	s0,sp,128
    102e:	0b05                	addi	s6,s6,1
    1030:	10090103          	lb	sp,256(s2)
    1034:	0100                	addi	s0,sp,128
    1036:	08090103          	lb	sp,128(s2)
    103a:	0100                	addi	s0,sp,128
    103c:	1605                	addi	a2,a2,-31
    103e:	02090103          	lb	sp,32(s2)
    1042:	0100                	addi	s0,sp,128
    1044:	0d05                	addi	s10,s10,1
    1046:	0c090003          	lb	zero,192(s2)
    104a:	0100                	addi	s0,sp,128
    104c:	1205                	addi	tp,tp,-31 # ffffffffffffffe1 <__BSS_END__+0xffffffff7fffbfe1>
    104e:	0c090003          	lb	zero,192(s2)
    1052:	0100                	addi	s0,sp,128
    1054:	1005                	c.nop	-31
    1056:	04090003          	lb	zero,64(s2)
    105a:	0100                	addi	s0,sp,128
    105c:	0c05                	addi	s8,s8,1
    105e:	04097f03          	.insn	4, 0x04097f03
    1062:	0100                	addi	s0,sp,128
    1064:	0a05                	addi	s4,s4,1
    1066:	0a090203          	lb	tp,160(s2)
    106a:	0100                	addi	s0,sp,128
    106c:	0c05                	addi	s8,s8,1
    106e:	08090103          	lb	sp,128(s2)
    1072:	0100                	addi	s0,sp,128
    1074:	0105                	addi	sp,sp,1
    1076:	04090103          	lb	sp,64(s2)
    107a:	0100                	addi	s0,sp,128
    107c:	0a090503          	lb	a0,160(s2)
    1080:	0100                	addi	s0,sp,128
    1082:	0b05                	addi	s6,s6,1
    1084:	14090103          	lb	sp,320(s2)
    1088:	0100                	addi	s0,sp,128
    108a:	0a05                	addi	s4,s4,1
    108c:	02090103          	lb	sp,32(s2)
    1090:	0100                	addi	s0,sp,128
    1092:	1005                	c.nop	-31
    1094:	0a090003          	lb	zero,160(s2)
    1098:	0100                	addi	s0,sp,128
    109a:	1605                	addi	a2,a2,-31
    109c:	0a090003          	lb	zero,160(s2)
    10a0:	0100                	addi	s0,sp,128
    10a2:	1905                	addi	s2,s2,-31
    10a4:	0a097f03          	.insn	4, 0x0a097f03
    10a8:	0100                	addi	s0,sp,128
    10aa:	1505                	addi	a0,a0,-31
    10ac:	0200                	addi	s0,sp,256
    10ae:	0104                	addi	s1,sp,128
    10b0:	06090003          	lb	zero,96(s2)
    10b4:	0100                	addi	s0,sp,128
    10b6:	1205                	addi	tp,tp,-31 # ffffffffffffffe1 <__BSS_END__+0xffffffff7fffbfe1>
    10b8:	0200                	addi	s0,sp,256
    10ba:	0104                	addi	s1,sp,128
    10bc:	08090003          	lb	zero,128(s2)
    10c0:	0100                	addi	s0,sp,128
    10c2:	1c05                	addi	s8,s8,-31
    10c4:	0200                	addi	s0,sp,256
    10c6:	0204                	addi	s1,sp,256
    10c8:	02090003          	lb	zero,32(s2)
    10cc:	0100                	addi	s0,sp,128
    10ce:	2305                	addiw	t1,t1,1
    10d0:	0200                	addi	s0,sp,256
    10d2:	0204                	addi	s1,sp,256
    10d4:	08090003          	lb	zero,128(s2)
    10d8:	0100                	addi	s0,sp,128
    10da:	1905                	addi	s2,s2,-31
    10dc:	0200                	addi	s0,sp,256
    10de:	0204                	addi	s1,sp,256
    10e0:	08090003          	lb	zero,128(s2)
    10e4:	0100                	addi	s0,sp,128
    10e6:	0805                	addi	a6,a6,1
    10e8:	04090203          	lb	tp,64(s2)
    10ec:	0100                	addi	s0,sp,128
    10ee:	1005                	c.nop	-31
    10f0:	06090103          	lb	sp,96(s2)
    10f4:	0100                	addi	s0,sp,128
    10f6:	0c05                	addi	s8,s8,1
    10f8:	04090103          	lb	sp,64(s2)
    10fc:	0100                	addi	s0,sp,128
    10fe:	1205                	addi	tp,tp,-31 # ffffffffffffffe1 <__BSS_END__+0xffffffff7fffbfe1>
    1100:	0c090003          	lb	zero,192(s2)
    1104:	0100                	addi	s0,sp,128
    1106:	1005                	c.nop	-31
    1108:	0a090003          	lb	zero,160(s2)
    110c:	0100                	addi	s0,sp,128
    110e:	0105                	addi	sp,sp,1
    1110:	06090103          	lb	sp,96(s2)
    1114:	0100                	addi	s0,sp,128
    1116:	0a090403          	lb	s0,160(s2)
    111a:	0100                	addi	s0,sp,128
    111c:	0f05                	addi	t5,t5,1
    111e:	10090103          	lb	sp,256(s2)
    1122:	0100                	addi	s0,sp,128
    1124:	0905                	addi	s2,s2,1
    1126:	0200                	addi	s0,sp,256
    1128:	0104                	addi	s1,sp,128
    112a:	0a090003          	lb	zero,160(s2)
    112e:	0100                	addi	s0,sp,128
    1130:	0c05                	addi	s8,s8,1
    1132:	04090103          	lb	sp,64(s2)
    1136:	0100                	addi	s0,sp,128
    1138:	0505                	addi	a0,a0,1
    113a:	04090003          	lb	zero,64(s2)
    113e:	0100                	addi	s0,sp,128
    1140:	1b05                	addi	s6,s6,-31
    1142:	02090103          	lb	sp,32(s2)
    1146:	0100                	addi	s0,sp,128
    1148:	0f05                	addi	t5,t5,1
    114a:	0a090003          	lb	zero,160(s2)
    114e:	0100                	addi	s0,sp,128
    1150:	0c05                	addi	s8,s8,1
    1152:	10090003          	lb	zero,256(s2)
    1156:	0100                	addi	s0,sp,128
    1158:	1b05                	addi	s6,s6,-31
    115a:	06090003          	lb	zero,96(s2)
    115e:	0100                	addi	s0,sp,128
    1160:	1605                	addi	a2,a2,-31
    1162:	04090003          	lb	zero,64(s2)
    1166:	0100                	addi	s0,sp,128
    1168:	2105                	addiw	sp,sp,1
    116a:	0200                	addi	s0,sp,256
    116c:	0304                	addi	s1,sp,384
    116e:	04097f03          	.insn	4, 0x04097f03
    1172:	0100                	addi	s0,sp,128
    1174:	1405                	addi	s0,s0,-31
    1176:	0200                	addi	s0,sp,256
    1178:	0104                	addi	s1,sp,128
    117a:	0a090003          	lb	zero,160(s2)
    117e:	0100                	addi	s0,sp,128
    1180:	1705                	addi	a4,a4,-31
    1182:	0200                	addi	s0,sp,256
    1184:	0104                	addi	s1,sp,128
    1186:	0e090003          	lb	zero,224(s2)
    118a:	0100                	addi	s0,sp,128
    118c:	0b05                	addi	s6,s6,1
    118e:	02090303          	lb	t1,32(s2)
    1192:	0100                	addi	s0,sp,128
    1194:	0805                	addi	a6,a6,1
    1196:	10090003          	lb	zero,256(s2)
    119a:	0100                	addi	s0,sp,128
    119c:	1205                	addi	tp,tp,-31 # ffffffffffffffe1 <__BSS_END__+0xffffffff7fffbfe1>
    119e:	06090003          	lb	zero,96(s2)
    11a2:	0100                	addi	s0,sp,128
    11a4:	0c05                	addi	s8,s8,1
    11a6:	04090103          	lb	sp,64(s2)
    11aa:	0100                	addi	s0,sp,128
    11ac:	0105                	addi	sp,sp,1
    11ae:	04090103          	lb	sp,64(s2)
    11b2:	0100                	addi	s0,sp,128
    11b4:	0a090503          	lb	a0,160(s2)
    11b8:	0100                	addi	s0,sp,128
    11ba:	0c05                	addi	s8,s8,1
    11bc:	10090203          	lb	tp,256(s2)
    11c0:	0100                	addi	s0,sp,128
    11c2:	0505                	addi	a0,a0,1
    11c4:	04090003          	lb	zero,64(s2)
    11c8:	0100                	addi	s0,sp,128
    11ca:	0f05                	addi	t5,t5,1
    11cc:	02090103          	lb	sp,32(s2)
    11d0:	0100                	addi	s0,sp,128
    11d2:	1805                	addi	a6,a6,-31
    11d4:	0e090003          	lb	zero,224(s2)
    11d8:	0100                	addi	s0,sp,128
    11da:	0c05                	addi	s8,s8,1
    11dc:	0e090003          	lb	zero,224(s2)
    11e0:	0100                	addi	s0,sp,128
    11e2:	1605                	addi	a2,a2,-31
    11e4:	06090103          	lb	sp,96(s2)
    11e8:	0100                	addi	s0,sp,128
    11ea:	1e05                	addi	t3,t3,-31
    11ec:	12090003          	lb	zero,288(s2)
    11f0:	0100                	addi	s0,sp,128
    11f2:	1a05                	addi	s4,s4,-31
    11f4:	10090003          	lb	zero,256(s2)
    11f8:	0100                	addi	s0,sp,128
    11fa:	2105                	addiw	sp,sp,1
    11fc:	0200                	addi	s0,sp,256
    11fe:	0204                	addi	s1,sp,256
    1200:	08097e03          	.insn	4, 0x08097e03
    1204:	0100                	addi	s0,sp,128
    1206:	1305                	addi	t1,t1,-31
    1208:	0200                	addi	s0,sp,256
    120a:	0104                	addi	s1,sp,128
    120c:	0a090003          	lb	zero,160(s2)
    1210:	0100                	addi	s0,sp,128
    1212:	1705                	addi	a4,a4,-31
    1214:	0200                	addi	s0,sp,256
    1216:	0104                	addi	s1,sp,128
    1218:	0e090003          	lb	zero,224(s2)
    121c:	0100                	addi	s0,sp,128
    121e:	0f05                	addi	t5,t5,1
    1220:	02090403          	lb	s0,32(s2)
    1224:	0100                	addi	s0,sp,128
    1226:	2005                	.insn	2, 0x2005
    1228:	0e090003          	lb	zero,224(s2)
    122c:	0100                	addi	s0,sp,128
    122e:	2505                	addiw	a0,a0,1
    1230:	0200                	addi	s0,sp,256
    1232:	0104                	addi	s1,sp,128
    1234:	02090003          	lb	zero,32(s2)
    1238:	0100                	addi	s0,sp,128
    123a:	2005                	.insn	2, 0x2005
    123c:	0200                	addi	s0,sp,256
    123e:	0104                	addi	s1,sp,128
    1240:	10090003          	lb	zero,256(s2)
    1244:	0100                	addi	s0,sp,128
    1246:	0306                	slli	t1,t1,0x1
    1248:	0900                	addi	s0,sp,144
    124a:	0006                	c.slli	zero,0x1
    124c:	0001                	nop
    124e:	0402                	c.slli64	s0
    1250:	0302                	c.slli64	t1
    1252:	0900                	addi	s0,sp,144
    1254:	0002                	c.slli64	zero
    1256:	0501                	addi	a0,a0,0
    1258:	0601                	addi	a2,a2,0
    125a:	02090103          	lb	sp,32(s2)
    125e:	0100                	addi	s0,sp,128
    1260:	0a090503          	lb	a0,160(s2)
    1264:	0100                	addi	s0,sp,128
    1266:	0b05                	addi	s6,s6,1
    1268:	16090103          	lb	sp,352(s2)
    126c:	0100                	addi	s0,sp,128
    126e:	0c05                	addi	s8,s8,1
    1270:	08090203          	lb	tp,128(s2)
    1274:	0100                	addi	s0,sp,128
    1276:	0505                	addi	a0,a0,1
    1278:	04090003          	lb	zero,64(s2)
    127c:	0100                	addi	s0,sp,128
    127e:	0d05                	addi	s10,s10,1
    1280:	02090103          	lb	sp,32(s2)
    1284:	0100                	addi	s0,sp,128
    1286:	1105                	addi	sp,sp,-31
    1288:	0a090003          	lb	zero,160(s2)
    128c:	0100                	addi	s0,sp,128
    128e:	1905                	addi	s2,s2,-31
    1290:	0200                	addi	s0,sp,256
    1292:	0304                	addi	s1,sp,384
    1294:	0c097f03          	.insn	4, 0x0c097f03
    1298:	0100                	addi	s0,sp,128
    129a:	1305                	addi	t1,t1,-31
    129c:	0200                	addi	s0,sp,256
    129e:	0104                	addi	s1,sp,128
    12a0:	0a090003          	lb	zero,160(s2)
    12a4:	0100                	addi	s0,sp,128
    12a6:	0c05                	addi	s8,s8,1
    12a8:	0c090303          	lb	t1,192(s2)
    12ac:	0100                	addi	s0,sp,128
    12ae:	0105                	addi	sp,sp,1
    12b0:	04090103          	lb	sp,64(s2)
    12b4:	0100                	addi	s0,sp,128
    12b6:	0a090503          	lb	a0,160(s2)
    12ba:	0100                	addi	s0,sp,128
    12bc:	0805                	addi	a6,a6,1
    12be:	14090303          	lb	t1,320(s2)
    12c2:	0100                	addi	s0,sp,128
    12c4:	08090103          	lb	sp,128(s2)
    12c8:	0100                	addi	s0,sp,128
    12ca:	0a05                	addi	s4,s4,1
    12cc:	08090103          	lb	sp,128(s2)
    12d0:	0100                	addi	s0,sp,128
    12d2:	0c05                	addi	s8,s8,1
    12d4:	02090103          	lb	sp,32(s2)
    12d8:	0100                	addi	s0,sp,128
    12da:	1305                	addi	t1,t1,-31
    12dc:	08090003          	lb	zero,128(s2)
    12e0:	0100                	addi	s0,sp,128
    12e2:	0b05                	addi	s6,s6,1
    12e4:	08090003          	lb	zero,128(s2)
    12e8:	0100                	addi	s0,sp,128
    12ea:	1405                	addi	s0,s0,-31
    12ec:	04090103          	lb	sp,64(s2)
    12f0:	0100                	addi	s0,sp,128
    12f2:	1a05                	addi	s4,s4,-31
    12f4:	0c090003          	lb	zero,192(s2)
    12f8:	0100                	addi	s0,sp,128
    12fa:	1805                	addi	a6,a6,-31
    12fc:	0a090003          	lb	zero,160(s2)
    1300:	0100                	addi	s0,sp,128
    1302:	0b05                	addi	s6,s6,1
    1304:	08090103          	lb	sp,128(s2)
    1308:	0100                	addi	s0,sp,128
    130a:	1105                	addi	sp,sp,-31
    130c:	0a090003          	lb	zero,160(s2)
    1310:	0100                	addi	s0,sp,128
    1312:	0c05                	addi	s8,s8,1
    1314:	0a097d03          	.insn	4, 0x0a097d03
    1318:	0100                	addi	s0,sp,128
    131a:	0f05                	addi	t5,t5,1
    131c:	0c090003          	lb	zero,192(s2)
    1320:	0100                	addi	s0,sp,128
    1322:	0c05                	addi	s8,s8,1
    1324:	02090603          	lb	a2,32(s2)
    1328:	0100                	addi	s0,sp,128
    132a:	0105                	addi	sp,sp,1
    132c:	02090103          	lb	sp,32(s2)
    1330:	0100                	addi	s0,sp,128
    1332:	0a090503          	lb	a0,160(s2)
    1336:	0100                	addi	s0,sp,128
    1338:	0705                	addi	a4,a4,1
    133a:	14090403          	lb	s0,320(s2)
    133e:	0100                	addi	s0,sp,128
    1340:	1005                	c.nop	-31
    1342:	06090103          	lb	sp,96(s2)
    1346:	0100                	addi	s0,sp,128
    1348:	0705                	addi	a4,a4,1
    134a:	06090203          	lb	tp,96(s2)
    134e:	0100                	addi	s0,sp,128
    1350:	08090103          	lb	sp,128(s2)
    1354:	0100                	addi	s0,sp,128
    1356:	08090103          	lb	sp,128(s2)
    135a:	0100                	addi	s0,sp,128
    135c:	1305                	addi	t1,t1,-31
    135e:	0200                	addi	s0,sp,256
    1360:	0104                	addi	s1,sp,128
    1362:	0c090003          	lb	zero,192(s2)
    1366:	0100                	addi	s0,sp,128
    1368:	0e05                	addi	t3,t3,1
    136a:	0200                	addi	s0,sp,256
    136c:	0104                	addi	s1,sp,128
    136e:	0a090003          	lb	zero,160(s2)
    1372:	0100                	addi	s0,sp,128
    1374:	0b05                	addi	s6,s6,1
    1376:	08090103          	lb	sp,128(s2)
    137a:	0100                	addi	s0,sp,128
    137c:	0e090103          	lb	sp,224(s2)
    1380:	0100                	addi	s0,sp,128
    1382:	0e05                	addi	t3,t3,1
    1384:	0e090103          	lb	sp,224(s2)
    1388:	0100                	addi	s0,sp,128
    138a:	1205                	addi	tp,tp,-31 # ffffffffffffffe1 <__BSS_END__+0xffffffff7fffbfe1>
    138c:	02090103          	lb	sp,32(s2)
    1390:	0100                	addi	s0,sp,128
    1392:	1405                	addi	s0,s0,-31
    1394:	14090003          	lb	zero,320(s2)
    1398:	0100                	addi	s0,sp,128
    139a:	1205                	addi	tp,tp,-31 # ffffffffffffffe1 <__BSS_END__+0xffffffff7fffbfe1>
    139c:	08090003          	lb	zero,128(s2)
    13a0:	0100                	addi	s0,sp,128
    13a2:	1005                	c.nop	-31
    13a4:	08097f03          	.insn	4, 0x08097f03
    13a8:	0100                	addi	s0,sp,128
    13aa:	1305                	addi	t1,t1,-31
    13ac:	0c090003          	lb	zero,192(s2)
    13b0:	0100                	addi	s0,sp,128
    13b2:	0705                	addi	a4,a4,1
    13b4:	02097d03          	.insn	4, 0x02097d03
    13b8:	0100                	addi	s0,sp,128
    13ba:	1605                	addi	a2,a2,-31
    13bc:	02090703          	lb	a4,32(s2)
    13c0:	0100                	addi	s0,sp,128
    13c2:	0f05                	addi	t5,t5,1
    13c4:	0c090003          	lb	zero,192(s2)
    13c8:	0100                	addi	s0,sp,128
    13ca:	1405                	addi	s0,s0,-31
    13cc:	0c090003          	lb	zero,192(s2)
    13d0:	0100                	addi	s0,sp,128
    13d2:	1205                	addi	tp,tp,-31 # ffffffffffffffe1 <__BSS_END__+0xffffffff7fffbfe1>
    13d4:	04090003          	lb	zero,64(s2)
    13d8:	0100                	addi	s0,sp,128
    13da:	1005                	c.nop	-31
    13dc:	04097f03          	.insn	4, 0x04097f03
    13e0:	0100                	addi	s0,sp,128
    13e2:	1305                	addi	t1,t1,-31
    13e4:	0c090003          	lb	zero,192(s2)
    13e8:	0100                	addi	s0,sp,128
    13ea:	0c05                	addi	s8,s8,1
    13ec:	02090303          	lb	t1,32(s2)
    13f0:	0100                	addi	s0,sp,128
    13f2:	0105                	addi	sp,sp,1
    13f4:	04090103          	lb	sp,64(s2)
    13f8:	0100                	addi	s0,sp,128
    13fa:	0a090503          	lb	a0,160(s2)
    13fe:	0100                	addi	s0,sp,128
    1400:	0c05                	addi	s8,s8,1
    1402:	14090103          	lb	sp,320(s2)
    1406:	0100                	addi	s0,sp,128
    1408:	0105                	addi	sp,sp,1
    140a:	12090103          	lb	sp,288(s2)
    140e:	0100                	addi	s0,sp,128
    1410:	0a09                	addi	s4,s4,2
    1412:	0000                	unimp
    1414:	0101                	addi	sp,sp,0

Disassembly of section .debug_frame:

0000000000000000 <.debug_frame>:
   0:	000c                	.insn	2, 0x000c
   2:	0000                	unimp
   4:	ffff                	.insn	2, 0xffff
   6:	ffff                	.insn	2, 0xffff
   8:	7c010003          	lb	zero,1984(sp)
   c:	0c01                	addi	s8,s8,0
   e:	0002                	c.slli64	zero
  10:	002c                	addi	a1,sp,8
  12:	0000                	unimp
  14:	0000                	unimp
  16:	0000                	unimp
  18:	0050                	addi	a2,sp,4
  1a:	8000                	.insn	2, 0x8000
  1c:	0000                	unimp
  1e:	0000                	unimp
  20:	005c                	addi	a5,sp,4
  22:	0000                	unimp
  24:	0000                	unimp
  26:	0000                	unimp
  28:	0e42                	slli	t3,t3,0x10
  2a:	4410                	lw	a2,8(s0)
  2c:	0281                	addi	t0,t0,0
  2e:	0488                	addi	a0,sp,576
  30:	0c42                	slli	s8,s8,0x10
  32:	0008                	.insn	2, 0x0008
  34:	4e02                	lw	t3,0(sp)
  36:	42c1                	li	t0,16
  38:	0cc8                	addi	a0,sp,596
  3a:	1002                	c.slli	zero,0x20
  3c:	0e42                	slli	t3,t3,0x10
  3e:	0000                	unimp
  40:	002c                	addi	a1,sp,8
  42:	0000                	unimp
  44:	0000                	unimp
  46:	0000                	unimp
  48:	00ac                	addi	a1,sp,72
  4a:	8000                	.insn	2, 0x8000
  4c:	0000                	unimp
  4e:	0000                	unimp
  50:	003e                	c.slli	zero,0xf
  52:	0000                	unimp
  54:	0000                	unimp
  56:	0000                	unimp
  58:	0e42                	slli	t3,t3,0x10
  5a:	4420                	lw	s0,72(s0)
  5c:	0281                	addi	t0,t0,0
  5e:	0488                	addi	a0,sp,576
  60:	0c42                	slli	s8,s8,0x10
  62:	0008                	.insn	2, 0x0008
  64:	c170                	sw	a2,68(a0)
  66:	c842                	sw	a6,16(sp)
  68:	020c                	addi	a1,sp,256
  6a:	4220                	lw	s0,64(a2)
  6c:	000e                	c.slli	zero,0x3
  6e:	0000                	unimp
  70:	000c                	.insn	2, 0x000c
  72:	0000                	unimp
  74:	ffff                	.insn	2, 0xffff
  76:	ffff                	.insn	2, 0xffff
  78:	7c010003          	lb	zero,1984(sp)
  7c:	0c01                	addi	s8,s8,0
  7e:	0002                	c.slli64	zero
  80:	002c                	addi	a1,sp,8
  82:	0000                	unimp
  84:	0070                	addi	a2,sp,12
  86:	0000                	unimp
  88:	00ea                	slli	ra,ra,0x1a
  8a:	8000                	.insn	2, 0x8000
  8c:	0000                	unimp
  8e:	0000                	unimp
  90:	007e                	c.slli	zero,0x1f
  92:	0000                	unimp
  94:	0000                	unimp
  96:	0000                	unimp
  98:	0e42                	slli	t3,t3,0x10
  9a:	4410                	lw	a2,8(s0)
  9c:	0281                	addi	t0,t0,0
  9e:	0488                	addi	a0,sp,576
  a0:	0c42                	slli	s8,s8,0x10
  a2:	0008                	.insn	2, 0x0008
  a4:	7002                	.insn	2, 0x7002
  a6:	42c1                	li	t0,16
  a8:	0cc8                	addi	a0,sp,596
  aa:	1002                	c.slli	zero,0x20
  ac:	0e42                	slli	t3,t3,0x10
  ae:	0000                	unimp
  b0:	002c                	addi	a1,sp,8
  b2:	0000                	unimp
  b4:	0070                	addi	a2,sp,12
  b6:	0000                	unimp
  b8:	0168                	addi	a0,sp,140
  ba:	8000                	.insn	2, 0x8000
  bc:	0000                	unimp
  be:	0000                	unimp
  c0:	00ac                	addi	a1,sp,72
  c2:	0000                	unimp
  c4:	0000                	unimp
  c6:	0000                	unimp
  c8:	0e42                	slli	t3,t3,0x10
  ca:	4440                	lw	s0,12(s0)
  cc:	0281                	addi	t0,t0,0
  ce:	0488                	addi	a0,sp,576
  d0:	0c42                	slli	s8,s8,0x10
  d2:	0008                	.insn	2, 0x0008
  d4:	9e02                	jalr	t3
  d6:	42c1                	li	t0,16
  d8:	0cc8                	addi	a0,sp,596
  da:	4002                	.insn	2, 0x4002
  dc:	0e42                	slli	t3,t3,0x10
  de:	0000                	unimp
  e0:	002c                	addi	a1,sp,8
  e2:	0000                	unimp
  e4:	0070                	addi	a2,sp,12
  e6:	0000                	unimp
  e8:	0214                	addi	a3,sp,256
  ea:	8000                	.insn	2, 0x8000
  ec:	0000                	unimp
  ee:	0000                	unimp
  f0:	00bc                	addi	a5,sp,72
  f2:	0000                	unimp
  f4:	0000                	unimp
  f6:	0000                	unimp
  f8:	0e42                	slli	t3,t3,0x10
  fa:	4430                	lw	a2,72(s0)
  fc:	0281                	addi	t0,t0,0
  fe:	0488                	addi	a0,sp,576
 100:	0c42                	slli	s8,s8,0x10
 102:	0008                	.insn	2, 0x0008
 104:	ae02                	fsd	ft0,280(sp)
 106:	42c1                	li	t0,16
 108:	0cc8                	addi	a0,sp,596
 10a:	3002                	fld	ft0,32(sp)
 10c:	0e42                	slli	t3,t3,0x10
 10e:	0000                	unimp
 110:	002c                	addi	a1,sp,8
 112:	0000                	unimp
 114:	0070                	addi	a2,sp,12
 116:	0000                	unimp
 118:	02d0                	addi	a2,sp,324
 11a:	8000                	.insn	2, 0x8000
 11c:	0000                	unimp
 11e:	0000                	unimp
 120:	0012                	c.slli	zero,0x4
 122:	0000                	unimp
 124:	0000                	unimp
 126:	0000                	unimp
 128:	0e42                	slli	t3,t3,0x10
 12a:	4410                	lw	a2,8(s0)
 12c:	0281                	addi	t0,t0,0
 12e:	0488                	addi	a0,sp,576
 130:	0c42                	slli	s8,s8,0x10
 132:	0008                	.insn	2, 0x0008
 134:	c144                	sw	s1,4(a0)
 136:	c842                	sw	a6,16(sp)
 138:	020c                	addi	a1,sp,256
 13a:	4210                	lw	a2,0(a2)
 13c:	000e                	c.slli	zero,0x3
 13e:	0000                	unimp
 140:	002c                	addi	a1,sp,8
 142:	0000                	unimp
 144:	0070                	addi	a2,sp,12
 146:	0000                	unimp
 148:	02e2                	slli	t0,t0,0x18
 14a:	8000                	.insn	2, 0x8000
 14c:	0000                	unimp
 14e:	0000                	unimp
 150:	00a6                	slli	ra,ra,0x9
 152:	0000                	unimp
 154:	0000                	unimp
 156:	0000                	unimp
 158:	0e42                	slli	t3,t3,0x10
 15a:	4420                	lw	s0,72(s0)
 15c:	0281                	addi	t0,t0,0
 15e:	0488                	addi	a0,sp,576
 160:	0c42                	slli	s8,s8,0x10
 162:	0008                	.insn	2, 0x0008
 164:	9802                	jalr	a6
 166:	42c1                	li	t0,16
 168:	0cc8                	addi	a0,sp,596
 16a:	2002                	fld	ft0,0(sp)
 16c:	0e42                	slli	t3,t3,0x10
 16e:	0000                	unimp
 170:	002c                	addi	a1,sp,8
 172:	0000                	unimp
 174:	0070                	addi	a2,sp,12
 176:	0000                	unimp
 178:	0388                	addi	a0,sp,448
 17a:	8000                	.insn	2, 0x8000
 17c:	0000                	unimp
 17e:	0000                	unimp
 180:	00e8                	addi	a0,sp,76
 182:	0000                	unimp
 184:	0000                	unimp
 186:	0000                	unimp
 188:	0e42                	slli	t3,t3,0x10
 18a:	4450                	lw	a2,12(s0)
 18c:	0281                	addi	t0,t0,0
 18e:	0488                	addi	a0,sp,576
 190:	0c42                	slli	s8,s8,0x10
 192:	0008                	.insn	2, 0x0008
 194:	da02                	sw	zero,52(sp)
 196:	42c1                	li	t0,16
 198:	0cc8                	addi	a0,sp,596
 19a:	5002                	.insn	2, 0x5002
 19c:	0e42                	slli	t3,t3,0x10
 19e:	0000                	unimp
 1a0:	002c                	addi	a1,sp,8
 1a2:	0000                	unimp
 1a4:	0070                	addi	a2,sp,12
 1a6:	0000                	unimp
 1a8:	0470                	addi	a2,sp,524
 1aa:	8000                	.insn	2, 0x8000
 1ac:	0000                	unimp
 1ae:	0000                	unimp
 1b0:	00d4                	addi	a3,sp,68
 1b2:	0000                	unimp
 1b4:	0000                	unimp
 1b6:	0000                	unimp
 1b8:	0e42                	slli	t3,t3,0x10
 1ba:	4430                	lw	a2,72(s0)
 1bc:	0281                	addi	t0,t0,0
 1be:	0488                	addi	a0,sp,576
 1c0:	0c42                	slli	s8,s8,0x10
 1c2:	0008                	.insn	2, 0x0008
 1c4:	c602                	sw	zero,12(sp)
 1c6:	42c1                	li	t0,16
 1c8:	0cc8                	addi	a0,sp,596
 1ca:	3002                	fld	ft0,32(sp)
 1cc:	0e42                	slli	t3,t3,0x10
 1ce:	0000                	unimp
 1d0:	002c                	addi	a1,sp,8
 1d2:	0000                	unimp
 1d4:	0070                	addi	a2,sp,12
 1d6:	0000                	unimp
 1d8:	0544                	addi	s1,sp,644
 1da:	8000                	.insn	2, 0x8000
 1dc:	0000                	unimp
 1de:	0000                	unimp
 1e0:	00b6                	slli	ra,ra,0xd
 1e2:	0000                	unimp
 1e4:	0000                	unimp
 1e6:	0000                	unimp
 1e8:	0e42                	slli	t3,t3,0x10
 1ea:	4430                	lw	a2,72(s0)
 1ec:	0281                	addi	t0,t0,0
 1ee:	0488                	addi	a0,sp,576
 1f0:	0c42                	slli	s8,s8,0x10
 1f2:	0008                	.insn	2, 0x0008
 1f4:	a802                	fsd	ft0,16(sp)
 1f6:	42c1                	li	t0,16
 1f8:	0cc8                	addi	a0,sp,596
 1fa:	3002                	fld	ft0,32(sp)
 1fc:	0e42                	slli	t3,t3,0x10
 1fe:	0000                	unimp
 200:	002c                	addi	a1,sp,8
 202:	0000                	unimp
 204:	0070                	addi	a2,sp,12
 206:	0000                	unimp
 208:	05fa                	slli	a1,a1,0x1e
 20a:	8000                	.insn	2, 0x8000
 20c:	0000                	unimp
 20e:	0000                	unimp
 210:	002e                	c.slli	zero,0xb
 212:	0000                	unimp
 214:	0000                	unimp
 216:	0000                	unimp
 218:	0e42                	slli	t3,t3,0x10
 21a:	4410                	lw	a2,8(s0)
 21c:	0281                	addi	t0,t0,0
 21e:	0488                	addi	a0,sp,576
 220:	0c42                	slli	s8,s8,0x10
 222:	0008                	.insn	2, 0x0008
 224:	c160                	sw	s0,68(a0)
 226:	c842                	sw	a6,16(sp)
 228:	020c                	addi	a1,sp,256
 22a:	4210                	lw	a2,0(a2)
 22c:	000e                	c.slli	zero,0x3
 22e:	0000                	unimp
 230:	000c                	.insn	2, 0x000c
 232:	0000                	unimp
 234:	ffff                	.insn	2, 0xffff
 236:	ffff                	.insn	2, 0xffff
 238:	7c010003          	lb	zero,1984(sp)
 23c:	0c01                	addi	s8,s8,0
 23e:	0002                	c.slli64	zero
 240:	002c                	addi	a1,sp,8
 242:	0000                	unimp
 244:	0230                	addi	a2,sp,264
 246:	0000                	unimp
 248:	0628                	addi	a0,sp,776
 24a:	8000                	.insn	2, 0x8000
 24c:	0000                	unimp
 24e:	0000                	unimp
 250:	002c                	addi	a1,sp,8
 252:	0000                	unimp
 254:	0000                	unimp
 256:	0000                	unimp
 258:	0e42                	slli	t3,t3,0x10
 25a:	4410                	lw	a2,8(s0)
 25c:	0281                	addi	t0,t0,0
 25e:	0488                	addi	a0,sp,576
 260:	0c42                	slli	s8,s8,0x10
 262:	0008                	.insn	2, 0x0008
 264:	c15e                	sw	s7,128(sp)
 266:	c842                	sw	a6,16(sp)
 268:	020c                	addi	a1,sp,256
 26a:	4210                	lw	a2,0(a2)
 26c:	000e                	c.slli	zero,0x3
 26e:	0000                	unimp
 270:	000c                	.insn	2, 0x000c
 272:	0000                	unimp
 274:	ffff                	.insn	2, 0xffff
 276:	ffff                	.insn	2, 0xffff
 278:	7c010003          	lb	zero,1984(sp)
 27c:	0c01                	addi	s8,s8,0
 27e:	0002                	c.slli64	zero
 280:	002c                	addi	a1,sp,8
 282:	0000                	unimp
 284:	0270                	addi	a2,sp,268
 286:	0000                	unimp
 288:	0654                	addi	a3,sp,772
 28a:	8000                	.insn	2, 0x8000
 28c:	0000                	unimp
 28e:	0000                	unimp
 290:	0080                	addi	s0,sp,64
 292:	0000                	unimp
 294:	0000                	unimp
 296:	0000                	unimp
 298:	0e42                	slli	t3,t3,0x10
 29a:	4430                	lw	a2,72(s0)
 29c:	0281                	addi	t0,t0,0
 29e:	0488                	addi	a0,sp,576
 2a0:	0c42                	slli	s8,s8,0x10
 2a2:	0008                	.insn	2, 0x0008
 2a4:	7202                	ld	tp,32(sp)
 2a6:	42c1                	li	t0,16
 2a8:	0cc8                	addi	a0,sp,596
 2aa:	3002                	fld	ft0,32(sp)
 2ac:	0e42                	slli	t3,t3,0x10
 2ae:	0000                	unimp
 2b0:	002c                	addi	a1,sp,8
 2b2:	0000                	unimp
 2b4:	0270                	addi	a2,sp,268
 2b6:	0000                	unimp
 2b8:	06d4                	addi	a3,sp,836
 2ba:	8000                	.insn	2, 0x8000
 2bc:	0000                	unimp
 2be:	0000                	unimp
 2c0:	004c                	addi	a1,sp,4
 2c2:	0000                	unimp
 2c4:	0000                	unimp
 2c6:	0000                	unimp
 2c8:	0e42                	slli	t3,t3,0x10
 2ca:	4430                	lw	a2,72(s0)
 2cc:	0281                	addi	t0,t0,0
 2ce:	0488                	addi	a0,sp,576
 2d0:	0c42                	slli	s8,s8,0x10
 2d2:	0008                	.insn	2, 0x0008
 2d4:	3e02                	fld	ft8,32(sp)
 2d6:	42c1                	li	t0,16
 2d8:	0cc8                	addi	a0,sp,596
 2da:	3002                	fld	ft0,32(sp)
 2dc:	0e42                	slli	t3,t3,0x10
 2de:	0000                	unimp
 2e0:	0034                	addi	a3,sp,8
 2e2:	0000                	unimp
 2e4:	0270                	addi	a2,sp,268
 2e6:	0000                	unimp
 2e8:	0720                	addi	s0,sp,904
 2ea:	8000                	.insn	2, 0x8000
 2ec:	0000                	unimp
 2ee:	0000                	unimp
 2f0:	0364                	addi	s1,sp,396
 2f2:	0000                	unimp
 2f4:	0000                	unimp
 2f6:	0000                	unimp
 2f8:	0e42                	slli	t3,t3,0x10
 2fa:	0180                	addi	s0,sp,192
 2fc:	8144                	.insn	2, 0x8144
 2fe:	8802                	jr	a6
 300:	4204                	lw	s1,0(a2)
 302:	080c                	addi	a1,sp,16
 304:	0300                	addi	s0,sp,384
 306:	0356                	slli	t1,t1,0x15
 308:	42c1                	li	t0,16
 30a:	0cc8                	addi	a0,sp,596
 30c:	8002                	.insn	2, 0x8002
 30e:	4201                	li	tp,0
 310:	000e                	c.slli	zero,0x3
 312:	0000                	unimp
 314:	0000                	unimp
 316:	0000                	unimp
 318:	002c                	addi	a1,sp,8
 31a:	0000                	unimp
 31c:	0270                	addi	a2,sp,268
 31e:	0000                	unimp
 320:	0a84                	addi	s1,sp,336
 322:	8000                	.insn	2, 0x8000
 324:	0000                	unimp
 326:	0000                	unimp
 328:	05aa                	slli	a1,a1,0xa
 32a:	0000                	unimp
 32c:	0000                	unimp
 32e:	0000                	unimp
 330:	0e42                	slli	t3,t3,0x10
 332:	4470                	lw	a2,76(s0)
 334:	0281                	addi	t0,t0,0
 336:	0488                	addi	a0,sp,576
 338:	0c42                	slli	s8,s8,0x10
 33a:	0008                	.insn	2, 0x0008
 33c:	c1059c03          	lh	s8,-1008(a1)
 340:	c842                	sw	a6,16(sp)
 342:	020c                	addi	a1,sp,256
 344:	4270                	lw	a2,68(a2)
 346:	000e                	c.slli	zero,0x3
 348:	0034                	addi	a3,sp,8
 34a:	0000                	unimp
 34c:	0270                	addi	a2,sp,268
 34e:	0000                	unimp
 350:	102e                	c.slli	zero,0x2b
 352:	8000                	.insn	2, 0x8000
 354:	0000                	unimp
 356:	0000                	unimp
 358:	007c                	addi	a5,sp,12
 35a:	0000                	unimp
 35c:	0000                	unimp
 35e:	0000                	unimp
 360:	0e44                	addi	s1,sp,788
 362:	08f0                	addi	a2,sp,92
 364:	8148                	.insn	2, 0x8148
 366:	8812                	mv	a6,tp
 368:	4414                	lw	a3,8(s0)
 36a:	080c                	addi	a1,sp,16
 36c:	0240                	addi	s0,sp,260
 36e:	c162                	sw	s8,128(sp)
 370:	c844                	sw	s1,20(s0)
 372:	020c                	addi	a1,sp,256
 374:	08f0                	addi	a2,sp,92
 376:	0e44                	addi	s1,sp,788
	...
 380:	002c                	addi	a1,sp,8
 382:	0000                	unimp
 384:	0270                	addi	a2,sp,268
 386:	0000                	unimp
 388:	10aa                	slli	ra,ra,0x2a
 38a:	8000                	.insn	2, 0x8000
 38c:	0000                	unimp
 38e:	0000                	unimp
 390:	004e                	c.slli	zero,0x13
 392:	0000                	unimp
 394:	0000                	unimp
 396:	0000                	unimp
 398:	0e42                	slli	t3,t3,0x10
 39a:	4430                	lw	a2,72(s0)
 39c:	0281                	addi	t0,t0,0
 39e:	0488                	addi	a0,sp,576
 3a0:	0c42                	slli	s8,s8,0x10
 3a2:	0008                	.insn	2, 0x0008
 3a4:	4002                	.insn	2, 0x4002
 3a6:	42c1                	li	t0,16
 3a8:	0cc8                	addi	a0,sp,596
 3aa:	3002                	fld	ft0,32(sp)
 3ac:	0e42                	slli	t3,t3,0x10
 3ae:	0000                	unimp
 3b0:	000c                	.insn	2, 0x000c
 3b2:	0000                	unimp
 3b4:	ffff                	.insn	2, 0xffff
 3b6:	ffff                	.insn	2, 0xffff
 3b8:	7c010003          	lb	zero,1984(sp)
 3bc:	0c01                	addi	s8,s8,0
 3be:	0002                	c.slli64	zero
 3c0:	002c                	addi	a1,sp,8
 3c2:	0000                	unimp
 3c4:	03b0                	addi	a2,sp,456
 3c6:	0000                	unimp
 3c8:	10f8                	addi	a4,sp,108
 3ca:	8000                	.insn	2, 0x8000
 3cc:	0000                	unimp
 3ce:	0000                	unimp
 3d0:	003a                	c.slli	zero,0xe
 3d2:	0000                	unimp
 3d4:	0000                	unimp
 3d6:	0000                	unimp
 3d8:	0e42                	slli	t3,t3,0x10
 3da:	4430                	lw	a2,72(s0)
 3dc:	0281                	addi	t0,t0,0
 3de:	0488                	addi	a0,sp,576
 3e0:	0c42                	slli	s8,s8,0x10
 3e2:	0008                	.insn	2, 0x0008
 3e4:	c16c                	sw	a1,68(a0)
 3e6:	c842                	sw	a6,16(sp)
 3e8:	020c                	addi	a1,sp,256
 3ea:	4230                	lw	a2,64(a2)
 3ec:	000e                	c.slli	zero,0x3
 3ee:	0000                	unimp
 3f0:	002c                	addi	a1,sp,8
 3f2:	0000                	unimp
 3f4:	03b0                	addi	a2,sp,456
 3f6:	0000                	unimp
 3f8:	1132                	slli	sp,sp,0x2c
 3fa:	8000                	.insn	2, 0x8000
 3fc:	0000                	unimp
 3fe:	0000                	unimp
 400:	0070                	addi	a2,sp,12
 402:	0000                	unimp
 404:	0000                	unimp
 406:	0000                	unimp
 408:	0e42                	slli	t3,t3,0x10
 40a:	4440                	lw	s0,12(s0)
 40c:	0281                	addi	t0,t0,0
 40e:	0488                	addi	a0,sp,576
 410:	0c42                	slli	s8,s8,0x10
 412:	0008                	.insn	2, 0x0008
 414:	6202                	ld	tp,0(sp)
 416:	42c1                	li	t0,16
 418:	0cc8                	addi	a0,sp,596
 41a:	4002                	.insn	2, 0x4002
 41c:	0e42                	slli	t3,t3,0x10
 41e:	0000                	unimp
 420:	002c                	addi	a1,sp,8
 422:	0000                	unimp
 424:	03b0                	addi	a2,sp,456
 426:	0000                	unimp
 428:	11a2                	slli	gp,gp,0x28
 42a:	8000                	.insn	2, 0x8000
 42c:	0000                	unimp
 42e:	0000                	unimp
 430:	005a                	c.slli	zero,0x16
 432:	0000                	unimp
 434:	0000                	unimp
 436:	0000                	unimp
 438:	0e42                	slli	t3,t3,0x10
 43a:	4430                	lw	a2,72(s0)
 43c:	0281                	addi	t0,t0,0
 43e:	0488                	addi	a0,sp,576
 440:	0c42                	slli	s8,s8,0x10
 442:	0008                	.insn	2, 0x0008
 444:	4c02                	lw	s8,0(sp)
 446:	42c1                	li	t0,16
 448:	0cc8                	addi	a0,sp,596
 44a:	3002                	fld	ft0,32(sp)
 44c:	0e42                	slli	t3,t3,0x10
 44e:	0000                	unimp
 450:	002c                	addi	a1,sp,8
 452:	0000                	unimp
 454:	03b0                	addi	a2,sp,456
 456:	0000                	unimp
 458:	11fc                	addi	a5,sp,236
 45a:	8000                	.insn	2, 0x8000
 45c:	0000                	unimp
 45e:	0000                	unimp
 460:	0088                	addi	a0,sp,64
 462:	0000                	unimp
 464:	0000                	unimp
 466:	0000                	unimp
 468:	0e42                	slli	t3,t3,0x10
 46a:	4430                	lw	a2,72(s0)
 46c:	0281                	addi	t0,t0,0
 46e:	0488                	addi	a0,sp,576
 470:	0c42                	slli	s8,s8,0x10
 472:	0008                	.insn	2, 0x0008
 474:	7a02                	ld	s4,32(sp)
 476:	42c1                	li	t0,16
 478:	0cc8                	addi	a0,sp,596
 47a:	3002                	fld	ft0,32(sp)
 47c:	0e42                	slli	t3,t3,0x10
 47e:	0000                	unimp
 480:	002c                	addi	a1,sp,8
 482:	0000                	unimp
 484:	03b0                	addi	a2,sp,456
 486:	0000                	unimp
 488:	1284                	addi	s1,sp,352
 48a:	8000                	.insn	2, 0x8000
 48c:	0000                	unimp
 48e:	0000                	unimp
 490:	008e                	slli	ra,ra,0x3
 492:	0000                	unimp
 494:	0000                	unimp
 496:	0000                	unimp
 498:	0e42                	slli	t3,t3,0x10
 49a:	4430                	lw	a2,72(s0)
 49c:	0281                	addi	t0,t0,0
 49e:	0488                	addi	a0,sp,576
 4a0:	0c42                	slli	s8,s8,0x10
 4a2:	0008                	.insn	2, 0x0008
 4a4:	8002                	.insn	2, 0x8002
 4a6:	42c1                	li	t0,16
 4a8:	0cc8                	addi	a0,sp,596
 4aa:	3002                	fld	ft0,32(sp)
 4ac:	0e42                	slli	t3,t3,0x10
 4ae:	0000                	unimp
 4b0:	002c                	addi	a1,sp,8
 4b2:	0000                	unimp
 4b4:	03b0                	addi	a2,sp,456
 4b6:	0000                	unimp
 4b8:	1312                	slli	t1,t1,0x24
 4ba:	8000                	.insn	2, 0x8000
 4bc:	0000                	unimp
 4be:	0000                	unimp
 4c0:	00b0                	addi	a2,sp,72
 4c2:	0000                	unimp
 4c4:	0000                	unimp
 4c6:	0000                	unimp
 4c8:	0e42                	slli	t3,t3,0x10
 4ca:	4430                	lw	a2,72(s0)
 4cc:	0281                	addi	t0,t0,0
 4ce:	0488                	addi	a0,sp,576
 4d0:	0c42                	slli	s8,s8,0x10
 4d2:	0008                	.insn	2, 0x0008
 4d4:	a202                	fsd	ft0,256(sp)
 4d6:	42c1                	li	t0,16
 4d8:	0cc8                	addi	a0,sp,596
 4da:	3002                	fld	ft0,32(sp)
 4dc:	0e42                	slli	t3,t3,0x10
 4de:	0000                	unimp
 4e0:	002c                	addi	a1,sp,8
 4e2:	0000                	unimp
 4e4:	03b0                	addi	a2,sp,456
 4e6:	0000                	unimp
 4e8:	13c2                	slli	t2,t2,0x30
 4ea:	8000                	.insn	2, 0x8000
 4ec:	0000                	unimp
 4ee:	0000                	unimp
 4f0:	005e                	c.slli	zero,0x17
 4f2:	0000                	unimp
 4f4:	0000                	unimp
 4f6:	0000                	unimp
 4f8:	0e42                	slli	t3,t3,0x10
 4fa:	4440                	lw	s0,12(s0)
 4fc:	0281                	addi	t0,t0,0
 4fe:	0488                	addi	a0,sp,576
 500:	0c42                	slli	s8,s8,0x10
 502:	0008                	.insn	2, 0x0008
 504:	5002                	.insn	2, 0x5002
 506:	42c1                	li	t0,16
 508:	0cc8                	addi	a0,sp,596
 50a:	4002                	.insn	2, 0x4002
 50c:	0e42                	slli	t3,t3,0x10
 50e:	0000                	unimp
 510:	002c                	addi	a1,sp,8
 512:	0000                	unimp
 514:	03b0                	addi	a2,sp,456
 516:	0000                	unimp
 518:	1420                	addi	s0,sp,552
 51a:	8000                	.insn	2, 0x8000
 51c:	0000                	unimp
 51e:	0000                	unimp
 520:	0086                	slli	ra,ra,0x1
 522:	0000                	unimp
 524:	0000                	unimp
 526:	0000                	unimp
 528:	0e42                	slli	t3,t3,0x10
 52a:	4440                	lw	s0,12(s0)
 52c:	0281                	addi	t0,t0,0
 52e:	0488                	addi	a0,sp,576
 530:	0c42                	slli	s8,s8,0x10
 532:	0008                	.insn	2, 0x0008
 534:	7802                	ld	a6,32(sp)
 536:	42c1                	li	t0,16
 538:	0cc8                	addi	a0,sp,596
 53a:	4002                	.insn	2, 0x4002
 53c:	0e42                	slli	t3,t3,0x10
 53e:	0000                	unimp
 540:	002c                	addi	a1,sp,8
 542:	0000                	unimp
 544:	03b0                	addi	a2,sp,456
 546:	0000                	unimp
 548:	14a6                	slli	s1,s1,0x29
 54a:	8000                	.insn	2, 0x8000
 54c:	0000                	unimp
 54e:	0000                	unimp
 550:	00dc                	addi	a5,sp,68
 552:	0000                	unimp
 554:	0000                	unimp
 556:	0000                	unimp
 558:	0e42                	slli	t3,t3,0x10
 55a:	4440                	lw	s0,12(s0)
 55c:	0281                	addi	t0,t0,0
 55e:	0488                	addi	a0,sp,576
 560:	0c42                	slli	s8,s8,0x10
 562:	0008                	.insn	2, 0x0008
 564:	ce02                	sw	zero,28(sp)
 566:	42c1                	li	t0,16
 568:	0cc8                	addi	a0,sp,596
 56a:	4002                	.insn	2, 0x4002
 56c:	0e42                	slli	t3,t3,0x10
 56e:	0000                	unimp
 570:	002c                	addi	a1,sp,8
 572:	0000                	unimp
 574:	03b0                	addi	a2,sp,456
 576:	0000                	unimp
 578:	1582                	slli	a1,a1,0x20
 57a:	8000                	.insn	2, 0x8000
 57c:	0000                	unimp
 57e:	0000                	unimp
 580:	0030                	addi	a2,sp,8
 582:	0000                	unimp
 584:	0000                	unimp
 586:	0000                	unimp
 588:	0e42                	slli	t3,t3,0x10
 58a:	4430                	lw	a2,72(s0)
 58c:	0281                	addi	t0,t0,0
 58e:	0488                	addi	a0,sp,576
 590:	0c42                	slli	s8,s8,0x10
 592:	0008                	.insn	2, 0x0008
 594:	c162                	sw	s8,128(sp)
 596:	c842                	sw	a6,16(sp)
 598:	020c                	addi	a1,sp,256
 59a:	4230                	lw	a2,64(a2)
 59c:	000e                	c.slli	zero,0x3
	...

Disassembly of section .debug_str:

0000000000000000 <.debug_str>:
   0:	6e72656b          	.insn	4, 0x6e72656b
   4:	6c65                	lui	s8,0x19
   6:	6174732f          	.insn	4, 0x6174732f
   a:	7472                	ld	s0,312(sp)
   c:	532e                	lw	t1,232(sp)
   e:	2f00                	fld	fs0,24(a4)
  10:	6f68                	ld	a0,216(a4)
  12:	656d                	lui	a0,0x1b
  14:	6168772f          	.insn	4, 0x6168772f
  18:	656c                	ld	a1,200(a0)
  1a:	6166                	ld	sp,88(sp)
  1c:	6c6c                	ld	a1,216(s0)
  1e:	6f72502f          	.insn	4, 0x6f72502f
  22:	656a                	ld	a0,152(sp)
  24:	2f737463          	bgeu	t1,s7,30c <_start-0x7ffffcf4>
  28:	6c616857          	.insn	4, 0x6c616857
  2c:	4f65                	li	t5,25
  2e:	4e470053          	.insn	4, 0x4e470053
  32:	2055                	.insn	2, 0x2055
  34:	5341                	li	t1,-16
  36:	3220                	fld	fs0,96(a2)
  38:	342e                	fld	fs0,232(sp)
  3a:	00312e33          	slt	t3,sp,gp
  3e:	6f6c                	ld	a1,216(a4)
  40:	676e                	ld	a4,216(sp)
  42:	7520                	ld	s0,104(a0)
  44:	736e                	ld	t1,248(sp)
  46:	6769                	lui	a4,0x1a
  48:	656e                	ld	a0,216(sp)
  4a:	2064                	fld	fs1,192(s0)
  4c:	6e69                	lui	t3,0x1a
  4e:	0074                	addi	a3,sp,12
  50:	6e75                	lui	t3,0x1d
  52:	6e676973          	csrrsi	s2,0x6e6,14
  56:	6465                	lui	s0,0x19
  58:	6320                	ld	s0,64(a4)
  5a:	6168                	ld	a0,192(a0)
  5c:	0072                	c.slli	zero,0x1c
  5e:	726f6873          	csrrsi	a6,mhpmevent6h,30
  62:	2074                	fld	fa3,192(s0)
  64:	6e75                	lui	t3,0x1d
  66:	6e676973          	csrrsi	s2,0x6e6,14
  6a:	6465                	lui	s0,0x19
  6c:	6920                	ld	s0,80(a0)
  6e:	746e                	ld	s0,248(sp)
  70:	7500                	ld	s0,40(a0)
  72:	7261                	lui	tp,0xffff8
  74:	5f74                	lw	a3,124(a4)
  76:	6e69                	lui	t3,0x1a
  78:	7469                	lui	s0,0xffffa
  7a:	7500                	ld	s0,40(a0)
  7c:	7261                	lui	tp,0xffff8
  7e:	5f74                	lw	a3,124(a4)
  80:	7570                	ld	a2,232(a0)
  82:	6374                	ld	a3,192(a4)
  84:	7500                	ld	s0,40(a0)
  86:	6e69                	lui	t3,0x1a
  88:	3874                	fld	fa3,240(s0)
  8a:	4700                	lw	s0,8(a4)
  8c:	554e                	lw	a0,240(sp)
  8e:	4320                	lw	s0,64(a4)
  90:	3731                	addiw	a4,a4,-20 # 19fec <_start-0x7ffe6014>
  92:	3120                	fld	fs0,96(a0)
  94:	2e34                	fld	fa3,88(a2)
  96:	2e32                	fld	ft8,264(sp)
  98:	2030                	fld	fa2,64(s0)
  9a:	6d2d                	lui	s10,0xb
  9c:	646f6d63          	bltu	t5,t1,6f6 <_start-0x7ffff90a>
  a0:	6c65                	lui	s8,0x19
  a2:	6d3d                	lui	s10,0xf
  a4:	6465                	lui	s0,0x19
  a6:	6e61                	lui	t3,0x18
  a8:	2079                	.insn	2, 0x2079
  aa:	6d2d                	lui	s10,0xb
  ac:	7574                	ld	a3,232(a0)
  ae:	656e                	ld	a0,216(sp)
  b0:	723d                	lui	tp,0xfffef
  b2:	656b636f          	jal	t1,b6708 <_start-0x7ff498f8>
  b6:	2074                	fld	fa3,192(s0)
  b8:	6d2d                	lui	s10,0xb
  ba:	6261                	lui	tp,0x18
  bc:	3d69                	addiw	s10,s10,-6 # affa <_start-0x7fff5006>
  be:	706c                	ld	a1,224(s0)
  c0:	3436                	fld	fs0,360(sp)
  c2:	2064                	fld	fs1,192(s0)
  c4:	6d2d                	lui	s10,0xb
  c6:	7369                	lui	t1,0xffffa
  c8:	2d61                	addiw	s10,s10,24 # b018 <_start-0x7fff4fe8>
  ca:	63657073          	csrci	0x636,10
  ce:	323d                	addiw	tp,tp,-17 # 17fef <_start-0x7ffe8011>
  d0:	3130                	fld	fa2,96(a0)
  d2:	3139                	addiw	sp,sp,-18
  d4:	3132                	fld	ft2,296(sp)
  d6:	6d2d2033          	.insn	4, 0x6d2d2033
  da:	7261                	lui	tp,0xffff8
  dc:	723d6863          	bltu	s10,gp,80c <_start-0x7ffff7f4>
  e0:	3676                	fld	fa2,376(sp)
  e2:	6934                	ld	a3,80(a0)
  e4:	616d                	addi	sp,sp,240
  e6:	6466                	ld	s0,88(sp)
  e8:	697a5f63          	bge	s4,s7,786 <_start-0x7ffff87a>
  ec:	5f727363          	bgeu	tp,s7,6d2 <_start-0x7ffff92e>
  f0:	697a                	ld	s2,408(sp)
  f2:	6566                	ld	a0,88(sp)
  f4:	636e                	ld	t1,216(sp)
  f6:	6965                	lui	s2,0x19
  f8:	2d20                	fld	fs0,88(a0)
  fa:	62646767          	.insn	4, 0x62646767
  fe:	2d20                	fld	fs0,88(a0)
 100:	2d20304f          	.insn	4, 0x2d20304f
 104:	6e66                	ld	t3,88(sp)
 106:	6d6f2d6f          	jal	s10,f27dc <_start-0x7ff0d824>
 10a:	7469                	lui	s0,0xffffa
 10c:	662d                	lui	a2,0xb
 10e:	6172                	ld	sp,280(sp)
 110:	656d                	lui	a0,0x1b
 112:	702d                	c.lui	zero,0xfffeb
 114:	746e696f          	jal	s2,e685a <_start-0x7ff197a6>
 118:	7265                	lui	tp,0xffff9
 11a:	6c00                	ld	s0,24(s0)
 11c:	20676e6f          	jal	t3,76322 <_start-0x7ff89cde>
 120:	6f6c                	ld	a1,216(a4)
 122:	676e                	ld	a4,216(sp)
 124:	6920                	ld	s0,80(a0)
 126:	746e                	ld	s0,248(sp)
 128:	6200                	ld	s0,0(a2)
 12a:	6675                	lui	a2,0x1d
 12c:	0032                	c.slli	zero,0xc
 12e:	6574                	ld	a3,200(a0)
 130:	705f7473          	csrrci	s0,0x705,30
 134:	6972                	ld	s2,280(sp)
 136:	746e                	ld	s0,248(sp)
 138:	0066                	c.slli	zero,0x19
 13a:	726f6873          	csrrsi	a6,mhpmevent6h,30
 13e:	5f74                	lw	a3,124(a4)
 140:	6564                	ld	s1,200(a0)
 142:	74007473          	csrrci	s0,0x740,0
 146:	7365                	lui	t1,0xffff9
 148:	5f74                	lw	a3,124(a4)
 14a:	656d                	lui	a0,0x1b
 14c:	6d6d                	lui	s10,0x1b
 14e:	0065766f          	jal	a2,57154 <_start-0x7ffa8eac>
 152:	6574                	ld	a3,200(a0)
 154:	6d5f7473          	csrrci	s0,0x6d5,30
 158:	6d65                	lui	s10,0x19
 15a:	00706d63          	bltu	zero,t2,174 <_start-0x7ffffe8c>
 15e:	6574                	ld	a3,200(a0)
 160:	6d5f7473          	csrrci	s0,0x6d5,30
 164:	6d65                	lui	s10,0x19
 166:	00797063          	bgeu	s2,t2,166 <_start-0x7ffffe9a>
 16a:	6574                	ld	a3,200(a0)
 16c:	6d5f7473          	csrrci	s0,0x6d5,30
 170:	6d65                	lui	s10,0x19
 172:	00746573          	csrrsi	a0,0x7,8
 176:	756e                	ld	a0,248(sp)
 178:	736d                	lui	t1,0xffffb
 17a:	7400                	ld	s0,40(s0)
 17c:	7365                	lui	t1,0xffff9
 17e:	5f74                	lw	a3,124(a4)
 180:	63727473          	csrrci	s0,0x637,4
 184:	7970                	ld	a2,240(a0)
 186:	6400                	ld	s0,8(s0)
 188:	7365                	lui	t1,0xffff9
 18a:	3274                	fld	fa3,224(a2)
 18c:	7400                	ld	s0,40(s0)
 18e:	7365                	lui	t1,0xffff9
 190:	5f74                	lw	a3,124(a4)
 192:	69727473          	csrrci	s0,0x697,4
 196:	676e                	ld	a4,216(sp)
 198:	7400                	ld	s0,40(s0)
 19a:	7365                	lui	t1,0xffff9
 19c:	5f74                	lw	a3,124(a4)
 19e:	6e727473          	csrrci	s0,0x6e7,4
 1a2:	00797063          	bgeu	s2,t2,1a2 <_start-0x7ffffe5e>
 1a6:	63727473          	csrrci	s0,0x637,4
 1aa:	706d                	c.lui	zero,0xffffb
 1ac:	6e00                	ld	s0,24(a2)
 1ae:	6d75                	lui	s10,0x1d
 1b0:	66615f73          	csrrwi	t5,0x666,2
 1b4:	6574                	ld	a3,200(a0)
 1b6:	0072                	c.slli	zero,0x1c
 1b8:	5f5f 7566 636e      	.insn	6, 0x636e75665f5f
 1be:	5f5f 6c00 6e6f      	.insn	6, 0x6e6f6c005f5f
 1c4:	6f642067          	.insn	4, 0x6f642067
 1c8:	6275                	lui	tp,0x1d
 1ca:	656c                	ld	a1,200(a0)
 1cc:	7400                	ld	s0,40(s0)
 1ce:	7365                	lui	t1,0xffff9
 1d0:	5f74                	lw	a3,124(a4)
 1d2:	6e727473          	csrrci	s0,0x6e7,4
 1d6:	00706d63          	bltu	zero,t2,1f0 <_start-0x7ffffe10>
 1da:	7570                	ld	a2,232(a0)
 1dc:	7374                	ld	a3,224(a4)
 1de:	6d00                	ld	s0,24(a0)
 1e0:	6961                	lui	s2,0x18
 1e2:	006e                	c.slli	zero,0x1b
 1e4:	6e69                	lui	t3,0x1a
 1e6:	7469                	lui	s0,0xffffa
 1e8:	735f 6174 6b63      	.insn	6, 0x6b636174735f
 1ee:	745f 706f 6900      	.insn	6, 0x6900706f745f
 1f4:	696e                	ld	s2,216(sp)
 1f6:	5f74                	lw	a3,124(a4)
 1f8:	63617473          	csrrci	s0,0x636,2
 1fc:	6964006b          	.insn	4, 0x6964006b
 200:	73746967          	.insn	4, 0x73746967
 204:	7300                	ld	s0,32(a4)
 206:	7a69                	lui	s4,0xffffa
 208:	5f65                	li	t5,-7
 20a:	0074                	addi	a3,sp,12
 20c:	5f5f 7562 6c69      	.insn	6, 0x6c6975625f5f
 212:	6974                	ld	a3,208(a0)
 214:	5f6e                	lw	t5,248(sp)
 216:	6176                	ld	sp,344(sp)
 218:	6c5f 7369 0074      	.insn	6, 0x007473696c5f
 21e:	7376                	ld	t1,376(sp)
 220:	706e                	.insn	2, 0x706e
 222:	6972                	ld	s2,280(sp)
 224:	746e                	ld	s0,248(sp)
 226:	0066                	c.slli	zero,0x19
 228:	70696b73          	csrrsi	s6,0x706,18
 22c:	615f 6f74 0069      	.insn	6, 0x00696f74615f
 232:	6964                	ld	s1,208(a0)
 234:	73746967          	.insn	4, 0x73746967
 238:	685f 6769 0068      	.insn	6, 0x00686769685f
 23e:	5f5f 6e67 6375      	.insn	6, 0x63756e675f5f
 244:	765f 5f61 696c      	.insn	6, 0x696c5f61765f
 24a:	70007473          	csrrci	s0,0x700,0
 24e:	6572                	ld	a0,280(sp)
 250:	69736963          	bltu	t1,s7,8e2 <_start-0x7ffff71e>
 254:	6c006e6f          	jal	t3,6914 <_start-0x7fff96ec>
 258:	00706f6f          	jal	t5,6a5e <_start-0x7fff95a2>
 25c:	756e                	ld	a0,248(sp)
 25e:	5f6d                	li	t5,-5
 260:	00727473          	csrrci	s0,0x7,4
 264:	74697277          	.insn	4, 0x74697277
 268:	0065                	c.nop	25
 26a:	6162                	ld	sp,24(sp)
 26c:	73006573          	csrrsi	a0,mhpmevent16h,0
 270:	7274                	ld	a3,224(a2)
 272:	656c                	ld	a1,200(a0)
 274:	006e                	c.slli	zero,0x1b
 276:	6c66                	ld	s8,88(sp)
 278:	6761                	lui	a4,0x18
 27a:	756e0073          	.insn	4, 0x756e0073
 27e:	626d                	lui	tp,0x1b
 280:	7265                	lui	tp,0xffff9
 282:	7400                	ld	s0,40(s0)
 284:	7079                	c.lui	zero,0xffffe
 286:	0065                	c.nop	25
 288:	6966                	ld	s2,88(sp)
 28a:	6c65                	lui	s8,0x19
 28c:	5f64                	lw	s1,124(a4)
 28e:	74646977          	.insn	4, 0x74646977
 292:	0068                	addi	a0,sp,12
 294:	7261                	lui	tp,0xffff8
 296:	64007367          	.insn	4, 0x64007367
 29a:	6769                	lui	a4,0x1a
 29c:	7469                	lui	s0,0xffffa
 29e:	6f6c5f73          	csrrwi	t5,0x6f6,24
 2a2:	6e750077          	.insn	4, 0x6e750077
 2a6:	6d75                	lui	s10,0x1d
 2a8:	7300                	ld	s0,32(a4)
 2aa:	6769                	lui	a4,0x1a
 2ac:	006e                	c.slli	zero,0x1b
 2ae:	657a6973          	csrrsi	s2,hviprio2h,20
 2b2:	6f00                	ld	s0,24(a4)
 2b4:	6972                	ld	s2,280(sp)
 2b6:	5f6e6967          	.insn	4, 0x5f6e6967
 2ba:	7364                	ld	s1,224(a4)
 2bc:	0074                	addi	a3,sp,12
 2be:	63727473          	csrrci	s0,0x637,4
 2c2:	7461                	lui	s0,0xffff8
 2c4:	6300                	ld	s0,0(a4)
 2c6:	7364                	ld	s1,224(a4)
 2c8:	0074                	addi	a3,sp,12

Disassembly of section .debug_line_str:

0000000000000000 <.debug_line_str>:
   0:	6d6f682f          	.insn	4, 0x6d6f682f
   4:	2f65                	addiw	t5,t5,25
   6:	6c616877          	.insn	4, 0x6c616877
   a:	6665                	lui	a2,0x19
   c:	6c61                	lui	s8,0x18
   e:	2f6c                	fld	fa1,216(a4)
  10:	7250                	ld	a2,160(a2)
  12:	63656a6f          	jal	s4,56648 <_start-0x7ffa99b8>
  16:	7374                	ld	a3,224(a4)
  18:	6168572f          	.insn	4, 0x6168572f
  1c:	656c                	ld	a1,200(a0)
  1e:	6b00534f          	fnmadd.d	ft6,ft0,fa6,fa3,unknown
  22:	7265                	lui	tp,0xffff9
  24:	656e                	ld	a0,216(sp)
  26:	006c                	addi	a1,sp,12
  28:	72617473          	csrrci	s0,mhpmevent6h,2
  2c:	2e74                	fld	fa3,216(a2)
  2e:	656b0053          	.insn	4, 0x656b0053
  32:	6e72                	ld	t3,280(sp)
  34:	6c65                	lui	s8,0x19
  36:	7665642f          	.insn	4, 0x7665642f
  3a:	6369                	lui	t1,0x1a
  3c:	7365                	lui	t1,0xffff9
  3e:	7261752f          	.insn	4, 0x7261752f
  42:	2e74                	fld	fa3,216(a2)
  44:	656b0063          	beq	s6,s6,684 <_start-0x7ffff97c>
  48:	6e72                	ld	t3,280(sp)
  4a:	6c65                	lui	s8,0x19
  4c:	7665642f          	.insn	4, 0x7665642f
  50:	6369                	lui	t1,0x1a
  52:	7365                	lui	t1,0xffff9
  54:	6b00                	ld	s0,16(a4)
  56:	7265                	lui	tp,0xffff9
  58:	656e                	ld	a0,216(sp)
  5a:	2f6c                	fld	fa1,216(a4)
  5c:	6e69                	lui	t3,0x1a
  5e:	64756c63          	bltu	a0,t2,6b6 <_start-0x7ffff94a>
  62:	0065                	c.nop	25
  64:	6d6d6f63          	bltu	s10,s6,742 <_start-0x7ffff8be>
  68:	682e6e6f          	jal	t3,e66ea <_start-0x7ff19916>
  6c:	6b00                	ld	s0,16(a4)
  6e:	7265                	lui	tp,0xffff9
  70:	656e                	ld	a0,216(sp)
  72:	2f6c                	fld	fa1,216(a4)
  74:	6574                	ld	a3,200(a0)
  76:	742f7473          	csrrci	s0,0x742,30
  7a:	7365                	lui	t1,0xffff9
  7c:	6c74                	ld	a3,216(s0)
  7e:	6269                	lui	tp,0x1a
  80:	632e                	ld	t1,200(sp)
  82:	6b00                	ld	s0,16(a4)
  84:	7265                	lui	tp,0xffff9
  86:	656e                	ld	a0,216(sp)
  88:	2f6c                	fld	fa1,216(a4)
  8a:	6574                	ld	a3,200(a0)
  8c:	6b007473          	csrrci	s0,0x6b0,0
  90:	7265                	lui	tp,0xffff9
  92:	656e                	ld	a0,216(sp)
  94:	2f6c                	fld	fa1,216(a4)
  96:	616d                	addi	sp,sp,240
  98:	6e69                	lui	t3,0x1a
  9a:	632e                	ld	t1,200(sp)
  9c:	7400                	ld	s0,40(s0)
  9e:	7365                	lui	t1,0xffff9
  a0:	6474                	ld	a3,200(s0)
  a2:	6665                	lui	a2,0x19
  a4:	00682e73          	csrrs	t3,0x6,a6
  a8:	6e72656b          	.insn	4, 0x6e72656b
  ac:	6c65                	lui	s8,0x19
  ae:	62696c2f          	.insn	4, 0x62696c2f
  b2:	6972702f          	.insn	4, 0x6972702f
  b6:	746e                	ld	s0,248(sp)
  b8:	2e66                	fld	ft8,88(sp)
  ba:	656b0063          	beq	s6,s6,6fa <_start-0x7ffff906>
  be:	6e72                	ld	t3,280(sp)
  c0:	6c65                	lui	s8,0x19
  c2:	62696c2f          	.insn	4, 0x62696c2f
  c6:	2f00                	fld	fs0,24(a4)
  c8:	2f74706f          	j	47bbe <_start-0x7ffb8442>
  cc:	6972                	ld	s2,280(sp)
  ce:	2f766373          	csrrsi	t1,0x2f7,12
  d2:	696c                	ld	a1,208(a0)
  d4:	2f62                	fld	ft10,24(sp)
  d6:	2f636367          	.insn	4, 0x2f636367
  da:	6972                	ld	s2,280(sp)
  dc:	36766373          	csrrsi	t1,0x367,12
  e0:	2d34                	fld	fa3,88(a0)
  e2:	6e75                	lui	t3,0x1d
  e4:	776f6e6b          	.insn	4, 0x776f6e6b
  e8:	2d6e                	fld	fs10,216(sp)
  ea:	6c65                	lui	s8,0x19
  ec:	2f66                	fld	ft10,88(sp)
  ee:	3431                	addiw	s0,s0,-20 # ffffffffffff7fec <__BSS_END__+0xffffffff7fff3fec>
  f0:	322e                	fld	ft4,232(sp)
  f2:	302e                	fld	ft0,232(sp)
  f4:	636e692f          	.insn	4, 0x636e692f
  f8:	756c                	ld	a1,232(a0)
  fa:	6564                	ld	s1,200(a0)
  fc:	7300                	ld	s0,32(a4)
  fe:	6474                	ld	a3,200(s0)
 100:	6564                	ld	s1,200(a0)
 102:	2e66                	fld	ft8,88(sp)
 104:	0068                	addi	a0,sp,12
 106:	61647473          	csrrci	s0,0x616,8
 10a:	6772                	ld	a4,280(sp)
 10c:	682e                	ld	a6,200(sp)
 10e:	6b00                	ld	s0,16(a4)
 110:	7265                	lui	tp,0xffff9
 112:	656e                	ld	a0,216(sp)
 114:	2f6c                	fld	fa1,216(a4)
 116:	696c                	ld	a1,208(a0)
 118:	2f62                	fld	ft10,24(sp)
 11a:	69727473          	csrrci	s0,0x697,4
 11e:	676e                	ld	a4,216(sp)
 120:	632e                	ld	t1,200(sp)
	...
